Archive member included because of file (symbol)

/home/lordrafa/altera/12.1sp1/nios2eds/bin/gnu/H-i686-pc-linux-gnu/bin/../lib/gcc/nios2-elf/4.1.2/../../../../nios2-elf/lib/libstdc++.a(eh_personality.o)
                              obj/default/framereader/vip_wrapper_for_c_func.o (__gxx_personality_sj0)
/home/lordrafa/altera/12.1sp1/nios2eds/bin/gnu/H-i686-pc-linux-gnu/bin/../lib/gcc/nios2-elf/4.1.2/../../../../nios2-elf/lib/libstdc++.a(eh_terminate.o)
                              /home/lordrafa/altera/12.1sp1/nios2eds/bin/gnu/H-i686-pc-linux-gnu/bin/../lib/gcc/nios2-elf/4.1.2/../../../../nios2-elf/lib/libstdc++.a(eh_personality.o) (_ZN10__cxxabiv111__terminateEPFvvE)
/home/lordrafa/altera/12.1sp1/nios2eds/bin/gnu/H-i686-pc-linux-gnu/bin/../lib/gcc/nios2-elf/4.1.2/../../../../nios2-elf/lib/libstdc++.a(eh_term_handler.o)
                              /home/lordrafa/altera/12.1sp1/nios2eds/bin/gnu/H-i686-pc-linux-gnu/bin/../lib/gcc/nios2-elf/4.1.2/../../../../nios2-elf/lib/libstdc++.a(eh_terminate.o) (_ZN10__cxxabiv119__terminate_handlerE)
/home/lordrafa/altera/12.1sp1/nios2eds/bin/gnu/H-i686-pc-linux-gnu/bin/../lib/gcc/nios2-elf/4.1.2/../../../../nios2-elf/lib/libstdc++.a(eh_catch.o)
                              /home/lordrafa/altera/12.1sp1/nios2eds/bin/gnu/H-i686-pc-linux-gnu/bin/../lib/gcc/nios2-elf/4.1.2/../../../../nios2-elf/lib/libstdc++.a(eh_personality.o) (__cxa_end_catch)
/home/lordrafa/altera/12.1sp1/nios2eds/bin/gnu/H-i686-pc-linux-gnu/bin/../lib/gcc/nios2-elf/4.1.2/../../../../nios2-elf/lib/libstdc++.a(del_op.o)
                              obj/default/framereader/vip_wrapper_for_c_func.o (_ZdlPv)
/home/lordrafa/altera/12.1sp1/nios2eds/bin/gnu/H-i686-pc-linux-gnu/bin/../lib/gcc/nios2-elf/4.1.2/../../../../nios2-elf/lib/libstdc++.a(eh_throw.o)
                              /home/lordrafa/altera/12.1sp1/nios2eds/bin/gnu/H-i686-pc-linux-gnu/bin/../lib/gcc/nios2-elf/4.1.2/../../../../nios2-elf/lib/libstdc++.a(eh_personality.o) (__cxa_rethrow)
/home/lordrafa/altera/12.1sp1/nios2eds/bin/gnu/H-i686-pc-linux-gnu/bin/../lib/gcc/nios2-elf/4.1.2/../../../../nios2-elf/lib/libstdc++.a(eh_alloc.o)
                              /home/lordrafa/altera/12.1sp1/nios2eds/bin/gnu/H-i686-pc-linux-gnu/bin/../lib/gcc/nios2-elf/4.1.2/../../../../nios2-elf/lib/libstdc++.a(eh_throw.o) (__cxa_free_exception)
/home/lordrafa/altera/12.1sp1/nios2eds/bin/gnu/H-i686-pc-linux-gnu/bin/../lib/gcc/nios2-elf/4.1.2/../../../../nios2-elf/lib/libstdc++.a(new_op.o)
                              obj/default/framereader/vip_wrapper_for_c_func.o (_Znwm)
/home/lordrafa/altera/12.1sp1/nios2eds/bin/gnu/H-i686-pc-linux-gnu/bin/../lib/gcc/nios2-elf/4.1.2/../../../../nios2-elf/lib/libstdc++.a(eh_exception.o)
                              /home/lordrafa/altera/12.1sp1/nios2eds/bin/gnu/H-i686-pc-linux-gnu/bin/../lib/gcc/nios2-elf/4.1.2/../../../../nios2-elf/lib/libstdc++.a(eh_personality.o) (_ZTVSt13bad_exception)
/home/lordrafa/altera/12.1sp1/nios2eds/bin/gnu/H-i686-pc-linux-gnu/bin/../lib/gcc/nios2-elf/4.1.2/../../../../nios2-elf/lib/libstdc++.a(eh_call.o)
                              /home/lordrafa/altera/12.1sp1/nios2eds/bin/gnu/H-i686-pc-linux-gnu/bin/../lib/gcc/nios2-elf/4.1.2/../../../../nios2-elf/lib/libstdc++.a(eh_personality.o) (__cxa_call_terminate)
/home/lordrafa/altera/12.1sp1/nios2eds/bin/gnu/H-i686-pc-linux-gnu/bin/../lib/gcc/nios2-elf/4.1.2/../../../../nios2-elf/lib/libstdc++.a(new_handler.o)
                              /home/lordrafa/altera/12.1sp1/nios2eds/bin/gnu/H-i686-pc-linux-gnu/bin/../lib/gcc/nios2-elf/4.1.2/../../../../nios2-elf/lib/libstdc++.a(new_op.o) (__new_handler)
/home/lordrafa/altera/12.1sp1/nios2eds/bin/gnu/H-i686-pc-linux-gnu/bin/../lib/gcc/nios2-elf/4.1.2/../../../../nios2-elf/lib/libstdc++.a(eh_globals.o)
                              /home/lordrafa/altera/12.1sp1/nios2eds/bin/gnu/H-i686-pc-linux-gnu/bin/../lib/gcc/nios2-elf/4.1.2/../../../../nios2-elf/lib/libstdc++.a(eh_personality.o) (__cxa_get_globals_fast)
/home/lordrafa/altera/12.1sp1/nios2eds/bin/gnu/H-i686-pc-linux-gnu/bin/../lib/gcc/nios2-elf/4.1.2/../../../../nios2-elf/lib/libstdc++.a(class_type_info.o)
                              /home/lordrafa/altera/12.1sp1/nios2eds/bin/gnu/H-i686-pc-linux-gnu/bin/../lib/gcc/nios2-elf/4.1.2/../../../../nios2-elf/lib/libstdc++.a(eh_exception.o) (_ZTVN10__cxxabiv117__class_type_infoE)
/home/lordrafa/altera/12.1sp1/nios2eds/bin/gnu/H-i686-pc-linux-gnu/bin/../lib/gcc/nios2-elf/4.1.2/../../../../nios2-elf/lib/libstdc++.a(eh_unex_handler.o)
                              /home/lordrafa/altera/12.1sp1/nios2eds/bin/gnu/H-i686-pc-linux-gnu/bin/../lib/gcc/nios2-elf/4.1.2/../../../../nios2-elf/lib/libstdc++.a(eh_terminate.o) (_ZN10__cxxabiv120__unexpected_handlerE)
/home/lordrafa/altera/12.1sp1/nios2eds/bin/gnu/H-i686-pc-linux-gnu/bin/../lib/gcc/nios2-elf/4.1.2/../../../../nios2-elf/lib/libstdc++.a(si_class_type_info.o)
                              /home/lordrafa/altera/12.1sp1/nios2eds/bin/gnu/H-i686-pc-linux-gnu/bin/../lib/gcc/nios2-elf/4.1.2/../../../../nios2-elf/lib/libstdc++.a(eh_exception.o) (_ZTVN10__cxxabiv120__si_class_type_infoE)
/home/lordrafa/altera/12.1sp1/nios2eds/bin/gnu/H-i686-pc-linux-gnu/bin/../lib/gcc/nios2-elf/4.1.2/../../../../nios2-elf/lib/libstdc++.a(tinfo.o)
                              /home/lordrafa/altera/12.1sp1/nios2eds/bin/gnu/H-i686-pc-linux-gnu/bin/../lib/gcc/nios2-elf/4.1.2/../../../../nios2-elf/lib/libstdc++.a(class_type_info.o) (_ZNKSt9type_info14__is_pointer_pEv)
/home/lordrafa/altera/12.1sp1/nios2eds/bin/gnu/H-i686-pc-linux-gnu/bin/../lib/gcc/nios2-elf/4.1.2/libgcc.a(lib2-divmod.o)
                              obj/default/graphics_lib/simple_text.o (__divsi3)
/home/lordrafa/altera/12.1sp1/nios2eds/bin/gnu/H-i686-pc-linux-gnu/bin/../lib/gcc/nios2-elf/4.1.2/libgcc.a(unwind-sjlj.o)
                              obj/default/framereader/vip_wrapper_for_c_func.o (_Unwind_SjLj_Register)
/home/lordrafa/altera/12.1sp1/nios2eds/bin/gnu/H-i686-pc-linux-gnu/bin/../lib/gcc/nios2-elf/4.1.2/../../../../nios2-elf/lib/libc.a(lib_a-abort.o)
                              /home/lordrafa/altera/12.1sp1/nios2eds/bin/gnu/H-i686-pc-linux-gnu/bin/../lib/gcc/nios2-elf/4.1.2/../../../../nios2-elf/lib/libstdc++.a(eh_personality.o) (abort)
/home/lordrafa/altera/12.1sp1/nios2eds/bin/gnu/H-i686-pc-linux-gnu/bin/../lib/gcc/nios2-elf/4.1.2/../../../../nios2-elf/lib/libc.a(lib_a-malloc.o)
                              obj/default/graphics_lib/simple_graphics.o (free)
/home/lordrafa/altera/12.1sp1/nios2eds/bin/gnu/H-i686-pc-linux-gnu/bin/../lib/gcc/nios2-elf/4.1.2/../../../../nios2-elf/lib/libc.a(lib_a-mallocr.o)
                              /home/lordrafa/altera/12.1sp1/nios2eds/bin/gnu/H-i686-pc-linux-gnu/bin/../lib/gcc/nios2-elf/4.1.2/../../../../nios2-elf/lib/libc.a(lib_a-malloc.o) (_malloc_r)
/home/lordrafa/altera/12.1sp1/nios2eds/bin/gnu/H-i686-pc-linux-gnu/bin/../lib/gcc/nios2-elf/4.1.2/../../../../nios2-elf/lib/libc.a(lib_a-memcpy.o)
                              obj/default/graphics_lib/simple_graphics.o (memcpy)
/home/lordrafa/altera/12.1sp1/nios2eds/bin/gnu/H-i686-pc-linux-gnu/bin/../lib/gcc/nios2-elf/4.1.2/../../../../nios2-elf/lib/libc.a(lib_a-memset.o)
                              obj/default/alt_video_display/alt_video_display.o (memset)
/home/lordrafa/altera/12.1sp1/nios2eds/bin/gnu/H-i686-pc-linux-gnu/bin/../lib/gcc/nios2-elf/4.1.2/../../../../nios2-elf/lib/libc.a(lib_a-printf.o)
                              obj/default/alt_tpo_lcd/alt_tpo_lcd.o (printf)
/home/lordrafa/altera/12.1sp1/nios2eds/bin/gnu/H-i686-pc-linux-gnu/bin/../lib/gcc/nios2-elf/4.1.2/../../../../nios2-elf/lib/libc.a(lib_a-puts.o)
                              obj/default/alt_tpo_lcd/alt_tpo_lcd.o (puts)
/home/lordrafa/altera/12.1sp1/nios2eds/bin/gnu/H-i686-pc-linux-gnu/bin/../lib/gcc/nios2-elf/4.1.2/../../../../nios2-elf/lib/libc.a(lib_a-sbrkr.o)
                              /home/lordrafa/altera/12.1sp1/nios2eds/bin/gnu/H-i686-pc-linux-gnu/bin/../lib/gcc/nios2-elf/4.1.2/../../../../nios2-elf/lib/libc.a(lib_a-mallocr.o) (_sbrk_r)
/home/lordrafa/altera/12.1sp1/nios2eds/bin/gnu/H-i686-pc-linux-gnu/bin/../lib/gcc/nios2-elf/4.1.2/../../../../nios2-elf/lib/libc.a(lib_a-signal.o)
                              /home/lordrafa/altera/12.1sp1/nios2eds/bin/gnu/H-i686-pc-linux-gnu/bin/../lib/gcc/nios2-elf/4.1.2/../../../../nios2-elf/lib/libc.a(lib_a-abort.o) (raise)
/home/lordrafa/altera/12.1sp1/nios2eds/bin/gnu/H-i686-pc-linux-gnu/bin/../lib/gcc/nios2-elf/4.1.2/../../../../nios2-elf/lib/libc.a(lib_a-signalr.o)
                              /home/lordrafa/altera/12.1sp1/nios2eds/bin/gnu/H-i686-pc-linux-gnu/bin/../lib/gcc/nios2-elf/4.1.2/../../../../nios2-elf/lib/libc.a(lib_a-signal.o) (_getpid_r)
/home/lordrafa/altera/12.1sp1/nios2eds/bin/gnu/H-i686-pc-linux-gnu/bin/../lib/gcc/nios2-elf/4.1.2/../../../../nios2-elf/lib/libc.a(lib_a-snprintf.o)
                              obj/default/main.o (snprintf)
/home/lordrafa/altera/12.1sp1/nios2eds/bin/gnu/H-i686-pc-linux-gnu/bin/../lib/gcc/nios2-elf/4.1.2/../../../../nios2-elf/lib/libc.a(lib_a-strcpy.o)
                              obj/default/graphics_lib/simple_graphics.o (strcpy)
/home/lordrafa/altera/12.1sp1/nios2eds/bin/gnu/H-i686-pc-linux-gnu/bin/../lib/gcc/nios2-elf/4.1.2/../../../../nios2-elf/lib/libc.a(lib_a-strlen.o)
                              obj/default/graphics_lib/simple_graphics.o (strlen)
/home/lordrafa/altera/12.1sp1/nios2eds/bin/gnu/H-i686-pc-linux-gnu/bin/../lib/gcc/nios2-elf/4.1.2/../../../../nios2-elf/lib/libc.a(lib_a-vfprintf.o)
                              /home/lordrafa/altera/12.1sp1/nios2eds/bin/gnu/H-i686-pc-linux-gnu/bin/../lib/gcc/nios2-elf/4.1.2/../../../../nios2-elf/lib/libc.a(lib_a-printf.o) (___vfprintf_internal_r)
/home/lordrafa/altera/12.1sp1/nios2eds/bin/gnu/H-i686-pc-linux-gnu/bin/../lib/gcc/nios2-elf/4.1.2/../../../../nios2-elf/lib/libc.a(lib_a-wsetup.o)
                              /home/lordrafa/altera/12.1sp1/nios2eds/bin/gnu/H-i686-pc-linux-gnu/bin/../lib/gcc/nios2-elf/4.1.2/../../../../nios2-elf/lib/libc.a(lib_a-vfprintf.o) (__swsetup_r)
/home/lordrafa/altera/12.1sp1/nios2eds/bin/gnu/H-i686-pc-linux-gnu/bin/../lib/gcc/nios2-elf/4.1.2/../../../../nios2-elf/lib/libc.a(lib_a-dtoa.o)
                              /home/lordrafa/altera/12.1sp1/nios2eds/bin/gnu/H-i686-pc-linux-gnu/bin/../lib/gcc/nios2-elf/4.1.2/../../../../nios2-elf/lib/libc.a(lib_a-vfprintf.o) (_dtoa_r)
/home/lordrafa/altera/12.1sp1/nios2eds/bin/gnu/H-i686-pc-linux-gnu/bin/../lib/gcc/nios2-elf/4.1.2/../../../../nios2-elf/lib/libc.a(lib_a-fflush.o)
                              /home/lordrafa/altera/12.1sp1/nios2eds/bin/gnu/H-i686-pc-linux-gnu/bin/../lib/gcc/nios2-elf/4.1.2/../../../../nios2-elf/lib/libc.a(lib_a-vfprintf.o) (_fflush_r)
/home/lordrafa/altera/12.1sp1/nios2eds/bin/gnu/H-i686-pc-linux-gnu/bin/../lib/gcc/nios2-elf/4.1.2/../../../../nios2-elf/lib/libc.a(lib_a-findfp.o)
                              /home/lordrafa/altera/12.1sp1/nios2eds/bin/gnu/H-i686-pc-linux-gnu/bin/../lib/gcc/nios2-elf/4.1.2/../../../../nios2-elf/lib/libc.a(lib_a-vfprintf.o) (__sinit)
/home/lordrafa/altera/12.1sp1/nios2eds/bin/gnu/H-i686-pc-linux-gnu/bin/../lib/gcc/nios2-elf/4.1.2/../../../../nios2-elf/lib/libc.a(lib_a-freer.o)
                              /home/lordrafa/altera/12.1sp1/nios2eds/bin/gnu/H-i686-pc-linux-gnu/bin/../lib/gcc/nios2-elf/4.1.2/../../../../nios2-elf/lib/libc.a(lib_a-malloc.o) (_free_r)
/home/lordrafa/altera/12.1sp1/nios2eds/bin/gnu/H-i686-pc-linux-gnu/bin/../lib/gcc/nios2-elf/4.1.2/../../../../nios2-elf/lib/libc.a(lib_a-fvwrite.o)
                              /home/lordrafa/altera/12.1sp1/nios2eds/bin/gnu/H-i686-pc-linux-gnu/bin/../lib/gcc/nios2-elf/4.1.2/../../../../nios2-elf/lib/libc.a(lib_a-puts.o) (__sfvwrite_r)
/home/lordrafa/altera/12.1sp1/nios2eds/bin/gnu/H-i686-pc-linux-gnu/bin/../lib/gcc/nios2-elf/4.1.2/../../../../nios2-elf/lib/libc.a(lib_a-fwalk.o)
                              /home/lordrafa/altera/12.1sp1/nios2eds/bin/gnu/H-i686-pc-linux-gnu/bin/../lib/gcc/nios2-elf/4.1.2/../../../../nios2-elf/lib/libc.a(lib_a-fflush.o) (_fwalk_reent)
/home/lordrafa/altera/12.1sp1/nios2eds/bin/gnu/H-i686-pc-linux-gnu/bin/../lib/gcc/nios2-elf/4.1.2/../../../../nios2-elf/lib/libc.a(lib_a-impure.o)
                              /home/lordrafa/altera/12.1sp1/nios2eds/bin/gnu/H-i686-pc-linux-gnu/bin/../lib/gcc/nios2-elf/4.1.2/../../../../nios2-elf/lib/libc.a(lib_a-malloc.o) (_impure_ptr)
/home/lordrafa/altera/12.1sp1/nios2eds/bin/gnu/H-i686-pc-linux-gnu/bin/../lib/gcc/nios2-elf/4.1.2/../../../../nios2-elf/lib/libc.a(lib_a-int_errno.o)
                              /home/lordrafa/altera/12.1sp1/nios2eds/bin/gnu/H-i686-pc-linux-gnu/bin/../lib/gcc/nios2-elf/4.1.2/../../../../nios2-elf/lib/libc.a(lib_a-sbrkr.o) (errno)
/home/lordrafa/altera/12.1sp1/nios2eds/bin/gnu/H-i686-pc-linux-gnu/bin/../lib/gcc/nios2-elf/4.1.2/../../../../nios2-elf/lib/libc.a(lib_a-locale.o)
                              /home/lordrafa/altera/12.1sp1/nios2eds/bin/gnu/H-i686-pc-linux-gnu/bin/../lib/gcc/nios2-elf/4.1.2/../../../../nios2-elf/lib/libc.a(lib_a-vfprintf.o) (_localeconv_r)
/home/lordrafa/altera/12.1sp1/nios2eds/bin/gnu/H-i686-pc-linux-gnu/bin/../lib/gcc/nios2-elf/4.1.2/../../../../nios2-elf/lib/libc.a(lib_a-makebuf.o)
                              /home/lordrafa/altera/12.1sp1/nios2eds/bin/gnu/H-i686-pc-linux-gnu/bin/../lib/gcc/nios2-elf/4.1.2/../../../../nios2-elf/lib/libc.a(lib_a-wsetup.o) (__smakebuf_r)
/home/lordrafa/altera/12.1sp1/nios2eds/bin/gnu/H-i686-pc-linux-gnu/bin/../lib/gcc/nios2-elf/4.1.2/../../../../nios2-elf/lib/libc.a(lib_a-memchr.o)
                              /home/lordrafa/altera/12.1sp1/nios2eds/bin/gnu/H-i686-pc-linux-gnu/bin/../lib/gcc/nios2-elf/4.1.2/../../../../nios2-elf/lib/libc.a(lib_a-vfprintf.o) (memchr)
/home/lordrafa/altera/12.1sp1/nios2eds/bin/gnu/H-i686-pc-linux-gnu/bin/../lib/gcc/nios2-elf/4.1.2/../../../../nios2-elf/lib/libc.a(lib_a-memmove.o)
                              /home/lordrafa/altera/12.1sp1/nios2eds/bin/gnu/H-i686-pc-linux-gnu/bin/../lib/gcc/nios2-elf/4.1.2/../../../../nios2-elf/lib/libc.a(lib_a-fvwrite.o) (memmove)
/home/lordrafa/altera/12.1sp1/nios2eds/bin/gnu/H-i686-pc-linux-gnu/bin/../lib/gcc/nios2-elf/4.1.2/../../../../nios2-elf/lib/libc.a(lib_a-mprec.o)
                              /home/lordrafa/altera/12.1sp1/nios2eds/bin/gnu/H-i686-pc-linux-gnu/bin/../lib/gcc/nios2-elf/4.1.2/../../../../nios2-elf/lib/libc.a(lib_a-dtoa.o) (_Bfree)
/home/lordrafa/altera/12.1sp1/nios2eds/bin/gnu/H-i686-pc-linux-gnu/bin/../lib/gcc/nios2-elf/4.1.2/../../../../nios2-elf/lib/libc.a(lib_a-reallocr.o)
                              /home/lordrafa/altera/12.1sp1/nios2eds/bin/gnu/H-i686-pc-linux-gnu/bin/../lib/gcc/nios2-elf/4.1.2/../../../../nios2-elf/lib/libc.a(lib_a-fvwrite.o) (_realloc_r)
/home/lordrafa/altera/12.1sp1/nios2eds/bin/gnu/H-i686-pc-linux-gnu/bin/../lib/gcc/nios2-elf/4.1.2/../../../../nios2-elf/lib/libc.a(lib_a-s_isinfd.o)
                              /home/lordrafa/altera/12.1sp1/nios2eds/bin/gnu/H-i686-pc-linux-gnu/bin/../lib/gcc/nios2-elf/4.1.2/../../../../nios2-elf/lib/libc.a(lib_a-vfprintf.o) (__isinfd)
/home/lordrafa/altera/12.1sp1/nios2eds/bin/gnu/H-i686-pc-linux-gnu/bin/../lib/gcc/nios2-elf/4.1.2/../../../../nios2-elf/lib/libc.a(lib_a-s_isnand.o)
                              /home/lordrafa/altera/12.1sp1/nios2eds/bin/gnu/H-i686-pc-linux-gnu/bin/../lib/gcc/nios2-elf/4.1.2/../../../../nios2-elf/lib/libc.a(lib_a-vfprintf.o) (__isnand)
/home/lordrafa/altera/12.1sp1/nios2eds/bin/gnu/H-i686-pc-linux-gnu/bin/../lib/gcc/nios2-elf/4.1.2/../../../../nios2-elf/lib/libc.a(lib_a-stdio.o)
                              /home/lordrafa/altera/12.1sp1/nios2eds/bin/gnu/H-i686-pc-linux-gnu/bin/../lib/gcc/nios2-elf/4.1.2/../../../../nios2-elf/lib/libc.a(lib_a-findfp.o) (__sclose)
/home/lordrafa/altera/12.1sp1/nios2eds/bin/gnu/H-i686-pc-linux-gnu/bin/../lib/gcc/nios2-elf/4.1.2/../../../../nios2-elf/lib/libc.a(lib_a-strcmp.o)
                              /home/lordrafa/altera/12.1sp1/nios2eds/bin/gnu/H-i686-pc-linux-gnu/bin/../lib/gcc/nios2-elf/4.1.2/../../../../nios2-elf/lib/libc.a(lib_a-locale.o) (strcmp)
/home/lordrafa/altera/12.1sp1/nios2eds/bin/gnu/H-i686-pc-linux-gnu/bin/../lib/gcc/nios2-elf/4.1.2/../../../../nios2-elf/lib/libc.a(lib_a-writer.o)
                              /home/lordrafa/altera/12.1sp1/nios2eds/bin/gnu/H-i686-pc-linux-gnu/bin/../lib/gcc/nios2-elf/4.1.2/../../../../nios2-elf/lib/libc.a(lib_a-stdio.o) (_write_r)
/home/lordrafa/altera/12.1sp1/nios2eds/bin/gnu/H-i686-pc-linux-gnu/bin/../lib/gcc/nios2-elf/4.1.2/../../../../nios2-elf/lib/libc.a(lib_a-callocr.o)
                              /home/lordrafa/altera/12.1sp1/nios2eds/bin/gnu/H-i686-pc-linux-gnu/bin/../lib/gcc/nios2-elf/4.1.2/../../../../nios2-elf/lib/libc.a(lib_a-mprec.o) (_calloc_r)
/home/lordrafa/altera/12.1sp1/nios2eds/bin/gnu/H-i686-pc-linux-gnu/bin/../lib/gcc/nios2-elf/4.1.2/../../../../nios2-elf/lib/libc.a(lib_a-closer.o)
                              /home/lordrafa/altera/12.1sp1/nios2eds/bin/gnu/H-i686-pc-linux-gnu/bin/../lib/gcc/nios2-elf/4.1.2/../../../../nios2-elf/lib/libc.a(lib_a-stdio.o) (_close_r)
/home/lordrafa/altera/12.1sp1/nios2eds/bin/gnu/H-i686-pc-linux-gnu/bin/../lib/gcc/nios2-elf/4.1.2/../../../../nios2-elf/lib/libc.a(lib_a-fclose.o)
                              /home/lordrafa/altera/12.1sp1/nios2eds/bin/gnu/H-i686-pc-linux-gnu/bin/../lib/gcc/nios2-elf/4.1.2/../../../../nios2-elf/lib/libc.a(lib_a-findfp.o) (fclose)
/home/lordrafa/altera/12.1sp1/nios2eds/bin/gnu/H-i686-pc-linux-gnu/bin/../lib/gcc/nios2-elf/4.1.2/../../../../nios2-elf/lib/libc.a(lib_a-fstatr.o)
                              /home/lordrafa/altera/12.1sp1/nios2eds/bin/gnu/H-i686-pc-linux-gnu/bin/../lib/gcc/nios2-elf/4.1.2/../../../../nios2-elf/lib/libc.a(lib_a-makebuf.o) (_fstat_r)
/home/lordrafa/altera/12.1sp1/nios2eds/bin/gnu/H-i686-pc-linux-gnu/bin/../lib/gcc/nios2-elf/4.1.2/../../../../nios2-elf/lib/libc.a(lib_a-isattyr.o)
                              /home/lordrafa/altera/12.1sp1/nios2eds/bin/gnu/H-i686-pc-linux-gnu/bin/../lib/gcc/nios2-elf/4.1.2/../../../../nios2-elf/lib/libc.a(lib_a-makebuf.o) (_isatty_r)
/home/lordrafa/altera/12.1sp1/nios2eds/bin/gnu/H-i686-pc-linux-gnu/bin/../lib/gcc/nios2-elf/4.1.2/../../../../nios2-elf/lib/libc.a(lib_a-lseekr.o)
                              /home/lordrafa/altera/12.1sp1/nios2eds/bin/gnu/H-i686-pc-linux-gnu/bin/../lib/gcc/nios2-elf/4.1.2/../../../../nios2-elf/lib/libc.a(lib_a-stdio.o) (_lseek_r)
/home/lordrafa/altera/12.1sp1/nios2eds/bin/gnu/H-i686-pc-linux-gnu/bin/../lib/gcc/nios2-elf/4.1.2/../../../../nios2-elf/lib/libc.a(lib_a-readr.o)
                              /home/lordrafa/altera/12.1sp1/nios2eds/bin/gnu/H-i686-pc-linux-gnu/bin/../lib/gcc/nios2-elf/4.1.2/../../../../nios2-elf/lib/libc.a(lib_a-stdio.o) (_read_r)
/home/lordrafa/altera/12.1sp1/nios2eds/bin/gnu/H-i686-pc-linux-gnu/bin/../lib/gcc/nios2-elf/4.1.2/libgcc.a(_udivdi3.o)
                              /home/lordrafa/altera/12.1sp1/nios2eds/bin/gnu/H-i686-pc-linux-gnu/bin/../lib/gcc/nios2-elf/4.1.2/../../../../nios2-elf/lib/libc.a(lib_a-vfprintf.o) (__udivdi3)
/home/lordrafa/altera/12.1sp1/nios2eds/bin/gnu/H-i686-pc-linux-gnu/bin/../lib/gcc/nios2-elf/4.1.2/libgcc.a(_umoddi3.o)
                              /home/lordrafa/altera/12.1sp1/nios2eds/bin/gnu/H-i686-pc-linux-gnu/bin/../lib/gcc/nios2-elf/4.1.2/../../../../nios2-elf/lib/libc.a(lib_a-vfprintf.o) (__umoddi3)
/home/lordrafa/altera/12.1sp1/nios2eds/bin/gnu/H-i686-pc-linux-gnu/bin/../lib/gcc/nios2-elf/4.1.2/libgcc.a(_addsub_df.o)
                              /home/lordrafa/altera/12.1sp1/nios2eds/bin/gnu/H-i686-pc-linux-gnu/bin/../lib/gcc/nios2-elf/4.1.2/../../../../nios2-elf/lib/libc.a(lib_a-dtoa.o) (__subdf3)
/home/lordrafa/altera/12.1sp1/nios2eds/bin/gnu/H-i686-pc-linux-gnu/bin/../lib/gcc/nios2-elf/4.1.2/libgcc.a(_mul_df.o)
                              /home/lordrafa/altera/12.1sp1/nios2eds/bin/gnu/H-i686-pc-linux-gnu/bin/../lib/gcc/nios2-elf/4.1.2/../../../../nios2-elf/lib/libc.a(lib_a-dtoa.o) (__muldf3)
/home/lordrafa/altera/12.1sp1/nios2eds/bin/gnu/H-i686-pc-linux-gnu/bin/../lib/gcc/nios2-elf/4.1.2/libgcc.a(_div_df.o)
                              /home/lordrafa/altera/12.1sp1/nios2eds/bin/gnu/H-i686-pc-linux-gnu/bin/../lib/gcc/nios2-elf/4.1.2/../../../../nios2-elf/lib/libc.a(lib_a-dtoa.o) (__divdf3)
/home/lordrafa/altera/12.1sp1/nios2eds/bin/gnu/H-i686-pc-linux-gnu/bin/../lib/gcc/nios2-elf/4.1.2/libgcc.a(_eq_df.o)
                              /home/lordrafa/altera/12.1sp1/nios2eds/bin/gnu/H-i686-pc-linux-gnu/bin/../lib/gcc/nios2-elf/4.1.2/../../../../nios2-elf/lib/libc.a(lib_a-vfprintf.o) (__eqdf2)
/home/lordrafa/altera/12.1sp1/nios2eds/bin/gnu/H-i686-pc-linux-gnu/bin/../lib/gcc/nios2-elf/4.1.2/libgcc.a(_ne_df.o)
                              /home/lordrafa/altera/12.1sp1/nios2eds/bin/gnu/H-i686-pc-linux-gnu/bin/../lib/gcc/nios2-elf/4.1.2/../../../../nios2-elf/lib/libc.a(lib_a-vfprintf.o) (__nedf2)
/home/lordrafa/altera/12.1sp1/nios2eds/bin/gnu/H-i686-pc-linux-gnu/bin/../lib/gcc/nios2-elf/4.1.2/libgcc.a(_gt_df.o)
                              /home/lordrafa/altera/12.1sp1/nios2eds/bin/gnu/H-i686-pc-linux-gnu/bin/../lib/gcc/nios2-elf/4.1.2/../../../../nios2-elf/lib/libc.a(lib_a-dtoa.o) (__gtdf2)
/home/lordrafa/altera/12.1sp1/nios2eds/bin/gnu/H-i686-pc-linux-gnu/bin/../lib/gcc/nios2-elf/4.1.2/libgcc.a(_ge_df.o)
                              /home/lordrafa/altera/12.1sp1/nios2eds/bin/gnu/H-i686-pc-linux-gnu/bin/../lib/gcc/nios2-elf/4.1.2/../../../../nios2-elf/lib/libc.a(lib_a-dtoa.o) (__gedf2)
/home/lordrafa/altera/12.1sp1/nios2eds/bin/gnu/H-i686-pc-linux-gnu/bin/../lib/gcc/nios2-elf/4.1.2/libgcc.a(_lt_df.o)
                              /home/lordrafa/altera/12.1sp1/nios2eds/bin/gnu/H-i686-pc-linux-gnu/bin/../lib/gcc/nios2-elf/4.1.2/../../../../nios2-elf/lib/libc.a(lib_a-vfprintf.o) (__ltdf2)
/home/lordrafa/altera/12.1sp1/nios2eds/bin/gnu/H-i686-pc-linux-gnu/bin/../lib/gcc/nios2-elf/4.1.2/libgcc.a(_si_to_df.o)
                              /home/lordrafa/altera/12.1sp1/nios2eds/bin/gnu/H-i686-pc-linux-gnu/bin/../lib/gcc/nios2-elf/4.1.2/../../../../nios2-elf/lib/libc.a(lib_a-dtoa.o) (__floatsidf)
/home/lordrafa/altera/12.1sp1/nios2eds/bin/gnu/H-i686-pc-linux-gnu/bin/../lib/gcc/nios2-elf/4.1.2/libgcc.a(_df_to_si.o)
                              /home/lordrafa/altera/12.1sp1/nios2eds/bin/gnu/H-i686-pc-linux-gnu/bin/../lib/gcc/nios2-elf/4.1.2/../../../../nios2-elf/lib/libc.a(lib_a-dtoa.o) (__fixdfsi)
/home/lordrafa/altera/12.1sp1/nios2eds/bin/gnu/H-i686-pc-linux-gnu/bin/../lib/gcc/nios2-elf/4.1.2/libgcc.a(_thenan_df.o)
                              /home/lordrafa/altera/12.1sp1/nios2eds/bin/gnu/H-i686-pc-linux-gnu/bin/../lib/gcc/nios2-elf/4.1.2/libgcc.a(_addsub_df.o) (__thenan_df)
/home/lordrafa/altera/12.1sp1/nios2eds/bin/gnu/H-i686-pc-linux-gnu/bin/../lib/gcc/nios2-elf/4.1.2/libgcc.a(_usi_to_df.o)
                              /home/lordrafa/altera/12.1sp1/nios2eds/bin/gnu/H-i686-pc-linux-gnu/bin/../lib/gcc/nios2-elf/4.1.2/../../../../nios2-elf/lib/libc.a(lib_a-dtoa.o) (__floatunsidf)
/home/lordrafa/altera/12.1sp1/nios2eds/bin/gnu/H-i686-pc-linux-gnu/bin/../lib/gcc/nios2-elf/4.1.2/libgcc.a(_muldi3.o)
                              /home/lordrafa/altera/12.1sp1/nios2eds/bin/gnu/H-i686-pc-linux-gnu/bin/../lib/gcc/nios2-elf/4.1.2/libgcc.a(_mul_df.o) (__muldi3)
/home/lordrafa/altera/12.1sp1/nios2eds/bin/gnu/H-i686-pc-linux-gnu/bin/../lib/gcc/nios2-elf/4.1.2/libgcc.a(_clz.o)
                              /home/lordrafa/altera/12.1sp1/nios2eds/bin/gnu/H-i686-pc-linux-gnu/bin/../lib/gcc/nios2-elf/4.1.2/libgcc.a(_udivdi3.o) (__clz_tab)
/home/lordrafa/altera/12.1sp1/nios2eds/bin/gnu/H-i686-pc-linux-gnu/bin/../lib/gcc/nios2-elf/4.1.2/libgcc.a(_clzsi2.o)
                              /home/lordrafa/altera/12.1sp1/nios2eds/bin/gnu/H-i686-pc-linux-gnu/bin/../lib/gcc/nios2-elf/4.1.2/libgcc.a(_si_to_df.o) (__clzsi2)
/home/lordrafa/altera/12.1sp1/nios2eds/bin/gnu/H-i686-pc-linux-gnu/bin/../lib/gcc/nios2-elf/4.1.2/libgcc.a(_pack_df.o)
                              /home/lordrafa/altera/12.1sp1/nios2eds/bin/gnu/H-i686-pc-linux-gnu/bin/../lib/gcc/nios2-elf/4.1.2/libgcc.a(_addsub_df.o) (__pack_d)
/home/lordrafa/altera/12.1sp1/nios2eds/bin/gnu/H-i686-pc-linux-gnu/bin/../lib/gcc/nios2-elf/4.1.2/libgcc.a(_unpack_df.o)
                              /home/lordrafa/altera/12.1sp1/nios2eds/bin/gnu/H-i686-pc-linux-gnu/bin/../lib/gcc/nios2-elf/4.1.2/libgcc.a(_addsub_df.o) (__unpack_d)
/home/lordrafa/altera/12.1sp1/nios2eds/bin/gnu/H-i686-pc-linux-gnu/bin/../lib/gcc/nios2-elf/4.1.2/libgcc.a(_fpcmp_parts_df.o)
                              /home/lordrafa/altera/12.1sp1/nios2eds/bin/gnu/H-i686-pc-linux-gnu/bin/../lib/gcc/nios2-elf/4.1.2/libgcc.a(_eq_df.o) (__fpcmp_parts_d)
../RawaPro_Linux_Cache_bsp//libhal_bsp.a(alt_close.o)
                              /home/lordrafa/altera/12.1sp1/nios2eds/bin/gnu/H-i686-pc-linux-gnu/bin/../lib/gcc/nios2-elf/4.1.2/../../../../nios2-elf/lib/libc.a(lib_a-closer.o) (close)
../RawaPro_Linux_Cache_bsp//libhal_bsp.a(alt_dev.o)
                              ../RawaPro_Linux_Cache_bsp//libhal_bsp.a(alt_close.o) (alt_fd_list)
../RawaPro_Linux_Cache_bsp//libhal_bsp.a(alt_errno.o)
                              ../RawaPro_Linux_Cache_bsp//libhal_bsp.a(alt_close.o) (alt_errno)
../RawaPro_Linux_Cache_bsp//libhal_bsp.a(alt_exit.o)
                              /home/lordrafa/altera/12.1sp1/nios2eds/bin/gnu/H-i686-pc-linux-gnu/bin/../lib/gcc/nios2-elf/4.1.2/../../../../nios2-elf/lib/libc.a(lib_a-abort.o) (_exit)
../RawaPro_Linux_Cache_bsp//libhal_bsp.a(alt_fstat.o)
                              /home/lordrafa/altera/12.1sp1/nios2eds/bin/gnu/H-i686-pc-linux-gnu/bin/../lib/gcc/nios2-elf/4.1.2/../../../../nios2-elf/lib/libc.a(lib_a-fstatr.o) (fstat)
../RawaPro_Linux_Cache_bsp//libhal_bsp.a(alt_getpid.o)
                              /home/lordrafa/altera/12.1sp1/nios2eds/bin/gnu/H-i686-pc-linux-gnu/bin/../lib/gcc/nios2-elf/4.1.2/../../../../nios2-elf/lib/libc.a(lib_a-signalr.o) (getpid)
../RawaPro_Linux_Cache_bsp//libhal_bsp.a(alt_iic.o)
                              obj/default/keyhandler/keyhandler.o (alt_ic_isr_register)
../RawaPro_Linux_Cache_bsp//libhal_bsp.a(alt_iic_isr_register.o)
                              ../RawaPro_Linux_Cache_bsp//libhal_bsp.a(alt_iic.o) (alt_iic_isr_register)
../RawaPro_Linux_Cache_bsp//libhal_bsp.a(alt_irq_entry.o)
                              ../RawaPro_Linux_Cache_bsp//libhal_bsp.a(alt_iic_isr_register.o) (alt_irq_entry)
../RawaPro_Linux_Cache_bsp//libhal_bsp.a(alt_irq_handler.o)
                              ../RawaPro_Linux_Cache_bsp//libhal_bsp.a(alt_iic_isr_register.o) (alt_irq_handler)
../RawaPro_Linux_Cache_bsp//libhal_bsp.a(alt_irq_vars.o)
                              ../RawaPro_Linux_Cache_bsp//libhal_bsp.a(alt_iic.o) (alt_irq_active)
../RawaPro_Linux_Cache_bsp//libhal_bsp.a(alt_isatty.o)
                              /home/lordrafa/altera/12.1sp1/nios2eds/bin/gnu/H-i686-pc-linux-gnu/bin/../lib/gcc/nios2-elf/4.1.2/../../../../nios2-elf/lib/libc.a(lib_a-isattyr.o) (isatty)
../RawaPro_Linux_Cache_bsp//libhal_bsp.a(alt_kill.o)
                              /home/lordrafa/altera/12.1sp1/nios2eds/bin/gnu/H-i686-pc-linux-gnu/bin/../lib/gcc/nios2-elf/4.1.2/../../../../nios2-elf/lib/libc.a(lib_a-signalr.o) (kill)
../RawaPro_Linux_Cache_bsp//libhal_bsp.a(alt_load.o)
                              ../RawaPro_Linux_Cache_bsp//obj/HAL/src/crt0.o (alt_load)
../RawaPro_Linux_Cache_bsp//libhal_bsp.a(alt_lseek.o)
                              /home/lordrafa/altera/12.1sp1/nios2eds/bin/gnu/H-i686-pc-linux-gnu/bin/../lib/gcc/nios2-elf/4.1.2/../../../../nios2-elf/lib/libc.a(lib_a-lseekr.o) (lseek)
../RawaPro_Linux_Cache_bsp//libhal_bsp.a(alt_main.o)
                              ../RawaPro_Linux_Cache_bsp//obj/HAL/src/crt0.o (alt_main)
../RawaPro_Linux_Cache_bsp//libhal_bsp.a(alt_malloc_lock.o)
                              /home/lordrafa/altera/12.1sp1/nios2eds/bin/gnu/H-i686-pc-linux-gnu/bin/../lib/gcc/nios2-elf/4.1.2/../../../../nios2-elf/lib/libc.a(lib_a-mallocr.o) (__malloc_lock)
../RawaPro_Linux_Cache_bsp//libhal_bsp.a(alt_read.o)
                              /home/lordrafa/altera/12.1sp1/nios2eds/bin/gnu/H-i686-pc-linux-gnu/bin/../lib/gcc/nios2-elf/4.1.2/../../../../nios2-elf/lib/libc.a(lib_a-readr.o) (read)
../RawaPro_Linux_Cache_bsp//libhal_bsp.a(alt_release_fd.o)
                              ../RawaPro_Linux_Cache_bsp//libhal_bsp.a(alt_close.o) (alt_release_fd)
../RawaPro_Linux_Cache_bsp//libhal_bsp.a(alt_remap_uncached.o)
                              obj/default/alt_video_display/alt_video_display.o (alt_remap_uncached)
../RawaPro_Linux_Cache_bsp//libhal_bsp.a(alt_sbrk.o)
                              /home/lordrafa/altera/12.1sp1/nios2eds/bin/gnu/H-i686-pc-linux-gnu/bin/../lib/gcc/nios2-elf/4.1.2/../../../../nios2-elf/lib/libc.a(lib_a-sbrkr.o) (sbrk)
../RawaPro_Linux_Cache_bsp//libhal_bsp.a(alt_tick.o)
                              obj/default/graphics_lib/simple_graphics.o (_alt_tick_rate)
../RawaPro_Linux_Cache_bsp//libhal_bsp.a(alt_uncached_malloc.o)
                              obj/default/alt_video_display/alt_video_display.o (alt_uncached_malloc)
../RawaPro_Linux_Cache_bsp//libhal_bsp.a(alt_usleep.o)
                              obj/default/alt_tpo_lcd/alt_tpo_lcd.o (usleep)
../RawaPro_Linux_Cache_bsp//libhal_bsp.a(alt_write.o)
                              /home/lordrafa/altera/12.1sp1/nios2eds/bin/gnu/H-i686-pc-linux-gnu/bin/../lib/gcc/nios2-elf/4.1.2/../../../../nios2-elf/lib/libc.a(lib_a-writer.o) (write)
../RawaPro_Linux_Cache_bsp//libhal_bsp.a(alt_sys_init.o)
                              ../RawaPro_Linux_Cache_bsp//libhal_bsp.a(alt_main.o) (alt_irq_init)
../RawaPro_Linux_Cache_bsp//libhal_bsp.a(altera_avalon_jtag_uart_fd.o)
                              ../RawaPro_Linux_Cache_bsp//libhal_bsp.a(alt_sys_init.o) (altera_avalon_jtag_uart_read_fd)
../RawaPro_Linux_Cache_bsp//libhal_bsp.a(altera_avalon_jtag_uart_init.o)
                              ../RawaPro_Linux_Cache_bsp//libhal_bsp.a(alt_sys_init.o) (altera_avalon_jtag_uart_init)
../RawaPro_Linux_Cache_bsp//libhal_bsp.a(altera_avalon_jtag_uart_ioctl.o)
                              ../RawaPro_Linux_Cache_bsp//libhal_bsp.a(altera_avalon_jtag_uart_fd.o) (altera_avalon_jtag_uart_ioctl)
../RawaPro_Linux_Cache_bsp//libhal_bsp.a(altera_avalon_jtag_uart_read.o)
                              ../RawaPro_Linux_Cache_bsp//libhal_bsp.a(altera_avalon_jtag_uart_fd.o) (altera_avalon_jtag_uart_read)
../RawaPro_Linux_Cache_bsp//libhal_bsp.a(altera_avalon_jtag_uart_write.o)
                              ../RawaPro_Linux_Cache_bsp//libhal_bsp.a(altera_avalon_jtag_uart_fd.o) (altera_avalon_jtag_uart_write)
../RawaPro_Linux_Cache_bsp//libhal_bsp.a(altera_avalon_performance_counter.o)
                              obj/default/main.o (perf_get_total_time)
../RawaPro_Linux_Cache_bsp//libhal_bsp.a(altera_avalon_timer_sc.o)
                              ../RawaPro_Linux_Cache_bsp//libhal_bsp.a(alt_sys_init.o) (alt_avalon_timer_sc_init)
../RawaPro_Linux_Cache_bsp//libhal_bsp.a(alt_alarm_start.o)
                              ../RawaPro_Linux_Cache_bsp//libhal_bsp.a(altera_avalon_jtag_uart_init.o) (alt_alarm_start)
../RawaPro_Linux_Cache_bsp//libhal_bsp.a(alt_busy_sleep.o)
                              ../RawaPro_Linux_Cache_bsp//libhal_bsp.a(alt_usleep.o) (alt_busy_sleep)
../RawaPro_Linux_Cache_bsp//libhal_bsp.a(alt_dcache_flush.o)
                              ../RawaPro_Linux_Cache_bsp//libhal_bsp.a(alt_remap_uncached.o) (alt_dcache_flush)
../RawaPro_Linux_Cache_bsp//libhal_bsp.a(alt_dcache_flush_all.o)
                              ../RawaPro_Linux_Cache_bsp//libhal_bsp.a(alt_load.o) (alt_dcache_flush_all)
../RawaPro_Linux_Cache_bsp//libhal_bsp.a(alt_dev_llist_insert.o)
                              ../RawaPro_Linux_Cache_bsp//libhal_bsp.a(alt_sys_init.o) (alt_dev_llist_insert)
../RawaPro_Linux_Cache_bsp//libhal_bsp.a(alt_do_ctors.o)
                              ../RawaPro_Linux_Cache_bsp//libhal_bsp.a(alt_main.o) (_do_ctors)
../RawaPro_Linux_Cache_bsp//libhal_bsp.a(alt_do_dtors.o)
                              ../RawaPro_Linux_Cache_bsp//libhal_bsp.a(alt_main.o) (_do_dtors)
../RawaPro_Linux_Cache_bsp//libhal_bsp.a(alt_exception_entry.o)
                              ../RawaPro_Linux_Cache_bsp//libhal_bsp.a(alt_irq_entry.o) (alt_exception)
../RawaPro_Linux_Cache_bsp//libhal_bsp.a(alt_icache_flush_all.o)
                              ../RawaPro_Linux_Cache_bsp//libhal_bsp.a(alt_load.o) (alt_icache_flush_all)
../RawaPro_Linux_Cache_bsp//libhal_bsp.a(alt_io_redirect.o)
                              ../RawaPro_Linux_Cache_bsp//libhal_bsp.a(alt_main.o) (alt_io_redirect)
../RawaPro_Linux_Cache_bsp//libhal_bsp.a(alt_open.o)
                              ../RawaPro_Linux_Cache_bsp//libhal_bsp.a(alt_io_redirect.o) (open)
../RawaPro_Linux_Cache_bsp//libhal_bsp.a(altera_nios2_qsys_irq.o)
                              ../RawaPro_Linux_Cache_bsp//libhal_bsp.a(alt_sys_init.o) (altera_nios2_qsys_irq_init)
../RawaPro_Linux_Cache_bsp//libhal_bsp.a(alt_find_dev.o)
                              ../RawaPro_Linux_Cache_bsp//libhal_bsp.a(alt_open.o) (alt_find_dev)
../RawaPro_Linux_Cache_bsp//libhal_bsp.a(alt_find_file.o)
                              ../RawaPro_Linux_Cache_bsp//libhal_bsp.a(alt_open.o) (alt_find_file)
../RawaPro_Linux_Cache_bsp//libhal_bsp.a(alt_get_fd.o)
                              ../RawaPro_Linux_Cache_bsp//libhal_bsp.a(alt_open.o) (alt_get_fd)
../RawaPro_Linux_Cache_bsp//libhal_bsp.a(alt_icache_flush.o)
                              ../RawaPro_Linux_Cache_bsp//libhal_bsp.a(alt_icache_flush_all.o) (alt_icache_flush)
/home/lordrafa/altera/12.1sp1/nios2eds/bin/gnu/H-i686-pc-linux-gnu/bin/../lib/gcc/nios2-elf/4.1.2/../../../../nios2-elf/lib/libc.a(lib_a-atexit.o)
                              ../RawaPro_Linux_Cache_bsp//libhal_bsp.a(alt_main.o) (atexit)
/home/lordrafa/altera/12.1sp1/nios2eds/bin/gnu/H-i686-pc-linux-gnu/bin/../lib/gcc/nios2-elf/4.1.2/../../../../nios2-elf/lib/libc.a(lib_a-exit.o)
                              ../RawaPro_Linux_Cache_bsp//libhal_bsp.a(alt_main.o) (exit)
/home/lordrafa/altera/12.1sp1/nios2eds/bin/gnu/H-i686-pc-linux-gnu/bin/../lib/gcc/nios2-elf/4.1.2/../../../../nios2-elf/lib/libc.a(lib_a-memcmp.o)
                              ../RawaPro_Linux_Cache_bsp//libhal_bsp.a(alt_find_dev.o) (memcmp)
/home/lordrafa/altera/12.1sp1/nios2eds/bin/gnu/H-i686-pc-linux-gnu/bin/../lib/gcc/nios2-elf/4.1.2/../../../../nios2-elf/lib/libc.a(lib_a-__atexit.o)
                              /home/lordrafa/altera/12.1sp1/nios2eds/bin/gnu/H-i686-pc-linux-gnu/bin/../lib/gcc/nios2-elf/4.1.2/../../../../nios2-elf/lib/libc.a(lib_a-atexit.o) (__register_exitproc)
/home/lordrafa/altera/12.1sp1/nios2eds/bin/gnu/H-i686-pc-linux-gnu/bin/../lib/gcc/nios2-elf/4.1.2/../../../../nios2-elf/lib/libc.a(lib_a-__call_atexit.o)
                              /home/lordrafa/altera/12.1sp1/nios2eds/bin/gnu/H-i686-pc-linux-gnu/bin/../lib/gcc/nios2-elf/4.1.2/../../../../nios2-elf/lib/libc.a(lib_a-exit.o) (__call_exitprocs)

Allocating common symbols
Common symbol       size              file

alt_irq             0x100             ../RawaPro_Linux_Cache_bsp//libhal_bsp.a(alt_irq_handler.o)
errno               0x4               /home/lordrafa/altera/12.1sp1/nios2eds/bin/gnu/H-i686-pc-linux-gnu/bin/../lib/gcc/nios2-elf/4.1.2/../../../../nios2-elf/lib/libc.a(lib_a-int_errno.o)
_atexit0            0x190             /home/lordrafa/altera/12.1sp1/nios2eds/bin/gnu/H-i686-pc-linux-gnu/bin/../lib/gcc/nios2-elf/4.1.2/../../../../nios2-elf/lib/libc.a(lib_a-atexit.o)

Discarded input sections

 .group         0x00000000        0x8 obj/default/framereader/vip_wrapper_for_c_func.o
 .group         0x00000000        0x8 obj/default/framereader/vip_wrapper_for_c_func.o
 .group         0x00000000        0x8 obj/default/framereader/vip_wrapper_for_c_func.o
 .group         0x00000000        0x8 obj/default/framereader/vip_wrapper_for_c_func.o
 .group         0x00000000        0x8 obj/default/framereader/vip_wrapper_for_c_func.o
 .group         0x00000000        0x8 obj/default/framereader/vip_wrapper_for_c_func.o
 .group         0x00000000        0x8 obj/default/framereader/vip_wrapper_for_c_func.o
 .group         0x00000000        0x8 obj/default/framereader/vip_wrapper_for_c_func.o
 .group         0x00000000        0x8 obj/default/framereader/vip_wrapper_for_c_func.o
 .group         0x00000000        0x8 obj/default/framereader/vip_wrapper_for_c_func.o
 .group         0x00000000        0x8 obj/default/framereader/vip_wrapper_for_c_func.o
 .group         0x00000000        0x8 obj/default/framereader/vip_wrapper_for_c_func.o
 .group         0x00000000        0x8 obj/default/framereader/vip_wrapper_for_c_func.o
 .group         0x00000000        0x8 obj/default/framereader/vip_wrapper_for_c_func.o
 .group         0x00000000        0x8 obj/default/framereader/vip_wrapper_for_c_func.o
 .group         0x00000000        0x8 /home/lordrafa/altera/12.1sp1/nios2eds/bin/gnu/H-i686-pc-linux-gnu/bin/../lib/gcc/nios2-elf/4.1.2/../../../../nios2-elf/lib/libstdc++.a(eh_exception.o)
 .group         0x00000000        0x8 /home/lordrafa/altera/12.1sp1/nios2eds/bin/gnu/H-i686-pc-linux-gnu/bin/../lib/gcc/nios2-elf/4.1.2/../../../../nios2-elf/lib/libstdc++.a(eh_exception.o)
 .group         0x00000000        0x8 /home/lordrafa/altera/12.1sp1/nios2eds/bin/gnu/H-i686-pc-linux-gnu/bin/../lib/gcc/nios2-elf/4.1.2/../../../../nios2-elf/lib/libstdc++.a(eh_exception.o)
 .group         0x00000000        0x8 /home/lordrafa/altera/12.1sp1/nios2eds/bin/gnu/H-i686-pc-linux-gnu/bin/../lib/gcc/nios2-elf/4.1.2/../../../../nios2-elf/lib/libstdc++.a(eh_exception.o)
 .group         0x00000000        0x8 /home/lordrafa/altera/12.1sp1/nios2eds/bin/gnu/H-i686-pc-linux-gnu/bin/../lib/gcc/nios2-elf/4.1.2/../../../../nios2-elf/lib/libstdc++.a(eh_exception.o)
 .group         0x00000000        0x8 /home/lordrafa/altera/12.1sp1/nios2eds/bin/gnu/H-i686-pc-linux-gnu/bin/../lib/gcc/nios2-elf/4.1.2/../../../../nios2-elf/lib/libstdc++.a(eh_exception.o)
 .group         0x00000000        0x8 /home/lordrafa/altera/12.1sp1/nios2eds/bin/gnu/H-i686-pc-linux-gnu/bin/../lib/gcc/nios2-elf/4.1.2/../../../../nios2-elf/lib/libstdc++.a(new_handler.o)
 .group         0x00000000        0x8 /home/lordrafa/altera/12.1sp1/nios2eds/bin/gnu/H-i686-pc-linux-gnu/bin/../lib/gcc/nios2-elf/4.1.2/../../../../nios2-elf/lib/libstdc++.a(new_handler.o)
 .group         0x00000000        0x8 /home/lordrafa/altera/12.1sp1/nios2eds/bin/gnu/H-i686-pc-linux-gnu/bin/../lib/gcc/nios2-elf/4.1.2/../../../../nios2-elf/lib/libstdc++.a(new_handler.o)
 .group         0x00000000        0x8 /home/lordrafa/altera/12.1sp1/nios2eds/bin/gnu/H-i686-pc-linux-gnu/bin/../lib/gcc/nios2-elf/4.1.2/../../../../nios2-elf/lib/libstdc++.a(class_type_info.o)
 .group         0x00000000        0x8 /home/lordrafa/altera/12.1sp1/nios2eds/bin/gnu/H-i686-pc-linux-gnu/bin/../lib/gcc/nios2-elf/4.1.2/../../../../nios2-elf/lib/libstdc++.a(class_type_info.o)
 .group         0x00000000        0x8 /home/lordrafa/altera/12.1sp1/nios2eds/bin/gnu/H-i686-pc-linux-gnu/bin/../lib/gcc/nios2-elf/4.1.2/../../../../nios2-elf/lib/libstdc++.a(class_type_info.o)
 .group         0x00000000        0x8 /home/lordrafa/altera/12.1sp1/nios2eds/bin/gnu/H-i686-pc-linux-gnu/bin/../lib/gcc/nios2-elf/4.1.2/../../../../nios2-elf/lib/libstdc++.a(si_class_type_info.o)
 .group         0x00000000        0x8 /home/lordrafa/altera/12.1sp1/nios2eds/bin/gnu/H-i686-pc-linux-gnu/bin/../lib/gcc/nios2-elf/4.1.2/../../../../nios2-elf/lib/libstdc++.a(si_class_type_info.o)
 .group         0x00000000        0x8 /home/lordrafa/altera/12.1sp1/nios2eds/bin/gnu/H-i686-pc-linux-gnu/bin/../lib/gcc/nios2-elf/4.1.2/../../../../nios2-elf/lib/libstdc++.a(si_class_type_info.o)
 .group         0x00000000        0x8 /home/lordrafa/altera/12.1sp1/nios2eds/bin/gnu/H-i686-pc-linux-gnu/bin/../lib/gcc/nios2-elf/4.1.2/../../../../nios2-elf/lib/libstdc++.a(tinfo.o)
 .group         0x00000000        0x8 /home/lordrafa/altera/12.1sp1/nios2eds/bin/gnu/H-i686-pc-linux-gnu/bin/../lib/gcc/nios2-elf/4.1.2/../../../../nios2-elf/lib/libstdc++.a(tinfo.o)
 .group         0x00000000        0x8 /home/lordrafa/altera/12.1sp1/nios2eds/bin/gnu/H-i686-pc-linux-gnu/bin/../lib/gcc/nios2-elf/4.1.2/../../../../nios2-elf/lib/libstdc++.a(tinfo.o)

Memory Configuration

Name             Origin             Length             Attributes
reset            0x00000000         0x00000020
ddr_sdram        0x00000020         0x01cfffe0
*default*        0x00000000         0xffffffff

Linker script and memory map

LOAD ../RawaPro_Linux_Cache_bsp//obj/HAL/src/crt0.o
LOAD obj/default/alt_tpo_lcd/alt_tpo_lcd.o
LOAD obj/default/alt_video_display/alt_video_display.o
LOAD obj/default/audio_tvdecoder/i2c.o
LOAD obj/default/audio_tvdecoder/tvdecoder_ctrl.o
LOAD obj/default/fonts/tahomabold_20.o
LOAD obj/default/fonts/tahomabold_32.o
LOAD obj/default/graphics_lib/simple_graphics.o
LOAD obj/default/graphics_lib/simple_text.o
LOAD obj/default/keyhandler/keyhandler.o
LOAD obj/default/main.o
LOAD obj/default/sfs/sfs.o
LOAD obj/default/framereader/vip_wrapper_for_c_func.o
LOAD /home/lordrafa/altera/12.1sp1/nios2eds/bin/gnu/H-i686-pc-linux-gnu/bin/../lib/gcc/nios2-elf/4.1.2/../../../../nios2-elf/lib/libstdc++.a
LOAD /home/lordrafa/altera/12.1sp1/nios2eds/bin/gnu/H-i686-pc-linux-gnu/bin/../lib/gcc/nios2-elf/4.1.2/../../../../nios2-elf/lib/libm.a
LOAD /home/lordrafa/altera/12.1sp1/nios2eds/bin/gnu/H-i686-pc-linux-gnu/bin/../lib/gcc/nios2-elf/4.1.2/libgcc.a
START GROUP
LOAD /home/lordrafa/altera/12.1sp1/nios2eds/bin/gnu/H-i686-pc-linux-gnu/bin/../lib/gcc/nios2-elf/4.1.2/../../../../nios2-elf/lib/libc.a
LOAD /home/lordrafa/altera/12.1sp1/nios2eds/bin/gnu/H-i686-pc-linux-gnu/bin/../lib/gcc/nios2-elf/4.1.2/libgcc.a
LOAD ../RawaPro_Linux_Cache_bsp//libhal_bsp.a
END GROUP
LOAD /home/lordrafa/altera/12.1sp1/nios2eds/bin/gnu/H-i686-pc-linux-gnu/bin/../lib/gcc/nios2-elf/4.1.2/libgcc.a
                0x00000000                __alt_mem_ddr_sdram = 0x0

.entry          0x00000000       0x20
 *(.entry)
 .entry         0x00000000       0x20 ../RawaPro_Linux_Cache_bsp//obj/HAL/src/crt0.o
                0x00000000                __reset

.exceptions     0x00000020      0x194
                0x00000020                PROVIDE (__ram_exceptions_start, ABSOLUTE (.))
                0x00000020                . = ALIGN (0x20)
 *(.irq)
 *(.exceptions.entry.label)
 .exceptions.entry.label
                0x00000020        0x0 ../RawaPro_Linux_Cache_bsp//libhal_bsp.a(alt_irq_entry.o)
                0x00000020                alt_irq_entry
 .exceptions.entry.label
                0x00000020        0x0 ../RawaPro_Linux_Cache_bsp//libhal_bsp.a(alt_exception_entry.o)
                0x00000020                alt_exception
 *(.exceptions.entry.user)
 *(.exceptions.entry)
 .exceptions.entry
                0x00000020       0x54 ../RawaPro_Linux_Cache_bsp//libhal_bsp.a(alt_exception_entry.o)
 *(.exceptions.irqtest.user)
 *(.exceptions.irqtest)
 .exceptions.irqtest
                0x00000074       0x10 ../RawaPro_Linux_Cache_bsp//libhal_bsp.a(alt_irq_entry.o)
 *(.exceptions.irqhandler.user)
 *(.exceptions.irqhandler)
 .exceptions.irqhandler
                0x00000084        0x4 ../RawaPro_Linux_Cache_bsp//libhal_bsp.a(alt_irq_entry.o)
 *(.exceptions.irqreturn.user)
 *(.exceptions.irqreturn)
 .exceptions.irqreturn
                0x00000088        0x4 ../RawaPro_Linux_Cache_bsp//libhal_bsp.a(alt_irq_entry.o)
 *(.exceptions.notirq.label)
 .exceptions.notirq.label
                0x0000008c        0x0 ../RawaPro_Linux_Cache_bsp//libhal_bsp.a(alt_irq_entry.o)
 *(.exceptions.notirq.user)
 *(.exceptions.notirq)
 .exceptions.notirq
                0x0000008c        0x8 ../RawaPro_Linux_Cache_bsp//libhal_bsp.a(alt_exception_entry.o)
 *(.exceptions.soft.user)
 *(.exceptions.soft)
 *(.exceptions.unknown.user)
 *(.exceptions.unknown)
 .exceptions.unknown
                0x00000094        0x4 ../RawaPro_Linux_Cache_bsp//libhal_bsp.a(alt_exception_entry.o)
 *(.exceptions.exit.label)
 .exceptions.exit.label
                0x00000098        0x0 ../RawaPro_Linux_Cache_bsp//libhal_bsp.a(alt_irq_entry.o)
 .exceptions.exit.label
                0x00000098        0x0 ../RawaPro_Linux_Cache_bsp//libhal_bsp.a(alt_exception_entry.o)
 *(.exceptions.exit.user)
 *(.exceptions.exit)
 .exceptions.exit
                0x00000098       0x54 ../RawaPro_Linux_Cache_bsp//libhal_bsp.a(alt_exception_entry.o)
 *(.exceptions)
 .exceptions    0x000000ec       0xc8 ../RawaPro_Linux_Cache_bsp//libhal_bsp.a(alt_irq_handler.o)
                0x000000ec                alt_irq_handler
                0x000001b4                PROVIDE (__ram_exceptions_end, ABSOLUTE (.))
                0x00000020                PROVIDE (__flash_exceptions_start, LOADADDR (.exceptions))

.text           0x000001b4    0x15048
                0x000001b4                PROVIDE (stext, ABSOLUTE (.))
 *(.interp)
 *(.hash)
 *(.dynsym)
 *(.dynstr)
 *(.gnu.version)
 *(.gnu.version_d)
 *(.gnu.version_r)
 *(.rel.init)
 *(.rela.init)
 *(.rel.text .rel.text.* .rel.gnu.linkonce.t.*)
 *(.rela.text .rela.text.* .rela.gnu.linkonce.t.*)
 *(.rel.fini)
 *(.rela.fini)
 *(.rel.rodata .rel.rodata.* .rel.gnu.linkonce.r.*)
 *(.rela.rodata .rela.rodata.* .rela.gnu.linkonce.r.*)
 *(.rel.data .rel.data.* .rel.gnu.linkonce.d.*)
 *(.rela.data .rela.data.* .rela.gnu.linkonce.d.*)
 *(.rel.tdata .rel.tdata.* .rel.gnu.linkonce.td.*)
 *(.rela.tdata .rela.tdata.* .rela.gnu.linkonce.td.*)
 *(.rel.tbss .rel.tbss.* .rel.gnu.linkonce.tb.*)
 *(.rela.tbss .rela.tbss.* .rela.gnu.linkonce.tb.*)
 *(.rel.ctors)
 *(.rela.ctors)
 *(.rel.dtors)
 *(.rela.dtors)
 *(.rel.got)
 *(.rela.got)
 *(.rel.sdata .rel.sdata.* .rel.gnu.linkonce.s.*)
 *(.rela.sdata .rela.sdata.* .rela.gnu.linkonce.s.*)
 *(.rel.sbss .rel.sbss.* .rel.gnu.linkonce.sb.*)
 *(.rela.sbss .rela.sbss.* .rela.gnu.linkonce.sb.*)
 *(.rel.sdata2 .rel.sdata2.* .rel.gnu.linkonce.s2.*)
 *(.rela.sdata2 .rela.sdata2.* .rela.gnu.linkonce.s2.*)
 *(.rel.sbss2 .rel.sbss2.* .rel.gnu.linkonce.sb2.*)
 *(.rela.sbss2 .rela.sbss2.* .rela.gnu.linkonce.sb2.*)
 *(.rel.bss .rel.bss.* .rel.gnu.linkonce.b.*)
 *(.rela.bss .rela.bss.* .rela.gnu.linkonce.b.*)
 *(.rel.plt)
 *(.rela.plt)
 *(.rel.dyn)
 *(.init)
 *(.plt)
 *(.text .stub .text.* .gnu.linkonce.t.*)
 .text          0x000001b4       0x4c ../RawaPro_Linux_Cache_bsp//obj/HAL/src/crt0.o
                0x000001b4                _start
 .text          0x00000200      0x804 obj/default/alt_tpo_lcd/alt_tpo_lcd.o
                0x00000200                alt_tpo_lcd_prepare_serial_bus
                0x0000027c                alt_tpo_lcd_cleanup_serial_bus
                0x000002e4                alt_tpo_lcd_write_serial_bits
                0x00000384                alt_tpo_lcd_read_serial_byte
                0x000004c8                alt_tpo_lcd_read_config_register
                0x00000554                alt_tpo_lcd_write_config_register
                0x000005f4                alt_tpo_lcd_init
 .text          0x00000a04      0x370 obj/default/alt_video_display/alt_video_display.o
                0x00000a04                alt_video_display_only_frame_init
                0x00000b90                alt_video_display_clear_screen
                0x00000bf4                alt_video_display_allocate_buffers_only_frame
 .text          0x00000d74      0x738 obj/default/audio_tvdecoder/i2c.o
                0x00001070                i2c_write_with_err_chk
                0x00001214                i2c_write
                0x00001258                i2c_read
                0x00001470                init_i2c
 .text          0x000014ac      0x120 obj/default/audio_tvdecoder/tvdecoder_ctrl.o
                0x000014ac                tv_decoder_write
                0x000014f0                tv_decoder_read
                0x00001528                tv_decoder_init
 .text          0x000015cc        0x0 obj/default/fonts/tahomabold_20.o
 .text          0x000015cc        0x0 obj/default/fonts/tahomabold_32.o
 .text          0x000015cc     0x2ee8 obj/default/graphics_lib/simple_graphics.o
                0x000015cc                vid_draw_line
                0x00001688                vid_scroll_string_quit
                0x000016c4                vid_scroll_string_init
                0x00001810                vid_scroll_string
                0x00001bc8                vid_move_block
                0x00001ce4                vid_print_string
                0x00001df8                vid_draw_box
                0x00001f34                vid_print_char
                0x0000201c                vid_set_pixel
                0x00002244                vid_get_pixel
                0x000022cc                vid_paint_block
                0x00002558                vid_draw_horiz_line
                0x00002884                vid_merge_colors
                0x000028d0                vid_color_convert24_16
                0x00002970                vid_color_convert16_24
                0x000029d8                vid_copy_line_to_frame_buffer
                0x00002cb0                vid_draw_sloped_line
                0x00002f2c                vid_draw_circle
                0x00003098                vid_draw_round_corner_box
                0x00003464                vid_round_corner_points
                0x00003aec                max3
                0x00003b40                min3
                0x00003b94                max_diff3
                0x00003bf8                vid_put_pixel_in_span_map
                0x00003d04                vid_bres_scan_edges
                0x00003f64                vid_draw_triangle
                0x000042ac                CopyImage16
                0x00004388                CropImage16
 .text          0x000044b4      0xcec obj/default/graphics_lib/simple_text.o
                0x000044b4                vid_print_string_alpha
                0x0000472c                seperate_color_channels
                0x0000488c                merge_color_channels
                0x000049c4                read_from_frame
                0x00004c3c                alpha_blending
                0x00004f00                vid_print_char_alpha
                0x000050ac                vid_string_pixel_length_alpha
 .text          0x000051a0      0x1dc obj/default/keyhandler/keyhandler.o
                0x000051a0                handle_button_interrupts
                0x00005314                init_button_pio
 .text          0x0000537c      0x68c obj/default/main.o
                0x0000537c                main
 .text          0x00005a08      0x4b4 obj/default/sfs/sfs.o
                0x00005a08                AGrises
                0x00005b90                Sobel
 .text          0x00005ebc      0x2f8 obj/default/framereader/vip_wrapper_for_c_func.o
                0x00005ebc                Frame_Reader_enable_interrupt
                0x00005ef0                Frame_Reader_start
                0x00005f20                Frame_Reader_switch_to_pb1
                0x00005f4c                Frame_Reader_switch_to_pb0
                0x00005f78                Frame_Reader_set_frame_1_properties
                0x00005fd8                Frame_Reader_set_frame_0_properties
                0x00006038                Frame_Reader_is_running
                0x0000606c                Frame_Reader_stop
                0x000060a0                Frame_Reader_init
 .text._ZNV10EventQueue4pushEP7Vipcorei
                0x000061b4       0x84 obj/default/framereader/vip_wrapper_for_c_func.o
                0x000061b4                _ZNV10EventQueue4pushEP7Vipcorei
 .text._ZN7Vipcore8do_writeEii
                0x00006238       0x50 obj/default/framereader/vip_wrapper_for_c_func.o
                0x00006238                _ZN7Vipcore8do_writeEii
 .text._ZN7Vipcore16enable_interruptEi
                0x00006288       0x64 obj/default/framereader/vip_wrapper_for_c_func.o
                0x00006288                _ZN7Vipcore16enable_interruptEi
 .text._ZN7Vipcore4stopEv
                0x000062ec       0x54 obj/default/framereader/vip_wrapper_for_c_func.o
                0x000062ec                _ZN7Vipcore4stopEv
 .text._ZN7Vipcore5startEv
                0x00006340       0x50 obj/default/framereader/vip_wrapper_for_c_func.o
                0x00006340                _ZN7Vipcore5startEv
 .text._ZN12Frame_Reader13switch_to_pb1Ev
                0x00006390       0x38 obj/default/framereader/vip_wrapper_for_c_func.o
                0x00006390                _ZN12Frame_Reader13switch_to_pb1Ev
 .text._ZN12Frame_Reader13switch_to_pb0Ev
                0x000063c8       0x38 obj/default/framereader/vip_wrapper_for_c_func.o
                0x000063c8                _ZN12Frame_Reader13switch_to_pb0Ev
 .text._ZN12Frame_Reader22set_frame_1_propertiesEiiiiii
                0x00006400       0x94 obj/default/framereader/vip_wrapper_for_c_func.o
                0x00006400                _ZN12Frame_Reader22set_frame_1_propertiesEiiiiii
 .text._ZN12Frame_Reader22set_frame_0_propertiesEiiiiii
                0x00006494       0x94 obj/default/framereader/vip_wrapper_for_c_func.o
                0x00006494                _ZN12Frame_Reader22set_frame_0_propertiesEiiiiii
 .text._ZN7Vipcore7do_readEi
                0x00006528       0x44 obj/default/framereader/vip_wrapper_for_c_func.o
                0x00006528                _ZN7Vipcore7do_readEi
 .text._ZN7Vipcore10is_runningEv
                0x0000656c       0x3c obj/default/framereader/vip_wrapper_for_c_func.o
                0x0000656c                _ZN7Vipcore10is_runningEv
 .text._ZN7Vipcore4stopEb
                0x000065a8       0x58 obj/default/framereader/vip_wrapper_for_c_func.o
                0x000065a8                _ZN7Vipcore4stopEb
 .text._ZN7Vipcore10genericISREPv
                0x00006600       0x64 obj/default/framereader/vip_wrapper_for_c_func.o
                0x00006600                _ZN7Vipcore10genericISREPv
 .text._ZN7VipcoreC2EllPV10EventQueue
                0x00006664       0x88 obj/default/framereader/vip_wrapper_for_c_func.o
                0x00006664                _ZN7VipcoreC2EllPV10EventQueue
 .text._ZN12Frame_ReaderC1El
                0x000066ec       0x40 obj/default/framereader/vip_wrapper_for_c_func.o
                0x000066ec                _ZN12Frame_ReaderC1El
 .text          0x0000672c      0xbec /home/lordrafa/altera/12.1sp1/nios2eds/bin/gnu/H-i686-pc-linux-gnu/bin/../lib/gcc/nios2-elf/4.1.2/../../../../nios2-elf/lib/libstdc++.a(eh_personality.o)
                0x00006cb8                __cxa_call_unexpected
                0x00006e38                __gxx_personality_sj0
 .text          0x00007318      0x10c /home/lordrafa/altera/12.1sp1/nios2eds/bin/gnu/H-i686-pc-linux-gnu/bin/../lib/gcc/nios2-elf/4.1.2/../../../../nios2-elf/lib/libstdc++.a(eh_terminate.o)
                0x00007318                _ZSt13set_terminatePFvvE
                0x0000732c                _ZSt14set_unexpectedPFvvE
                0x00007340                _ZN10__cxxabiv111__terminateEPFvvE
                0x000073e4                _ZSt9terminatev
                0x000073fc                _ZN10__cxxabiv112__unexpectedEPFvvE
                0x0000740c                _ZSt10unexpectedv
 .text          0x00007424        0x0 /home/lordrafa/altera/12.1sp1/nios2eds/bin/gnu/H-i686-pc-linux-gnu/bin/../lib/gcc/nios2-elf/4.1.2/../../../../nios2-elf/lib/libstdc++.a(eh_term_handler.o)
 .text          0x00007424      0x1e4 /home/lordrafa/altera/12.1sp1/nios2eds/bin/gnu/H-i686-pc-linux-gnu/bin/../lib/gcc/nios2-elf/4.1.2/../../../../nios2-elf/lib/libstdc++.a(eh_catch.o)
                0x00007424                __cxa_get_exception_ptr
                0x0000742c                _ZSt18uncaught_exceptionv
                0x0000744c                __cxa_end_catch
                0x000074f0                __cxa_begin_catch
 .text          0x00007608        0xc /home/lordrafa/altera/12.1sp1/nios2eds/bin/gnu/H-i686-pc-linux-gnu/bin/../lib/gcc/nios2-elf/4.1.2/../../../../nios2-elf/lib/libstdc++.a(del_op.o)
                0x00007608                _ZdlPv
 .text          0x00007614      0x148 /home/lordrafa/altera/12.1sp1/nios2eds/bin/gnu/H-i686-pc-linux-gnu/bin/../lib/gcc/nios2-elf/4.1.2/../../../../nios2-elf/lib/libstdc++.a(eh_throw.o)
                0x00007614                __cxa_rethrow
                0x00007688                __cxa_throw
 .text          0x0000775c      0x174 /home/lordrafa/altera/12.1sp1/nios2eds/bin/gnu/H-i686-pc-linux-gnu/bin/../lib/gcc/nios2-elf/4.1.2/../../../../nios2-elf/lib/libstdc++.a(eh_alloc.o)
                0x0000775c                __cxa_free_exception
                0x0000779c                __cxa_allocate_exception
 .text          0x000078d0      0x100 /home/lordrafa/altera/12.1sp1/nios2eds/bin/gnu/H-i686-pc-linux-gnu/bin/../lib/gcc/nios2-elf/4.1.2/../../../../nios2-elf/lib/libstdc++.a(new_op.o)
                0x000078d0                _Znwm
 .text          0x000079d0       0x94 /home/lordrafa/altera/12.1sp1/nios2eds/bin/gnu/H-i686-pc-linux-gnu/bin/../lib/gcc/nios2-elf/4.1.2/../../../../nios2-elf/lib/libstdc++.a(eh_exception.o)
                0x000079d0                _ZNKSt9exception4whatEv
                0x000079e0                _ZNSt9exceptionD0Ev
                0x000079f0                _ZNSt9exceptionD1Ev
                0x00007a00                _ZNSt9exceptionD2Ev
                0x00007a10                _ZNSt13bad_exceptionD0Ev
                0x00007a44                _ZNSt13bad_exceptionD1Ev
                0x00007a54                _ZNSt13bad_exceptionD2Ev
 .text          0x00007a64       0x44 /home/lordrafa/altera/12.1sp1/nios2eds/bin/gnu/H-i686-pc-linux-gnu/bin/../lib/gcc/nios2-elf/4.1.2/../../../../nios2-elf/lib/libstdc++.a(eh_call.o)
                0x00007a64                __cxa_call_terminate
 .text          0x00007aa8       0x60 /home/lordrafa/altera/12.1sp1/nios2eds/bin/gnu/H-i686-pc-linux-gnu/bin/../lib/gcc/nios2-elf/4.1.2/../../../../nios2-elf/lib/libstdc++.a(new_handler.o)
                0x00007aa8                _ZSt15set_new_handlerPFvvE
                0x00007ab4                _ZNSt9bad_allocD0Ev
                0x00007ae8                _ZNSt9bad_allocD1Ev
                0x00007af8                _ZNSt9bad_allocD2Ev
 .text          0x00007b08       0x10 /home/lordrafa/altera/12.1sp1/nios2eds/bin/gnu/H-i686-pc-linux-gnu/bin/../lib/gcc/nios2-elf/4.1.2/../../../../nios2-elf/lib/libstdc++.a(eh_globals.o)
                0x00007b08                __cxa_get_globals_fast
                0x00007b10                __cxa_get_globals
 .text          0x00007b18      0x1bc /home/lordrafa/altera/12.1sp1/nios2eds/bin/gnu/H-i686-pc-linux-gnu/bin/../lib/gcc/nios2-elf/4.1.2/../../../../nios2-elf/lib/libstdc++.a(class_type_info.o)
                0x00007b18                _ZNK10__cxxabiv117__class_type_info11__do_upcastEPKS0_PPv
                0x00007b84                _ZNK10__cxxabiv117__class_type_info20__do_find_public_srcElPKvPKS0_S2_
                0x00007ba4                _ZN10__cxxabiv117__class_type_infoD0Ev
                0x00007bd8                _ZN10__cxxabiv117__class_type_infoD1Ev
                0x00007be8                _ZN10__cxxabiv117__class_type_infoD2Ev
                0x00007bf8                _ZNK10__cxxabiv117__class_type_info10__do_catchEPKSt9type_infoPPvj
                0x00007c58                _ZNK10__cxxabiv117__class_type_info11__do_upcastEPKS0_PKvRNS0_15__upcast_resultE
                0x00007c88                _ZNK10__cxxabiv117__class_type_info12__do_dyncastElNS0_10__sub_kindEPKS0_PKvS3_S5_RNS0_16__dyncast_resultE
 .text          0x00007cd4        0x0 /home/lordrafa/altera/12.1sp1/nios2eds/bin/gnu/H-i686-pc-linux-gnu/bin/../lib/gcc/nios2-elf/4.1.2/../../../../nios2-elf/lib/libstdc++.a(eh_unex_handler.o)
 .text          0x00007cd4      0x1c8 /home/lordrafa/altera/12.1sp1/nios2eds/bin/gnu/H-i686-pc-linux-gnu/bin/../lib/gcc/nios2-elf/4.1.2/../../../../nios2-elf/lib/libstdc++.a(si_class_type_info.o)
                0x00007cd4                _ZNK10__cxxabiv120__si_class_type_info11__do_upcastEPKNS_17__class_type_infoEPKvRNS1_15__upcast_resultE
                0x00007d4c                _ZN10__cxxabiv120__si_class_type_infoD0Ev
                0x00007d80                _ZN10__cxxabiv120__si_class_type_infoD1Ev
                0x00007d90                _ZN10__cxxabiv120__si_class_type_infoD2Ev
                0x00007da0                _ZNK10__cxxabiv120__si_class_type_info20__do_find_public_srcElPKvPKNS_17__class_type_infoES2_
                0x00007dd4                _ZNK10__cxxabiv120__si_class_type_info12__do_dyncastElNS_17__class_type_info10__sub_kindEPKS1_PKvS4_S6_RNS1_16__dyncast_resultE
 .text          0x00007e9c       0x58 /home/lordrafa/altera/12.1sp1/nios2eds/bin/gnu/H-i686-pc-linux-gnu/bin/../lib/gcc/nios2-elf/4.1.2/../../../../nios2-elf/lib/libstdc++.a(tinfo.o)
                0x00007e9c                _ZNKSt9type_info14__is_pointer_pEv
                0x00007ea4                _ZNKSt9type_info15__is_function_pEv
                0x00007eac                _ZNKSt9type_info10__do_catchEPKS_PPvj
                0x00007ebc                _ZNKSt9type_info11__do_upcastEPKN10__cxxabiv117__class_type_infoEPPv
                0x00007ec4                _ZNSt9type_infoD0Ev
                0x00007ed4                _ZNSt9type_infoD1Ev
                0x00007ee4                _ZNSt9type_infoD2Ev
 .text          0x00007ef4      0x14c /home/lordrafa/altera/12.1sp1/nios2eds/bin/gnu/H-i686-pc-linux-gnu/bin/../lib/gcc/nios2-elf/4.1.2/libgcc.a(lib2-divmod.o)
                0x00007f70                __divsi3
                0x00007fd0                __modsi3
                0x00008030                __udivsi3
                0x00008038                __umodsi3
 .text          0x00008040      0x548 /home/lordrafa/altera/12.1sp1/nios2eds/bin/gnu/H-i686-pc-linux-gnu/bin/../lib/gcc/nios2-elf/4.1.2/libgcc.a(unwind-sjlj.o)
                0x00008040                _Unwind_SjLj_Register
                0x00008050                _Unwind_SjLj_Unregister
                0x0000805c                _Unwind_GetGR
                0x00008074                _Unwind_GetCFA
                0x00008088                _Unwind_SetGR
                0x000080a0                _Unwind_GetIP
                0x000080b0                _Unwind_GetIPInfo
                0x000080c4                _Unwind_SetIP
                0x000080d4                _Unwind_GetLanguageSpecificData
                0x000080e0                _Unwind_GetRegionStart
                0x000080e8                _Unwind_FindEnclosingFunction
                0x000080f0                _Unwind_GetDataRelBase
                0x000080f8                _Unwind_GetTextRelBase
                0x00008200                _Unwind_DeleteException
                0x0000830c                _Unwind_SjLj_Resume
                0x00008368                _Unwind_SjLj_RaiseException
                0x00008460                _Unwind_SjLj_ForcedUnwind
                0x000084b0                _Unwind_Backtrace
                0x00008530                _Unwind_SjLj_Resume_or_Rethrow
 .text          0x00008588       0x18 /home/lordrafa/altera/12.1sp1/nios2eds/bin/gnu/H-i686-pc-linux-gnu/bin/../lib/gcc/nios2-elf/4.1.2/../../../../nios2-elf/lib/libc.a(lib_a-abort.o)
                0x00008588                abort
 .text          0x000085a0       0x28 /home/lordrafa/altera/12.1sp1/nios2eds/bin/gnu/H-i686-pc-linux-gnu/bin/../lib/gcc/nios2-elf/4.1.2/../../../../nios2-elf/lib/libc.a(lib_a-malloc.o)
                0x000085a0                free
                0x000085b4                malloc
 .text          0x000085c8      0x740 /home/lordrafa/altera/12.1sp1/nios2eds/bin/gnu/H-i686-pc-linux-gnu/bin/../lib/gcc/nios2-elf/4.1.2/../../../../nios2-elf/lib/libc.a(lib_a-mallocr.o)
                0x000085c8                _malloc_r
 .text          0x00008d08       0xa0 /home/lordrafa/altera/12.1sp1/nios2eds/bin/gnu/H-i686-pc-linux-gnu/bin/../lib/gcc/nios2-elf/4.1.2/../../../../nios2-elf/lib/libc.a(lib_a-memcpy.o)
                0x00008d08                memcpy
 .text          0x00008da8       0x98 /home/lordrafa/altera/12.1sp1/nios2eds/bin/gnu/H-i686-pc-linux-gnu/bin/../lib/gcc/nios2-elf/4.1.2/../../../../nios2-elf/lib/libc.a(lib_a-memset.o)
                0x00008da8                memset
 .text          0x00008e40       0x78 /home/lordrafa/altera/12.1sp1/nios2eds/bin/gnu/H-i686-pc-linux-gnu/bin/../lib/gcc/nios2-elf/4.1.2/../../../../nios2-elf/lib/libc.a(lib_a-printf.o)
                0x00008e40                printf
                0x00008e84                _printf_r
 .text          0x00008eb8       0xb4 /home/lordrafa/altera/12.1sp1/nios2eds/bin/gnu/H-i686-pc-linux-gnu/bin/../lib/gcc/nios2-elf/4.1.2/../../../../nios2-elf/lib/libc.a(lib_a-puts.o)
                0x00008eb8                _puts_r
                0x00008f58                puts
 .text          0x00008f6c       0x70 /home/lordrafa/altera/12.1sp1/nios2eds/bin/gnu/H-i686-pc-linux-gnu/bin/../lib/gcc/nios2-elf/4.1.2/../../../../nios2-elf/lib/libc.a(lib_a-sbrkr.o)
                0x00008f6c                _sbrk_r
 .text          0x00008fdc      0x2d8 /home/lordrafa/altera/12.1sp1/nios2eds/bin/gnu/H-i686-pc-linux-gnu/bin/../lib/gcc/nios2-elf/4.1.2/../../../../nios2-elf/lib/libc.a(lib_a-signal.o)
                0x00008fdc                _raise_r
                0x000090a8                raise
                0x000090bc                _init_signal_r
                0x00009120                _init_signal
                0x00009130                __sigtramp_r
                0x000091e4                __sigtramp
                0x000091f8                _signal_r
                0x00009298                signal
 .text          0x000092b4       0x78 /home/lordrafa/altera/12.1sp1/nios2eds/bin/gnu/H-i686-pc-linux-gnu/bin/../lib/gcc/nios2-elf/4.1.2/../../../../nios2-elf/lib/libc.a(lib_a-signalr.o)
                0x000092b4                _getpid_r
                0x000092b8                _kill_r
 .text          0x0000932c      0x170 /home/lordrafa/altera/12.1sp1/nios2eds/bin/gnu/H-i686-pc-linux-gnu/bin/../lib/gcc/nios2-elf/4.1.2/../../../../nios2-elf/lib/libc.a(lib_a-snprintf.o)
                0x0000932c                snprintf
                0x000093e8                _snprintf_r
 .text          0x0000949c       0x8c /home/lordrafa/altera/12.1sp1/nios2eds/bin/gnu/H-i686-pc-linux-gnu/bin/../lib/gcc/nios2-elf/4.1.2/../../../../nios2-elf/lib/libc.a(lib_a-strcpy.o)
                0x0000949c                strcpy
 .text          0x00009528       0x74 /home/lordrafa/altera/12.1sp1/nios2eds/bin/gnu/H-i686-pc-linux-gnu/bin/../lib/gcc/nios2-elf/4.1.2/../../../../nios2-elf/lib/libc.a(lib_a-strlen.o)
                0x00009528                strlen
 .text          0x0000959c     0x1f28 /home/lordrafa/altera/12.1sp1/nios2eds/bin/gnu/H-i686-pc-linux-gnu/bin/../lib/gcc/nios2-elf/4.1.2/../../../../nios2-elf/lib/libc.a(lib_a-vfprintf.o)
                0x000095f4                ___vfprintf_internal_r
                0x0000b4a0                __vfprintf_internal
 .text          0x0000b4c4      0x13c /home/lordrafa/altera/12.1sp1/nios2eds/bin/gnu/H-i686-pc-linux-gnu/bin/../lib/gcc/nios2-elf/4.1.2/../../../../nios2-elf/lib/libc.a(lib_a-wsetup.o)
                0x0000b4c4                __swsetup_r
 .text          0x0000b600     0x17cc /home/lordrafa/altera/12.1sp1/nios2eds/bin/gnu/H-i686-pc-linux-gnu/bin/../lib/gcc/nios2-elf/4.1.2/../../../../nios2-elf/lib/libc.a(lib_a-dtoa.o)
                0x0000b818                _dtoa_r
 .text          0x0000cdcc      0x230 /home/lordrafa/altera/12.1sp1/nios2eds/bin/gnu/H-i686-pc-linux-gnu/bin/../lib/gcc/nios2-elf/4.1.2/../../../../nios2-elf/lib/libc.a(lib_a-fflush.o)
                0x0000cdcc                _fflush_r
                0x0000cfc8                fflush
 .text          0x0000cffc      0x2c0 /home/lordrafa/altera/12.1sp1/nios2eds/bin/gnu/H-i686-pc-linux-gnu/bin/../lib/gcc/nios2-elf/4.1.2/../../../../nios2-elf/lib/libc.a(lib_a-findfp.o)
                0x0000d054                __sfp_lock_acquire
                0x0000d058                __sfp_lock_release
                0x0000d05c                __sinit_lock_acquire
                0x0000d060                __sinit_lock_release
                0x0000d064                __sinit
                0x0000d118                __fp_unlock_all
                0x0000d130                __fp_lock_all
                0x0000d148                _cleanup_r
                0x0000d154                _cleanup
                0x0000d164                __sfmoreglue
                0x0000d1cc                __sfp
 .text          0x0000d2bc      0x440 /home/lordrafa/altera/12.1sp1/nios2eds/bin/gnu/H-i686-pc-linux-gnu/bin/../lib/gcc/nios2-elf/4.1.2/../../../../nios2-elf/lib/libc.a(lib_a-freer.o)
                0x0000d2bc                _malloc_trim_r
                0x0000d3e8                _free_r
 .text          0x0000d6fc      0x49c /home/lordrafa/altera/12.1sp1/nios2eds/bin/gnu/H-i686-pc-linux-gnu/bin/../lib/gcc/nios2-elf/4.1.2/../../../../nios2-elf/lib/libc.a(lib_a-fvwrite.o)
                0x0000d6fc                __sfvwrite_r
 .text          0x0000db98      0x180 /home/lordrafa/altera/12.1sp1/nios2eds/bin/gnu/H-i686-pc-linux-gnu/bin/../lib/gcc/nios2-elf/4.1.2/../../../../nios2-elf/lib/libc.a(lib_a-fwalk.o)
                0x0000db98                _fwalk_reent
                0x0000dc60                _fwalk
 .text          0x0000dd18        0x0 /home/lordrafa/altera/12.1sp1/nios2eds/bin/gnu/H-i686-pc-linux-gnu/bin/../lib/gcc/nios2-elf/4.1.2/../../../../nios2-elf/lib/libc.a(lib_a-impure.o)
 .text          0x0000dd18        0x0 /home/lordrafa/altera/12.1sp1/nios2eds/bin/gnu/H-i686-pc-linux-gnu/bin/../lib/gcc/nios2-elf/4.1.2/../../../../nios2-elf/lib/libc.a(lib_a-int_errno.o)
 .text          0x0000dd18       0xc4 /home/lordrafa/altera/12.1sp1/nios2eds/bin/gnu/H-i686-pc-linux-gnu/bin/../lib/gcc/nios2-elf/4.1.2/../../../../nios2-elf/lib/libc.a(lib_a-locale.o)
                0x0000dd18                __locale_charset
                0x0000dd20                _localeconv_r
                0x0000dd2c                localeconv
                0x0000dd3c                _setlocale_r
                0x0000ddc0                setlocale
 .text          0x0000dddc      0x194 /home/lordrafa/altera/12.1sp1/nios2eds/bin/gnu/H-i686-pc-linux-gnu/bin/../lib/gcc/nios2-elf/4.1.2/../../../../nios2-elf/lib/libc.a(lib_a-makebuf.o)
                0x0000dddc                __smakebuf_r
 .text          0x0000df70       0xe4 /home/lordrafa/altera/12.1sp1/nios2eds/bin/gnu/H-i686-pc-linux-gnu/bin/../lib/gcc/nios2-elf/4.1.2/../../../../nios2-elf/lib/libc.a(lib_a-memchr.o)
                0x0000df70                memchr
 .text          0x0000e054       0xe0 /home/lordrafa/altera/12.1sp1/nios2eds/bin/gnu/H-i686-pc-linux-gnu/bin/../lib/gcc/nios2-elf/4.1.2/../../../../nios2-elf/lib/libc.a(lib_a-memmove.o)
                0x0000e054                memmove
 .text          0x0000e134      0xff4 /home/lordrafa/altera/12.1sp1/nios2eds/bin/gnu/H-i686-pc-linux-gnu/bin/../lib/gcc/nios2-elf/4.1.2/../../../../nios2-elf/lib/libc.a(lib_a-mprec.o)
                0x0000e134                _Bfree
                0x0000e15c                __hi0bits
                0x0000e1cc                __lo0bits
                0x0000e290                __mcmp
                0x0000e2f0                __ulp
                0x0000e370                __b2d
                0x0000e490                __ratio
                0x0000e540                _mprec_log10
                0x0000e5d4                __copybits
                0x0000e62c                __any_on
                0x0000e6b4                _Balloc
                0x0000e770                __d2b
                0x0000e8ec                __mdiff
                0x0000ea78                __lshift
                0x0000ebc4                __multiply
                0x0000edac                __i2b
                0x0000ede8                __multadd
                0x0000eee8                __pow5mult
                0x0000f008                __s2b
 .text          0x0000f128      0x5f4 /home/lordrafa/altera/12.1sp1/nios2eds/bin/gnu/H-i686-pc-linux-gnu/bin/../lib/gcc/nios2-elf/4.1.2/../../../../nios2-elf/lib/libc.a(lib_a-reallocr.o)
                0x0000f128                _realloc_r
 .text          0x0000f71c       0x40 /home/lordrafa/altera/12.1sp1/nios2eds/bin/gnu/H-i686-pc-linux-gnu/bin/../lib/gcc/nios2-elf/4.1.2/../../../../nios2-elf/lib/libc.a(lib_a-s_isinfd.o)
                0x0000f71c                __isinfd
 .text          0x0000f75c       0x30 /home/lordrafa/altera/12.1sp1/nios2eds/bin/gnu/H-i686-pc-linux-gnu/bin/../lib/gcc/nios2-elf/4.1.2/../../../../nios2-elf/lib/libc.a(lib_a-s_isnand.o)
                0x0000f75c                __isnand
 .text          0x0000f78c      0x14c /home/lordrafa/altera/12.1sp1/nios2eds/bin/gnu/H-i686-pc-linux-gnu/bin/../lib/gcc/nios2-elf/4.1.2/../../../../nios2-elf/lib/libc.a(lib_a-stdio.o)
                0x0000f78c                __sclose
                0x0000f794                __sseek
                0x0000f7fc                __swrite
                0x0000f878                __sread
 .text          0x0000f8d8       0xbc /home/lordrafa/altera/12.1sp1/nios2eds/bin/gnu/H-i686-pc-linux-gnu/bin/../lib/gcc/nios2-elf/4.1.2/../../../../nios2-elf/lib/libc.a(lib_a-strcmp.o)
                0x0000f8d8                strcmp
 .text          0x0000f994       0x78 /home/lordrafa/altera/12.1sp1/nios2eds/bin/gnu/H-i686-pc-linux-gnu/bin/../lib/gcc/nios2-elf/4.1.2/../../../../nios2-elf/lib/libc.a(lib_a-writer.o)
                0x0000f994                _write_r
 .text          0x0000fa0c       0xb4 /home/lordrafa/altera/12.1sp1/nios2eds/bin/gnu/H-i686-pc-linux-gnu/bin/../lib/gcc/nios2-elf/4.1.2/../../../../nios2-elf/lib/libc.a(lib_a-callocr.o)
                0x0000fa0c                _calloc_r
 .text          0x0000fac0       0x70 /home/lordrafa/altera/12.1sp1/nios2eds/bin/gnu/H-i686-pc-linux-gnu/bin/../lib/gcc/nios2-elf/4.1.2/../../../../nios2-elf/lib/libc.a(lib_a-closer.o)
                0x0000fac0                _close_r
 .text          0x0000fb30      0x124 /home/lordrafa/altera/12.1sp1/nios2eds/bin/gnu/H-i686-pc-linux-gnu/bin/../lib/gcc/nios2-elf/4.1.2/../../../../nios2-elf/lib/libc.a(lib_a-fclose.o)
                0x0000fb30                _fclose_r
                0x0000fc40                fclose
 .text          0x0000fc54       0x74 /home/lordrafa/altera/12.1sp1/nios2eds/bin/gnu/H-i686-pc-linux-gnu/bin/../lib/gcc/nios2-elf/4.1.2/../../../../nios2-elf/lib/libc.a(lib_a-fstatr.o)
                0x0000fc54                _fstat_r
 .text          0x0000fcc8       0x70 /home/lordrafa/altera/12.1sp1/nios2eds/bin/gnu/H-i686-pc-linux-gnu/bin/../lib/gcc/nios2-elf/4.1.2/../../../../nios2-elf/lib/libc.a(lib_a-isattyr.o)
                0x0000fcc8                _isatty_r
 .text          0x0000fd38       0x78 /home/lordrafa/altera/12.1sp1/nios2eds/bin/gnu/H-i686-pc-linux-gnu/bin/../lib/gcc/nios2-elf/4.1.2/../../../../nios2-elf/lib/libc.a(lib_a-lseekr.o)
                0x0000fd38                _lseek_r
 .text          0x0000fdb0       0x78 /home/lordrafa/altera/12.1sp1/nios2eds/bin/gnu/H-i686-pc-linux-gnu/bin/../lib/gcc/nios2-elf/4.1.2/../../../../nios2-elf/lib/libc.a(lib_a-readr.o)
                0x0000fdb0                _read_r
 .text          0x0000fe28      0x5dc /home/lordrafa/altera/12.1sp1/nios2eds/bin/gnu/H-i686-pc-linux-gnu/bin/../lib/gcc/nios2-elf/4.1.2/libgcc.a(_udivdi3.o)
                0x0000fe28                __udivdi3
 .text          0x00010404      0x5b0 /home/lordrafa/altera/12.1sp1/nios2eds/bin/gnu/H-i686-pc-linux-gnu/bin/../lib/gcc/nios2-elf/4.1.2/libgcc.a(_umoddi3.o)
                0x00010404                __umoddi3
 .text          0x000109b4      0x504 /home/lordrafa/altera/12.1sp1/nios2eds/bin/gnu/H-i686-pc-linux-gnu/bin/../lib/gcc/nios2-elf/4.1.2/libgcc.a(_addsub_df.o)
                0x00010dc4                __subdf3
                0x00010e44                __adddf3
 .text          0x00010eb8      0x3c4 /home/lordrafa/altera/12.1sp1/nios2eds/bin/gnu/H-i686-pc-linux-gnu/bin/../lib/gcc/nios2-elf/4.1.2/libgcc.a(_mul_df.o)
                0x00010eb8                __muldf3
 .text          0x0001127c      0x258 /home/lordrafa/altera/12.1sp1/nios2eds/bin/gnu/H-i686-pc-linux-gnu/bin/../lib/gcc/nios2-elf/4.1.2/libgcc.a(_div_df.o)
                0x0001127c                __divdf3
 .text          0x000114d4       0x88 /home/lordrafa/altera/12.1sp1/nios2eds/bin/gnu/H-i686-pc-linux-gnu/bin/../lib/gcc/nios2-elf/4.1.2/libgcc.a(_eq_df.o)
                0x000114d4                __eqdf2
 .text          0x0001155c       0x88 /home/lordrafa/altera/12.1sp1/nios2eds/bin/gnu/H-i686-pc-linux-gnu/bin/../lib/gcc/nios2-elf/4.1.2/libgcc.a(_ne_df.o)
                0x0001155c                __nedf2
 .text          0x000115e4       0x88 /home/lordrafa/altera/12.1sp1/nios2eds/bin/gnu/H-i686-pc-linux-gnu/bin/../lib/gcc/nios2-elf/4.1.2/libgcc.a(_gt_df.o)
                0x000115e4                __gtdf2
 .text          0x0001166c       0x88 /home/lordrafa/altera/12.1sp1/nios2eds/bin/gnu/H-i686-pc-linux-gnu/bin/../lib/gcc/nios2-elf/4.1.2/libgcc.a(_ge_df.o)
                0x0001166c                __gedf2
 .text          0x000116f4       0x88 /home/lordrafa/altera/12.1sp1/nios2eds/bin/gnu/H-i686-pc-linux-gnu/bin/../lib/gcc/nios2-elf/4.1.2/libgcc.a(_lt_df.o)
                0x000116f4                __ltdf2
 .text          0x0001177c       0xf8 /home/lordrafa/altera/12.1sp1/nios2eds/bin/gnu/H-i686-pc-linux-gnu/bin/../lib/gcc/nios2-elf/4.1.2/libgcc.a(_si_to_df.o)
                0x0001177c                __floatsidf
 .text          0x00011874       0xd8 /home/lordrafa/altera/12.1sp1/nios2eds/bin/gnu/H-i686-pc-linux-gnu/bin/../lib/gcc/nios2-elf/4.1.2/libgcc.a(_df_to_si.o)
                0x00011874                __fixdfsi
 .text          0x0001194c        0x0 /home/lordrafa/altera/12.1sp1/nios2eds/bin/gnu/H-i686-pc-linux-gnu/bin/../lib/gcc/nios2-elf/4.1.2/libgcc.a(_thenan_df.o)
 .text          0x0001194c      0x194 /home/lordrafa/altera/12.1sp1/nios2eds/bin/gnu/H-i686-pc-linux-gnu/bin/../lib/gcc/nios2-elf/4.1.2/libgcc.a(_usi_to_df.o)
                0x0001194c                __floatunsidf
 .text          0x00011ae0       0x98 /home/lordrafa/altera/12.1sp1/nios2eds/bin/gnu/H-i686-pc-linux-gnu/bin/../lib/gcc/nios2-elf/4.1.2/libgcc.a(_muldi3.o)
                0x00011ae0                __muldi3
 .text          0x00011b78        0x0 /home/lordrafa/altera/12.1sp1/nios2eds/bin/gnu/H-i686-pc-linux-gnu/bin/../lib/gcc/nios2-elf/4.1.2/libgcc.a(_clz.o)
 .text          0x00011b78       0x80 /home/lordrafa/altera/12.1sp1/nios2eds/bin/gnu/H-i686-pc-linux-gnu/bin/../lib/gcc/nios2-elf/4.1.2/libgcc.a(_clzsi2.o)
                0x00011b78                __clzsi2
 .text          0x00011bf8      0x314 /home/lordrafa/altera/12.1sp1/nios2eds/bin/gnu/H-i686-pc-linux-gnu/bin/../lib/gcc/nios2-elf/4.1.2/libgcc.a(_pack_df.o)
                0x00011bf8                __pack_d
 .text          0x00011f0c      0x138 /home/lordrafa/altera/12.1sp1/nios2eds/bin/gnu/H-i686-pc-linux-gnu/bin/../lib/gcc/nios2-elf/4.1.2/libgcc.a(_unpack_df.o)
                0x00011f0c                __unpack_d
 .text          0x00012044       0xc8 /home/lordrafa/altera/12.1sp1/nios2eds/bin/gnu/H-i686-pc-linux-gnu/bin/../lib/gcc/nios2-elf/4.1.2/libgcc.a(_fpcmp_parts_df.o)
                0x00012044                __fpcmp_parts_d
 .text          0x0001210c      0x15c ../RawaPro_Linux_Cache_bsp//libhal_bsp.a(alt_close.o)
                0x0001210c                close
 .text          0x00012268       0x2c ../RawaPro_Linux_Cache_bsp//libhal_bsp.a(alt_dev.o)
 .text          0x00012294        0x0 ../RawaPro_Linux_Cache_bsp//libhal_bsp.a(alt_errno.o)
 .text          0x00012294       0x60 ../RawaPro_Linux_Cache_bsp//libhal_bsp.a(alt_exit.o)
                0x000122d4                _exit
 .text          0x000122f4      0x134 ../RawaPro_Linux_Cache_bsp//libhal_bsp.a(alt_fstat.o)
                0x000122f4                fstat
 .text          0x00012428       0x20 ../RawaPro_Linux_Cache_bsp//libhal_bsp.a(alt_getpid.o)
                0x00012428                getpid
 .text          0x00012448      0x1d4 ../RawaPro_Linux_Cache_bsp//libhal_bsp.a(alt_iic.o)
                0x00012448                alt_ic_isr_register
                0x00012498                alt_ic_irq_enable
                0x00012534                alt_ic_irq_disable
                0x000125d4                alt_ic_irq_enabled
 .text          0x0001261c       0xf8 ../RawaPro_Linux_Cache_bsp//libhal_bsp.a(alt_iic_isr_register.o)
                0x0001261c                alt_iic_isr_register
 .text          0x00012714        0x0 ../RawaPro_Linux_Cache_bsp//libhal_bsp.a(alt_irq_entry.o)
 .text          0x00012714        0x0 ../RawaPro_Linux_Cache_bsp//libhal_bsp.a(alt_irq_handler.o)
 .text          0x00012714        0x0 ../RawaPro_Linux_Cache_bsp//libhal_bsp.a(alt_irq_vars.o)
 .text          0x00012714      0x120 ../RawaPro_Linux_Cache_bsp//libhal_bsp.a(alt_isatty.o)
                0x00012714                isatty
 .text          0x00012834      0x1a0 ../RawaPro_Linux_Cache_bsp//libhal_bsp.a(alt_kill.o)
                0x00012834                kill
 .text          0x000129d4       0xec ../RawaPro_Linux_Cache_bsp//libhal_bsp.a(alt_load.o)
                0x000129d4                alt_load
 .text          0x00012ac0      0x150 ../RawaPro_Linux_Cache_bsp//libhal_bsp.a(alt_lseek.o)
                0x00012ac0                lseek
 .text          0x00012c10       0x6c ../RawaPro_Linux_Cache_bsp//libhal_bsp.a(alt_main.o)
                0x00012c10                alt_main
 .text          0x00012c7c       0x40 ../RawaPro_Linux_Cache_bsp//libhal_bsp.a(alt_malloc_lock.o)
                0x00012c7c                __malloc_lock
                0x00012c9c                __malloc_unlock
 .text          0x00012cbc      0x180 ../RawaPro_Linux_Cache_bsp//libhal_bsp.a(alt_read.o)
                0x00012cbc                read
 .text          0x00012e3c       0x60 ../RawaPro_Linux_Cache_bsp//libhal_bsp.a(alt_release_fd.o)
                0x00012e3c                alt_release_fd
 .text          0x00012e9c       0x40 ../RawaPro_Linux_Cache_bsp//libhal_bsp.a(alt_remap_uncached.o)
                0x00012e9c                alt_remap_uncached
 .text          0x00012edc       0xbc ../RawaPro_Linux_Cache_bsp//libhal_bsp.a(alt_sbrk.o)
                0x00012edc                sbrk
 .text          0x00012f98      0x1a4 ../RawaPro_Linux_Cache_bsp//libhal_bsp.a(alt_tick.o)
                0x00012f98                alt_alarm_stop
                0x00013030                alt_tick
 .text          0x0001313c       0x64 ../RawaPro_Linux_Cache_bsp//libhal_bsp.a(alt_uncached_malloc.o)
                0x0001313c                alt_uncached_malloc
 .text          0x000131a0       0x30 ../RawaPro_Linux_Cache_bsp//libhal_bsp.a(alt_usleep.o)
                0x000131a0                usleep
 .text          0x000131d0      0x180 ../RawaPro_Linux_Cache_bsp//libhal_bsp.a(alt_write.o)
                0x000131d0                write
 .text          0x00013350       0xdc ../RawaPro_Linux_Cache_bsp//libhal_bsp.a(alt_sys_init.o)
                0x00013350                alt_irq_init
                0x00013384                alt_sys_init
 .text          0x0001342c      0x148 ../RawaPro_Linux_Cache_bsp//libhal_bsp.a(altera_avalon_jtag_uart_fd.o)
                0x0001342c                altera_avalon_jtag_uart_read_fd
                0x00013484                altera_avalon_jtag_uart_write_fd
                0x000134dc                altera_avalon_jtag_uart_close_fd
                0x00013524                altera_avalon_jtag_uart_ioctl_fd
 .text          0x00013574      0x40c ../RawaPro_Linux_Cache_bsp//libhal_bsp.a(altera_avalon_jtag_uart_init.o)
                0x00013574                altera_avalon_jtag_uart_init
                0x0001390c                altera_avalon_jtag_uart_close
 .text          0x00013980       0xf4 ../RawaPro_Linux_Cache_bsp//libhal_bsp.a(altera_avalon_jtag_uart_ioctl.o)
                0x00013980                altera_avalon_jtag_uart_ioctl
 .text          0x00013a74      0x224 ../RawaPro_Linux_Cache_bsp//libhal_bsp.a(altera_avalon_jtag_uart_read.o)
                0x00013a74                altera_avalon_jtag_uart_read
 .text          0x00013c98      0x240 ../RawaPro_Linux_Cache_bsp//libhal_bsp.a(altera_avalon_jtag_uart_write.o)
                0x00013c98                altera_avalon_jtag_uart_write
 .text          0x00013ed8      0x188 ../RawaPro_Linux_Cache_bsp//libhal_bsp.a(altera_avalon_performance_counter.o)
                0x00013ed8                perf_get_section_time
                0x00013f88                perf_get_total_time
                0x00013fdc                perf_get_num_starts
                0x0001401c                alt_get_performance_counter_base
                0x0001403c                alt_get_cpu_freq
 .text          0x00014060      0x100 ../RawaPro_Linux_Cache_bsp//libhal_bsp.a(altera_avalon_timer_sc.o)
                0x000140d0                alt_avalon_timer_sc_init
 .text          0x00014160      0x154 ../RawaPro_Linux_Cache_bsp//libhal_bsp.a(alt_alarm_start.o)
                0x00014160                alt_alarm_start
 .text          0x000142b4      0x14c ../RawaPro_Linux_Cache_bsp//libhal_bsp.a(alt_busy_sleep.o)
                0x000142b4                alt_busy_sleep
 .text          0x00014400       0x78 ../RawaPro_Linux_Cache_bsp//libhal_bsp.a(alt_dcache_flush.o)
                0x00014400                alt_dcache_flush
 .text          0x00014478       0x44 ../RawaPro_Linux_Cache_bsp//libhal_bsp.a(alt_dcache_flush_all.o)
                0x00014478                alt_dcache_flush_all
 .text          0x000144bc      0x114 ../RawaPro_Linux_Cache_bsp//libhal_bsp.a(alt_dev_llist_insert.o)
                0x000144bc                alt_dev_llist_insert
 .text          0x000145d0       0x64 ../RawaPro_Linux_Cache_bsp//libhal_bsp.a(alt_do_ctors.o)
                0x000145d0                _do_ctors
 .text          0x00014634       0x64 ../RawaPro_Linux_Cache_bsp//libhal_bsp.a(alt_do_dtors.o)
                0x00014634                _do_dtors
 .text          0x00014698        0x0 ../RawaPro_Linux_Cache_bsp//libhal_bsp.a(alt_exception_entry.o)
 .text          0x00014698       0x30 ../RawaPro_Linux_Cache_bsp//libhal_bsp.a(alt_icache_flush_all.o)
                0x00014698                alt_icache_flush_all
 .text          0x000146c8      0x13c ../RawaPro_Linux_Cache_bsp//libhal_bsp.a(alt_io_redirect.o)
                0x0001478c                alt_io_redirect
 .text          0x00014804      0x2c4 ../RawaPro_Linux_Cache_bsp//libhal_bsp.a(alt_open.o)
                0x000148e0                open
 .text          0x00014ac8       0x20 ../RawaPro_Linux_Cache_bsp//libhal_bsp.a(altera_nios2_qsys_irq.o)
                0x00014ac8                altera_nios2_qsys_irq_init
 .text          0x00014ae8       0x94 ../RawaPro_Linux_Cache_bsp//libhal_bsp.a(alt_find_dev.o)
                0x00014ae8                alt_find_dev
 .text          0x00014b7c      0x120 ../RawaPro_Linux_Cache_bsp//libhal_bsp.a(alt_find_file.o)
                0x00014b7c                alt_find_file
 .text          0x00014c9c       0xb8 ../RawaPro_Linux_Cache_bsp//libhal_bsp.a(alt_get_fd.o)
                0x00014c9c                alt_get_fd
 .text          0x00014d54       0x90 ../RawaPro_Linux_Cache_bsp//libhal_bsp.a(alt_icache_flush.o)
                0x00014d54                alt_icache_flush
 .text          0x00014de4       0x14 /home/lordrafa/altera/12.1sp1/nios2eds/bin/gnu/H-i686-pc-linux-gnu/bin/../lib/gcc/nios2-elf/4.1.2/../../../../nios2-elf/lib/libc.a(lib_a-atexit.o)
                0x00014de4                atexit
 .text          0x00014df8       0x38 /home/lordrafa/altera/12.1sp1/nios2eds/bin/gnu/H-i686-pc-linux-gnu/bin/../lib/gcc/nios2-elf/4.1.2/../../../../nios2-elf/lib/libc.a(lib_a-exit.o)
                0x00014df8                exit
 .text          0x00014e30       0x74 /home/lordrafa/altera/12.1sp1/nios2eds/bin/gnu/H-i686-pc-linux-gnu/bin/../lib/gcc/nios2-elf/4.1.2/../../../../nios2-elf/lib/libc.a(lib_a-memcmp.o)
                0x00014e30                memcmp
 .text          0x00014ea4      0x134 /home/lordrafa/altera/12.1sp1/nios2eds/bin/gnu/H-i686-pc-linux-gnu/bin/../lib/gcc/nios2-elf/4.1.2/../../../../nios2-elf/lib/libc.a(lib_a-__atexit.o)
                0x00014ea4                __register_exitproc
 .text          0x00014fd8      0x1b4 /home/lordrafa/altera/12.1sp1/nios2eds/bin/gnu/H-i686-pc-linux-gnu/bin/../lib/gcc/nios2-elf/4.1.2/../../../../nios2-elf/lib/libc.a(lib_a-__call_atexit.o)
                0x00014fdc                __call_exitprocs
 *(.gnu.warning.*)
 *(.fini)
                0x0001518c                PROVIDE (__etext, ABSOLUTE (.))
                0x0001518c                PROVIDE (_etext, ABSOLUTE (.))
                0x0001518c                PROVIDE (etext, ABSOLUTE (.))
 *(.eh_frame_hdr)
                0x0001518c                . = ALIGN (0x4)
                0x0001518c                PROVIDE (__preinit_array_start, ABSOLUTE (.))
 *(.preinit_array)
                0x0001518c                PROVIDE (__preinit_array_end, ABSOLUTE (.))
                0x0001518c                PROVIDE (__init_array_start, ABSOLUTE (.))
 *(.init_array)
                0x0001518c                PROVIDE (__init_array_end, ABSOLUTE (.))
                0x0001518c                PROVIDE (__fini_array_start, ABSOLUTE (.))
 *(.fini_array)
                0x0001518c                PROVIDE (__fini_array_end, ABSOLUTE (.))
 *(.eh_frame)
 *(.gcc_except_table)
 .gcc_except_table
                0x0001518c        0x6 obj/default/framereader/vip_wrapper_for_c_func.o
 *fill*         0x00015192        0x2 3a880100
 .gcc_except_table
                0x00015194       0x20 /home/lordrafa/altera/12.1sp1/nios2eds/bin/gnu/H-i686-pc-linux-gnu/bin/../lib/gcc/nios2-elf/4.1.2/../../../../nios2-elf/lib/libstdc++.a(eh_personality.o)
 .gcc_except_table
                0x000151b4       0x10 /home/lordrafa/altera/12.1sp1/nios2eds/bin/gnu/H-i686-pc-linux-gnu/bin/../lib/gcc/nios2-elf/4.1.2/../../../../nios2-elf/lib/libstdc++.a(eh_terminate.o)
 .gcc_except_table
                0x000151c4       0x10 /home/lordrafa/altera/12.1sp1/nios2eds/bin/gnu/H-i686-pc-linux-gnu/bin/../lib/gcc/nios2-elf/4.1.2/../../../../nios2-elf/lib/libstdc++.a(eh_catch.o)
 .gcc_except_table
                0x000151d4       0x10 /home/lordrafa/altera/12.1sp1/nios2eds/bin/gnu/H-i686-pc-linux-gnu/bin/../lib/gcc/nios2-elf/4.1.2/../../../../nios2-elf/lib/libstdc++.a(eh_alloc.o)
 .gcc_except_table
                0x000151e4       0x14 /home/lordrafa/altera/12.1sp1/nios2eds/bin/gnu/H-i686-pc-linux-gnu/bin/../lib/gcc/nios2-elf/4.1.2/../../../../nios2-elf/lib/libstdc++.a(new_op.o)
 *(.dynamic)
                0x000151f8                PROVIDE (__CTOR_LIST__, ABSOLUTE (.))
 *(.ctors)
 *(SORT(.ctors.*))
 .ctors.65535   0x000151f8        0x4 /home/lordrafa/altera/12.1sp1/nios2eds/bin/gnu/H-i686-pc-linux-gnu/bin/../lib/gcc/nios2-elf/4.1.2/../../../../nios2-elf/lib/libc.a(lib_a-__call_atexit.o)
                0x000151fc                PROVIDE (__CTOR_END__, ABSOLUTE (.))
                0x000151fc                PROVIDE (__DTOR_LIST__, ABSOLUTE (.))
 *(.dtors)
 *(SORT(.dtors.*))
                0x000151fc                PROVIDE (__DTOR_END__, ABSOLUTE (.))
 *(.jcr)
                0x000151fc                . = ALIGN (0x4)

.rodata         0x000151fc    0x1a590
                0x000151fc                PROVIDE (__ram_rodata_start, ABSOLUTE (.))
                0x000151fc                . = ALIGN (0x4)
 *(.rodata .rodata.* .gnu.linkonce.r.*)
 .rodata        0x000151fc      0x108 obj/default/alt_tpo_lcd/alt_tpo_lcd.o
 .rodata        0x00015304       0xa8 obj/default/audio_tvdecoder/i2c.o
 .rodata        0x000153ac     0x77f2 obj/default/fonts/tahomabold_20.o
 .rodata        0x0001cb9e    0x12520 obj/default/fonts/tahomabold_32.o
 *fill*         0x0002f0be        0x2 00
 .rodata        0x0002f0c0       0x90 obj/default/keyhandler/keyhandler.o
 .rodata        0x0002f150      0x18c obj/default/main.o
 .rodata._ZTVSt13bad_exception
                0x0002f2dc       0x14 /home/lordrafa/altera/12.1sp1/nios2eds/bin/gnu/H-i686-pc-linux-gnu/bin/../lib/gcc/nios2-elf/4.1.2/../../../../nios2-elf/lib/libstdc++.a(eh_exception.o)
                0x0002f2dc                _ZTVSt13bad_exception
 .rodata._ZTVSt9exception
                0x0002f2f0       0x14 /home/lordrafa/altera/12.1sp1/nios2eds/bin/gnu/H-i686-pc-linux-gnu/bin/../lib/gcc/nios2-elf/4.1.2/../../../../nios2-elf/lib/libstdc++.a(eh_exception.o)
                0x0002f2f0                _ZTVSt9exception
 .rodata._ZTSSt13bad_exception
                0x0002f304       0x14 /home/lordrafa/altera/12.1sp1/nios2eds/bin/gnu/H-i686-pc-linux-gnu/bin/../lib/gcc/nios2-elf/4.1.2/../../../../nios2-elf/lib/libstdc++.a(eh_exception.o)
                0x0002f304                _ZTSSt13bad_exception
 .rodata._ZTISt13bad_exception
                0x0002f318        0xc /home/lordrafa/altera/12.1sp1/nios2eds/bin/gnu/H-i686-pc-linux-gnu/bin/../lib/gcc/nios2-elf/4.1.2/../../../../nios2-elf/lib/libstdc++.a(eh_exception.o)
                0x0002f318                _ZTISt13bad_exception
 .rodata._ZTSSt9exception
                0x0002f324       0x10 /home/lordrafa/altera/12.1sp1/nios2eds/bin/gnu/H-i686-pc-linux-gnu/bin/../lib/gcc/nios2-elf/4.1.2/../../../../nios2-elf/lib/libstdc++.a(eh_exception.o)
                0x0002f324                _ZTSSt9exception
 .rodata._ZTVSt9bad_alloc
                0x0002f334       0x14 /home/lordrafa/altera/12.1sp1/nios2eds/bin/gnu/H-i686-pc-linux-gnu/bin/../lib/gcc/nios2-elf/4.1.2/../../../../nios2-elf/lib/libstdc++.a(new_handler.o)
                0x0002f334                _ZTVSt9bad_alloc
 .rodata._ZTSSt9bad_alloc
                0x0002f348       0x10 /home/lordrafa/altera/12.1sp1/nios2eds/bin/gnu/H-i686-pc-linux-gnu/bin/../lib/gcc/nios2-elf/4.1.2/../../../../nios2-elf/lib/libstdc++.a(new_handler.o)
                0x0002f348                _ZTSSt9bad_alloc
 .rodata._ZTISt9bad_alloc
                0x0002f358        0xc /home/lordrafa/altera/12.1sp1/nios2eds/bin/gnu/H-i686-pc-linux-gnu/bin/../lib/gcc/nios2-elf/4.1.2/../../../../nios2-elf/lib/libstdc++.a(new_handler.o)
                0x0002f358                _ZTISt9bad_alloc
 .rodata._ZTVN10__cxxabiv117__class_type_infoE
                0x0002f364       0x2c /home/lordrafa/altera/12.1sp1/nios2eds/bin/gnu/H-i686-pc-linux-gnu/bin/../lib/gcc/nios2-elf/4.1.2/../../../../nios2-elf/lib/libstdc++.a(class_type_info.o)
                0x0002f364                _ZTVN10__cxxabiv117__class_type_infoE
 .rodata._ZTSN10__cxxabiv117__class_type_infoE
                0x0002f390       0x24 /home/lordrafa/altera/12.1sp1/nios2eds/bin/gnu/H-i686-pc-linux-gnu/bin/../lib/gcc/nios2-elf/4.1.2/../../../../nios2-elf/lib/libstdc++.a(class_type_info.o)
                0x0002f390                _ZTSN10__cxxabiv117__class_type_infoE
 .rodata._ZTIN10__cxxabiv117__class_type_infoE
                0x0002f3b4        0xc /home/lordrafa/altera/12.1sp1/nios2eds/bin/gnu/H-i686-pc-linux-gnu/bin/../lib/gcc/nios2-elf/4.1.2/../../../../nios2-elf/lib/libstdc++.a(class_type_info.o)
                0x0002f3b4                _ZTIN10__cxxabiv117__class_type_infoE
 .rodata._ZTVN10__cxxabiv120__si_class_type_infoE
                0x0002f3c0       0x2c /home/lordrafa/altera/12.1sp1/nios2eds/bin/gnu/H-i686-pc-linux-gnu/bin/../lib/gcc/nios2-elf/4.1.2/../../../../nios2-elf/lib/libstdc++.a(si_class_type_info.o)
                0x0002f3c0                _ZTVN10__cxxabiv120__si_class_type_infoE
 .rodata._ZTSN10__cxxabiv120__si_class_type_infoE
                0x0002f3ec       0x28 /home/lordrafa/altera/12.1sp1/nios2eds/bin/gnu/H-i686-pc-linux-gnu/bin/../lib/gcc/nios2-elf/4.1.2/../../../../nios2-elf/lib/libstdc++.a(si_class_type_info.o)
                0x0002f3ec                _ZTSN10__cxxabiv120__si_class_type_infoE
 .rodata._ZTIN10__cxxabiv120__si_class_type_infoE
                0x0002f414        0xc /home/lordrafa/altera/12.1sp1/nios2eds/bin/gnu/H-i686-pc-linux-gnu/bin/../lib/gcc/nios2-elf/4.1.2/../../../../nios2-elf/lib/libstdc++.a(si_class_type_info.o)
                0x0002f414                _ZTIN10__cxxabiv120__si_class_type_infoE
 .rodata._ZTVSt9type_info
                0x0002f420       0x20 /home/lordrafa/altera/12.1sp1/nios2eds/bin/gnu/H-i686-pc-linux-gnu/bin/../lib/gcc/nios2-elf/4.1.2/../../../../nios2-elf/lib/libstdc++.a(tinfo.o)
                0x0002f420                _ZTVSt9type_info
 .rodata._ZTSSt9type_info
                0x0002f440       0x10 /home/lordrafa/altera/12.1sp1/nios2eds/bin/gnu/H-i686-pc-linux-gnu/bin/../lib/gcc/nios2-elf/4.1.2/../../../../nios2-elf/lib/libstdc++.a(tinfo.o)
                0x0002f440                _ZTSSt9type_info
 .rodata.str1.4
                0x0002f450        0x2 /home/lordrafa/altera/12.1sp1/nios2eds/bin/gnu/H-i686-pc-linux-gnu/bin/../lib/gcc/nios2-elf/4.1.2/../../../../nios2-elf/lib/libc.a(lib_a-puts.o)
                                  0x4 (size before relaxing)
 *fill*         0x0002f452        0x2 00
 .rodata.str1.4
                0x0002f454       0x5e /home/lordrafa/altera/12.1sp1/nios2eds/bin/gnu/H-i686-pc-linux-gnu/bin/../lib/gcc/nios2-elf/4.1.2/../../../../nios2-elf/lib/libc.a(lib_a-vfprintf.o)
                                 0x60 (size before relaxing)
 .rodata        0x0002f4b2       0x20 /home/lordrafa/altera/12.1sp1/nios2eds/bin/gnu/H-i686-pc-linux-gnu/bin/../lib/gcc/nios2-elf/4.1.2/../../../../nios2-elf/lib/libc.a(lib_a-vfprintf.o)
 *fill*         0x0002f4d2        0x2 00
 .rodata.str1.4
                0x0002f4d4       0x10 /home/lordrafa/altera/12.1sp1/nios2eds/bin/gnu/H-i686-pc-linux-gnu/bin/../lib/gcc/nios2-elf/4.1.2/../../../../nios2-elf/lib/libc.a(lib_a-dtoa.o)
                                 0x14 (size before relaxing)
 .rodata.str1.4
                0x0002f4e4        0x2 /home/lordrafa/altera/12.1sp1/nios2eds/bin/gnu/H-i686-pc-linux-gnu/bin/../lib/gcc/nios2-elf/4.1.2/../../../../nios2-elf/lib/libc.a(lib_a-impure.o)
                                  0x4 (size before relaxing)
 *fill*         0x0002f4e6        0x2 00
 .rodata.str1.4
                0x0002f4e8       0x10 /home/lordrafa/altera/12.1sp1/nios2eds/bin/gnu/H-i686-pc-linux-gnu/bin/../lib/gcc/nios2-elf/4.1.2/../../../../nios2-elf/lib/libc.a(lib_a-locale.o)
                                 0x18 (size before relaxing)
 .rodata        0x0002f4f8       0x30 /home/lordrafa/altera/12.1sp1/nios2eds/bin/gnu/H-i686-pc-linux-gnu/bin/../lib/gcc/nios2-elf/4.1.2/../../../../nios2-elf/lib/libc.a(lib_a-locale.o)
 .rodata        0x0002f528      0x124 /home/lordrafa/altera/12.1sp1/nios2eds/bin/gnu/H-i686-pc-linux-gnu/bin/../lib/gcc/nios2-elf/4.1.2/../../../../nios2-elf/lib/libc.a(lib_a-mprec.o)
                0x0002f528                __mprec_tens
                0x0002f5f0                __mprec_bigtens
                0x0002f618                __mprec_tinytens
 .rodata        0x0002f64c       0x14 /home/lordrafa/altera/12.1sp1/nios2eds/bin/gnu/H-i686-pc-linux-gnu/bin/../lib/gcc/nios2-elf/4.1.2/libgcc.a(_thenan_df.o)
                0x0002f64c                __thenan_df
 .rodata        0x0002f660      0x100 /home/lordrafa/altera/12.1sp1/nios2eds/bin/gnu/H-i686-pc-linux-gnu/bin/../lib/gcc/nios2-elf/4.1.2/libgcc.a(_clz.o)
                0x0002f660                __clz_tab
 .rodata        0x0002f760        0xc ../RawaPro_Linux_Cache_bsp//libhal_bsp.a(alt_dev.o)
 .rodata        0x0002f76c       0x10 ../RawaPro_Linux_Cache_bsp//libhal_bsp.a(alt_main.o)
 .rodata        0x0002f77c       0x10 ../RawaPro_Linux_Cache_bsp//libhal_bsp.a(alt_sys_init.o)
 *(.rodata1)
                0x0002f78c                . = ALIGN (0x4)
                0x0002f78c                PROVIDE (__ram_rodata_end, ABSOLUTE (.))
                0x000151fc                PROVIDE (__flash_rodata_start, LOADADDR (.rodata))

.rwdata         0x0002f78c     0x3630 load address 0x00032dbc
                0x0002f78c                PROVIDE (__ram_rwdata_start, ABSOLUTE (.))
                0x0002f78c                . = ALIGN (0x4)
 *(.got.plt)
 *(.got)
 *(.data1)
 *(.data .data.* .gnu.linkonce.d.*)
 .data          0x0002f78c        0x0 ../RawaPro_Linux_Cache_bsp//obj/HAL/src/crt0.o
 .data          0x0002f78c        0x0 obj/default/alt_tpo_lcd/alt_tpo_lcd.o
 .data          0x0002f78c        0x0 obj/default/alt_video_display/alt_video_display.o
 .data          0x0002f78c        0x0 obj/default/audio_tvdecoder/i2c.o
 .data          0x0002f78c       0x18 obj/default/audio_tvdecoder/tvdecoder_ctrl.o
 .data          0x0002f7a4      0xbc0 obj/default/fonts/tahomabold_20.o
                0x0002f7a4                tahomabold_20
 .data          0x00030364      0xbc0 obj/default/fonts/tahomabold_32.o
                0x00030364                tahomabold_32
 .data          0x00030f24      0x415 obj/default/graphics_lib/simple_graphics.o
                0x00030f24                cour10_font_array
 .data          0x00031339        0x0 obj/default/graphics_lib/simple_text.o
 .data          0x00031339        0x0 obj/default/keyhandler/keyhandler.o
 .data          0x00031339        0x0 obj/default/main.o
 .data          0x00031339        0x0 obj/default/sfs/sfs.o
 .data          0x00031339        0x0 obj/default/framereader/vip_wrapper_for_c_func.o
 .data          0x00031339        0x0 /home/lordrafa/altera/12.1sp1/nios2eds/bin/gnu/H-i686-pc-linux-gnu/bin/../lib/gcc/nios2-elf/4.1.2/../../../../nios2-elf/lib/libstdc++.a(eh_personality.o)
 .data          0x00031339        0x0 /home/lordrafa/altera/12.1sp1/nios2eds/bin/gnu/H-i686-pc-linux-gnu/bin/../lib/gcc/nios2-elf/4.1.2/../../../../nios2-elf/lib/libstdc++.a(eh_terminate.o)
 .data          0x00031339        0x0 /home/lordrafa/altera/12.1sp1/nios2eds/bin/gnu/H-i686-pc-linux-gnu/bin/../lib/gcc/nios2-elf/4.1.2/../../../../nios2-elf/lib/libstdc++.a(eh_term_handler.o)
 .data          0x00031339        0x0 /home/lordrafa/altera/12.1sp1/nios2eds/bin/gnu/H-i686-pc-linux-gnu/bin/../lib/gcc/nios2-elf/4.1.2/../../../../nios2-elf/lib/libstdc++.a(eh_catch.o)
 .data          0x00031339        0x0 /home/lordrafa/altera/12.1sp1/nios2eds/bin/gnu/H-i686-pc-linux-gnu/bin/../lib/gcc/nios2-elf/4.1.2/../../../../nios2-elf/lib/libstdc++.a(del_op.o)
 .data          0x00031339        0x0 /home/lordrafa/altera/12.1sp1/nios2eds/bin/gnu/H-i686-pc-linux-gnu/bin/../lib/gcc/nios2-elf/4.1.2/../../../../nios2-elf/lib/libstdc++.a(eh_throw.o)
 .data          0x00031339        0x0 /home/lordrafa/altera/12.1sp1/nios2eds/bin/gnu/H-i686-pc-linux-gnu/bin/../lib/gcc/nios2-elf/4.1.2/../../../../nios2-elf/lib/libstdc++.a(eh_alloc.o)
 .data          0x00031339        0x0 /home/lordrafa/altera/12.1sp1/nios2eds/bin/gnu/H-i686-pc-linux-gnu/bin/../lib/gcc/nios2-elf/4.1.2/../../../../nios2-elf/lib/libstdc++.a(new_op.o)
 .data          0x00031339        0x0 /home/lordrafa/altera/12.1sp1/nios2eds/bin/gnu/H-i686-pc-linux-gnu/bin/../lib/gcc/nios2-elf/4.1.2/../../../../nios2-elf/lib/libstdc++.a(eh_exception.o)
 .data          0x00031339        0x0 /home/lordrafa/altera/12.1sp1/nios2eds/bin/gnu/H-i686-pc-linux-gnu/bin/../lib/gcc/nios2-elf/4.1.2/../../../../nios2-elf/lib/libstdc++.a(eh_call.o)
 .data          0x00031339        0x0 /home/lordrafa/altera/12.1sp1/nios2eds/bin/gnu/H-i686-pc-linux-gnu/bin/../lib/gcc/nios2-elf/4.1.2/../../../../nios2-elf/lib/libstdc++.a(new_handler.o)
 .data          0x00031339        0x0 /home/lordrafa/altera/12.1sp1/nios2eds/bin/gnu/H-i686-pc-linux-gnu/bin/../lib/gcc/nios2-elf/4.1.2/../../../../nios2-elf/lib/libstdc++.a(eh_globals.o)
 .data          0x00031339        0x0 /home/lordrafa/altera/12.1sp1/nios2eds/bin/gnu/H-i686-pc-linux-gnu/bin/../lib/gcc/nios2-elf/4.1.2/../../../../nios2-elf/lib/libstdc++.a(class_type_info.o)
 .data          0x00031339        0x0 /home/lordrafa/altera/12.1sp1/nios2eds/bin/gnu/H-i686-pc-linux-gnu/bin/../lib/gcc/nios2-elf/4.1.2/../../../../nios2-elf/lib/libstdc++.a(eh_unex_handler.o)
 .data          0x00031339        0x0 /home/lordrafa/altera/12.1sp1/nios2eds/bin/gnu/H-i686-pc-linux-gnu/bin/../lib/gcc/nios2-elf/4.1.2/../../../../nios2-elf/lib/libstdc++.a(si_class_type_info.o)
 .data          0x00031339        0x0 /home/lordrafa/altera/12.1sp1/nios2eds/bin/gnu/H-i686-pc-linux-gnu/bin/../lib/gcc/nios2-elf/4.1.2/../../../../nios2-elf/lib/libstdc++.a(tinfo.o)
 .data          0x00031339        0x0 /home/lordrafa/altera/12.1sp1/nios2eds/bin/gnu/H-i686-pc-linux-gnu/bin/../lib/gcc/nios2-elf/4.1.2/libgcc.a(lib2-divmod.o)
 .data          0x00031339        0x0 /home/lordrafa/altera/12.1sp1/nios2eds/bin/gnu/H-i686-pc-linux-gnu/bin/../lib/gcc/nios2-elf/4.1.2/libgcc.a(unwind-sjlj.o)
 .data          0x00031339        0x0 /home/lordrafa/altera/12.1sp1/nios2eds/bin/gnu/H-i686-pc-linux-gnu/bin/../lib/gcc/nios2-elf/4.1.2/../../../../nios2-elf/lib/libc.a(lib_a-abort.o)
 .data          0x00031339        0x0 /home/lordrafa/altera/12.1sp1/nios2eds/bin/gnu/H-i686-pc-linux-gnu/bin/../lib/gcc/nios2-elf/4.1.2/../../../../nios2-elf/lib/libc.a(lib_a-malloc.o)
 *fill*         0x00031339        0x3 00
 .data          0x0003133c      0x408 /home/lordrafa/altera/12.1sp1/nios2eds/bin/gnu/H-i686-pc-linux-gnu/bin/../lib/gcc/nios2-elf/4.1.2/../../../../nios2-elf/lib/libc.a(lib_a-mallocr.o)
                0x0003133c                __malloc_av_
 .data          0x00031744        0x0 /home/lordrafa/altera/12.1sp1/nios2eds/bin/gnu/H-i686-pc-linux-gnu/bin/../lib/gcc/nios2-elf/4.1.2/../../../../nios2-elf/lib/libc.a(lib_a-memcpy.o)
 .data          0x00031744        0x0 /home/lordrafa/altera/12.1sp1/nios2eds/bin/gnu/H-i686-pc-linux-gnu/bin/../lib/gcc/nios2-elf/4.1.2/../../../../nios2-elf/lib/libc.a(lib_a-memset.o)
 .data          0x00031744        0x0 /home/lordrafa/altera/12.1sp1/nios2eds/bin/gnu/H-i686-pc-linux-gnu/bin/../lib/gcc/nios2-elf/4.1.2/../../../../nios2-elf/lib/libc.a(lib_a-printf.o)
 .data          0x00031744        0x0 /home/lordrafa/altera/12.1sp1/nios2eds/bin/gnu/H-i686-pc-linux-gnu/bin/../lib/gcc/nios2-elf/4.1.2/../../../../nios2-elf/lib/libc.a(lib_a-puts.o)
 .data          0x00031744        0x0 /home/lordrafa/altera/12.1sp1/nios2eds/bin/gnu/H-i686-pc-linux-gnu/bin/../lib/gcc/nios2-elf/4.1.2/../../../../nios2-elf/lib/libc.a(lib_a-sbrkr.o)
 .data          0x00031744        0x0 /home/lordrafa/altera/12.1sp1/nios2eds/bin/gnu/H-i686-pc-linux-gnu/bin/../lib/gcc/nios2-elf/4.1.2/../../../../nios2-elf/lib/libc.a(lib_a-signal.o)
 .data          0x00031744        0x0 /home/lordrafa/altera/12.1sp1/nios2eds/bin/gnu/H-i686-pc-linux-gnu/bin/../lib/gcc/nios2-elf/4.1.2/../../../../nios2-elf/lib/libc.a(lib_a-signalr.o)
 .data          0x00031744        0x0 /home/lordrafa/altera/12.1sp1/nios2eds/bin/gnu/H-i686-pc-linux-gnu/bin/../lib/gcc/nios2-elf/4.1.2/../../../../nios2-elf/lib/libc.a(lib_a-snprintf.o)
 .data          0x00031744        0x0 /home/lordrafa/altera/12.1sp1/nios2eds/bin/gnu/H-i686-pc-linux-gnu/bin/../lib/gcc/nios2-elf/4.1.2/../../../../nios2-elf/lib/libc.a(lib_a-strcpy.o)
 .data          0x00031744        0x0 /home/lordrafa/altera/12.1sp1/nios2eds/bin/gnu/H-i686-pc-linux-gnu/bin/../lib/gcc/nios2-elf/4.1.2/../../../../nios2-elf/lib/libc.a(lib_a-strlen.o)
 .data          0x00031744        0x0 /home/lordrafa/altera/12.1sp1/nios2eds/bin/gnu/H-i686-pc-linux-gnu/bin/../lib/gcc/nios2-elf/4.1.2/../../../../nios2-elf/lib/libc.a(lib_a-vfprintf.o)
 .data          0x00031744        0x0 /home/lordrafa/altera/12.1sp1/nios2eds/bin/gnu/H-i686-pc-linux-gnu/bin/../lib/gcc/nios2-elf/4.1.2/../../../../nios2-elf/lib/libc.a(lib_a-wsetup.o)
 .data          0x00031744        0x0 /home/lordrafa/altera/12.1sp1/nios2eds/bin/gnu/H-i686-pc-linux-gnu/bin/../lib/gcc/nios2-elf/4.1.2/../../../../nios2-elf/lib/libc.a(lib_a-dtoa.o)
 .data          0x00031744        0x0 /home/lordrafa/altera/12.1sp1/nios2eds/bin/gnu/H-i686-pc-linux-gnu/bin/../lib/gcc/nios2-elf/4.1.2/../../../../nios2-elf/lib/libc.a(lib_a-fflush.o)
 .data          0x00031744        0x0 /home/lordrafa/altera/12.1sp1/nios2eds/bin/gnu/H-i686-pc-linux-gnu/bin/../lib/gcc/nios2-elf/4.1.2/../../../../nios2-elf/lib/libc.a(lib_a-findfp.o)
 .data          0x00031744        0x0 /home/lordrafa/altera/12.1sp1/nios2eds/bin/gnu/H-i686-pc-linux-gnu/bin/../lib/gcc/nios2-elf/4.1.2/../../../../nios2-elf/lib/libc.a(lib_a-freer.o)
 .data          0x00031744        0x0 /home/lordrafa/altera/12.1sp1/nios2eds/bin/gnu/H-i686-pc-linux-gnu/bin/../lib/gcc/nios2-elf/4.1.2/../../../../nios2-elf/lib/libc.a(lib_a-fvwrite.o)
 .data          0x00031744        0x0 /home/lordrafa/altera/12.1sp1/nios2eds/bin/gnu/H-i686-pc-linux-gnu/bin/../lib/gcc/nios2-elf/4.1.2/../../../../nios2-elf/lib/libc.a(lib_a-fwalk.o)
 .data          0x00031744      0x400 /home/lordrafa/altera/12.1sp1/nios2eds/bin/gnu/H-i686-pc-linux-gnu/bin/../lib/gcc/nios2-elf/4.1.2/../../../../nios2-elf/lib/libc.a(lib_a-impure.o)
 .data          0x00031b44        0x0 /home/lordrafa/altera/12.1sp1/nios2eds/bin/gnu/H-i686-pc-linux-gnu/bin/../lib/gcc/nios2-elf/4.1.2/../../../../nios2-elf/lib/libc.a(lib_a-int_errno.o)
 .data          0x00031b44        0xc /home/lordrafa/altera/12.1sp1/nios2eds/bin/gnu/H-i686-pc-linux-gnu/bin/../lib/gcc/nios2-elf/4.1.2/../../../../nios2-elf/lib/libc.a(lib_a-locale.o)
                0x00031b44                __lc_ctype
 .data          0x00031b50        0x0 /home/lordrafa/altera/12.1sp1/nios2eds/bin/gnu/H-i686-pc-linux-gnu/bin/../lib/gcc/nios2-elf/4.1.2/../../../../nios2-elf/lib/libc.a(lib_a-makebuf.o)
 .data          0x00031b50        0x0 /home/lordrafa/altera/12.1sp1/nios2eds/bin/gnu/H-i686-pc-linux-gnu/bin/../lib/gcc/nios2-elf/4.1.2/../../../../nios2-elf/lib/libc.a(lib_a-memchr.o)
 .data          0x00031b50        0x0 /home/lordrafa/altera/12.1sp1/nios2eds/bin/gnu/H-i686-pc-linux-gnu/bin/../lib/gcc/nios2-elf/4.1.2/../../../../nios2-elf/lib/libc.a(lib_a-memmove.o)
 .data          0x00031b50        0x0 /home/lordrafa/altera/12.1sp1/nios2eds/bin/gnu/H-i686-pc-linux-gnu/bin/../lib/gcc/nios2-elf/4.1.2/../../../../nios2-elf/lib/libc.a(lib_a-mprec.o)
 .data          0x00031b50        0x0 /home/lordrafa/altera/12.1sp1/nios2eds/bin/gnu/H-i686-pc-linux-gnu/bin/../lib/gcc/nios2-elf/4.1.2/../../../../nios2-elf/lib/libc.a(lib_a-reallocr.o)
 .data          0x00031b50        0x0 /home/lordrafa/altera/12.1sp1/nios2eds/bin/gnu/H-i686-pc-linux-gnu/bin/../lib/gcc/nios2-elf/4.1.2/../../../../nios2-elf/lib/libc.a(lib_a-s_isinfd.o)
 .data          0x00031b50        0x0 /home/lordrafa/altera/12.1sp1/nios2eds/bin/gnu/H-i686-pc-linux-gnu/bin/../lib/gcc/nios2-elf/4.1.2/../../../../nios2-elf/lib/libc.a(lib_a-s_isnand.o)
 .data          0x00031b50        0x0 /home/lordrafa/altera/12.1sp1/nios2eds/bin/gnu/H-i686-pc-linux-gnu/bin/../lib/gcc/nios2-elf/4.1.2/../../../../nios2-elf/lib/libc.a(lib_a-stdio.o)
 .data          0x00031b50        0x0 /home/lordrafa/altera/12.1sp1/nios2eds/bin/gnu/H-i686-pc-linux-gnu/bin/../lib/gcc/nios2-elf/4.1.2/../../../../nios2-elf/lib/libc.a(lib_a-strcmp.o)
 .data          0x00031b50        0x0 /home/lordrafa/altera/12.1sp1/nios2eds/bin/gnu/H-i686-pc-linux-gnu/bin/../lib/gcc/nios2-elf/4.1.2/../../../../nios2-elf/lib/libc.a(lib_a-writer.o)
 .data          0x00031b50        0x0 /home/lordrafa/altera/12.1sp1/nios2eds/bin/gnu/H-i686-pc-linux-gnu/bin/../lib/gcc/nios2-elf/4.1.2/../../../../nios2-elf/lib/libc.a(lib_a-callocr.o)
 .data          0x00031b50        0x0 /home/lordrafa/altera/12.1sp1/nios2eds/bin/gnu/H-i686-pc-linux-gnu/bin/../lib/gcc/nios2-elf/4.1.2/../../../../nios2-elf/lib/libc.a(lib_a-closer.o)
 .data          0x00031b50        0x0 /home/lordrafa/altera/12.1sp1/nios2eds/bin/gnu/H-i686-pc-linux-gnu/bin/../lib/gcc/nios2-elf/4.1.2/../../../../nios2-elf/lib/libc.a(lib_a-fclose.o)
 .data          0x00031b50        0x0 /home/lordrafa/altera/12.1sp1/nios2eds/bin/gnu/H-i686-pc-linux-gnu/bin/../lib/gcc/nios2-elf/4.1.2/../../../../nios2-elf/lib/libc.a(lib_a-fstatr.o)
 .data          0x00031b50        0x0 /home/lordrafa/altera/12.1sp1/nios2eds/bin/gnu/H-i686-pc-linux-gnu/bin/../lib/gcc/nios2-elf/4.1.2/../../../../nios2-elf/lib/libc.a(lib_a-isattyr.o)
 .data          0x00031b50        0x0 /home/lordrafa/altera/12.1sp1/nios2eds/bin/gnu/H-i686-pc-linux-gnu/bin/../lib/gcc/nios2-elf/4.1.2/../../../../nios2-elf/lib/libc.a(lib_a-lseekr.o)
 .data          0x00031b50        0x0 /home/lordrafa/altera/12.1sp1/nios2eds/bin/gnu/H-i686-pc-linux-gnu/bin/../lib/gcc/nios2-elf/4.1.2/../../../../nios2-elf/lib/libc.a(lib_a-readr.o)
 .data          0x00031b50        0x0 /home/lordrafa/altera/12.1sp1/nios2eds/bin/gnu/H-i686-pc-linux-gnu/bin/../lib/gcc/nios2-elf/4.1.2/libgcc.a(_udivdi3.o)
 .data          0x00031b50        0x0 /home/lordrafa/altera/12.1sp1/nios2eds/bin/gnu/H-i686-pc-linux-gnu/bin/../lib/gcc/nios2-elf/4.1.2/libgcc.a(_umoddi3.o)
 .data          0x00031b50        0x0 /home/lordrafa/altera/12.1sp1/nios2eds/bin/gnu/H-i686-pc-linux-gnu/bin/../lib/gcc/nios2-elf/4.1.2/libgcc.a(_addsub_df.o)
 .data          0x00031b50        0x0 /home/lordrafa/altera/12.1sp1/nios2eds/bin/gnu/H-i686-pc-linux-gnu/bin/../lib/gcc/nios2-elf/4.1.2/libgcc.a(_mul_df.o)
 .data          0x00031b50        0x0 /home/lordrafa/altera/12.1sp1/nios2eds/bin/gnu/H-i686-pc-linux-gnu/bin/../lib/gcc/nios2-elf/4.1.2/libgcc.a(_div_df.o)
 .data          0x00031b50        0x0 /home/lordrafa/altera/12.1sp1/nios2eds/bin/gnu/H-i686-pc-linux-gnu/bin/../lib/gcc/nios2-elf/4.1.2/libgcc.a(_eq_df.o)
 .data          0x00031b50        0x0 /home/lordrafa/altera/12.1sp1/nios2eds/bin/gnu/H-i686-pc-linux-gnu/bin/../lib/gcc/nios2-elf/4.1.2/libgcc.a(_ne_df.o)
 .data          0x00031b50        0x0 /home/lordrafa/altera/12.1sp1/nios2eds/bin/gnu/H-i686-pc-linux-gnu/bin/../lib/gcc/nios2-elf/4.1.2/libgcc.a(_gt_df.o)
 .data          0x00031b50        0x0 /home/lordrafa/altera/12.1sp1/nios2eds/bin/gnu/H-i686-pc-linux-gnu/bin/../lib/gcc/nios2-elf/4.1.2/libgcc.a(_ge_df.o)
 .data          0x00031b50        0x0 /home/lordrafa/altera/12.1sp1/nios2eds/bin/gnu/H-i686-pc-linux-gnu/bin/../lib/gcc/nios2-elf/4.1.2/libgcc.a(_lt_df.o)
 .data          0x00031b50        0x0 /home/lordrafa/altera/12.1sp1/nios2eds/bin/gnu/H-i686-pc-linux-gnu/bin/../lib/gcc/nios2-elf/4.1.2/libgcc.a(_si_to_df.o)
 .data          0x00031b50        0x0 /home/lordrafa/altera/12.1sp1/nios2eds/bin/gnu/H-i686-pc-linux-gnu/bin/../lib/gcc/nios2-elf/4.1.2/libgcc.a(_df_to_si.o)
 .data          0x00031b50        0x0 /home/lordrafa/altera/12.1sp1/nios2eds/bin/gnu/H-i686-pc-linux-gnu/bin/../lib/gcc/nios2-elf/4.1.2/libgcc.a(_thenan_df.o)
 .data          0x00031b50        0x0 /home/lordrafa/altera/12.1sp1/nios2eds/bin/gnu/H-i686-pc-linux-gnu/bin/../lib/gcc/nios2-elf/4.1.2/libgcc.a(_usi_to_df.o)
 .data          0x00031b50        0x0 /home/lordrafa/altera/12.1sp1/nios2eds/bin/gnu/H-i686-pc-linux-gnu/bin/../lib/gcc/nios2-elf/4.1.2/libgcc.a(_muldi3.o)
 .data          0x00031b50        0x0 /home/lordrafa/altera/12.1sp1/nios2eds/bin/gnu/H-i686-pc-linux-gnu/bin/../lib/gcc/nios2-elf/4.1.2/libgcc.a(_clz.o)
 .data          0x00031b50        0x0 /home/lordrafa/altera/12.1sp1/nios2eds/bin/gnu/H-i686-pc-linux-gnu/bin/../lib/gcc/nios2-elf/4.1.2/libgcc.a(_clzsi2.o)
 .data          0x00031b50        0x0 /home/lordrafa/altera/12.1sp1/nios2eds/bin/gnu/H-i686-pc-linux-gnu/bin/../lib/gcc/nios2-elf/4.1.2/libgcc.a(_pack_df.o)
 .data          0x00031b50        0x0 /home/lordrafa/altera/12.1sp1/nios2eds/bin/gnu/H-i686-pc-linux-gnu/bin/../lib/gcc/nios2-elf/4.1.2/libgcc.a(_unpack_df.o)
 .data          0x00031b50        0x0 /home/lordrafa/altera/12.1sp1/nios2eds/bin/gnu/H-i686-pc-linux-gnu/bin/../lib/gcc/nios2-elf/4.1.2/libgcc.a(_fpcmp_parts_df.o)
 .data          0x00031b50        0x0 ../RawaPro_Linux_Cache_bsp//libhal_bsp.a(alt_close.o)
 .data          0x00031b50      0x1a8 ../RawaPro_Linux_Cache_bsp//libhal_bsp.a(alt_dev.o)
                0x00031b50                alt_dev_null
                0x00031b78                alt_fd_list
 .data          0x00031cf8        0x0 ../RawaPro_Linux_Cache_bsp//libhal_bsp.a(alt_errno.o)
 .data          0x00031cf8        0x0 ../RawaPro_Linux_Cache_bsp//libhal_bsp.a(alt_exit.o)
 .data          0x00031cf8        0x0 ../RawaPro_Linux_Cache_bsp//libhal_bsp.a(alt_fstat.o)
 .data          0x00031cf8        0x0 ../RawaPro_Linux_Cache_bsp//libhal_bsp.a(alt_getpid.o)
 .data          0x00031cf8        0x0 ../RawaPro_Linux_Cache_bsp//libhal_bsp.a(alt_iic.o)
 .data          0x00031cf8        0x0 ../RawaPro_Linux_Cache_bsp//libhal_bsp.a(alt_iic_isr_register.o)
 .data          0x00031cf8        0x0 ../RawaPro_Linux_Cache_bsp//libhal_bsp.a(alt_irq_entry.o)
 .data          0x00031cf8        0x0 ../RawaPro_Linux_Cache_bsp//libhal_bsp.a(alt_irq_handler.o)
 .data          0x00031cf8        0x0 ../RawaPro_Linux_Cache_bsp//libhal_bsp.a(alt_irq_vars.o)
 .data          0x00031cf8        0x0 ../RawaPro_Linux_Cache_bsp//libhal_bsp.a(alt_isatty.o)
 .data          0x00031cf8        0x0 ../RawaPro_Linux_Cache_bsp//libhal_bsp.a(alt_kill.o)
 .data          0x00031cf8        0x0 ../RawaPro_Linux_Cache_bsp//libhal_bsp.a(alt_load.o)
 .data          0x00031cf8        0x0 ../RawaPro_Linux_Cache_bsp//libhal_bsp.a(alt_lseek.o)
 .data          0x00031cf8        0x0 ../RawaPro_Linux_Cache_bsp//libhal_bsp.a(alt_main.o)
 .data          0x00031cf8        0x0 ../RawaPro_Linux_Cache_bsp//libhal_bsp.a(alt_malloc_lock.o)
 .data          0x00031cf8        0x0 ../RawaPro_Linux_Cache_bsp//libhal_bsp.a(alt_read.o)
 .data          0x00031cf8        0x0 ../RawaPro_Linux_Cache_bsp//libhal_bsp.a(alt_release_fd.o)
 .data          0x00031cf8        0x0 ../RawaPro_Linux_Cache_bsp//libhal_bsp.a(alt_remap_uncached.o)
 .data          0x00031cf8        0x0 ../RawaPro_Linux_Cache_bsp//libhal_bsp.a(alt_sbrk.o)
 .data          0x00031cf8        0x0 ../RawaPro_Linux_Cache_bsp//libhal_bsp.a(alt_tick.o)
 .data          0x00031cf8        0x0 ../RawaPro_Linux_Cache_bsp//libhal_bsp.a(alt_uncached_malloc.o)
 .data          0x00031cf8        0x0 ../RawaPro_Linux_Cache_bsp//libhal_bsp.a(alt_usleep.o)
 .data          0x00031cf8        0x0 ../RawaPro_Linux_Cache_bsp//libhal_bsp.a(alt_write.o)
 .data          0x00031cf8     0x1060 ../RawaPro_Linux_Cache_bsp//libhal_bsp.a(alt_sys_init.o)
 .data          0x00032d58        0x0 ../RawaPro_Linux_Cache_bsp//libhal_bsp.a(altera_avalon_jtag_uart_fd.o)
 .data          0x00032d58        0x0 ../RawaPro_Linux_Cache_bsp//libhal_bsp.a(altera_avalon_jtag_uart_init.o)
 .data          0x00032d58        0x0 ../RawaPro_Linux_Cache_bsp//libhal_bsp.a(altera_avalon_jtag_uart_ioctl.o)
 .data          0x00032d58        0x0 ../RawaPro_Linux_Cache_bsp//libhal_bsp.a(altera_avalon_jtag_uart_read.o)
 .data          0x00032d58        0x0 ../RawaPro_Linux_Cache_bsp//libhal_bsp.a(altera_avalon_jtag_uart_write.o)
 .data          0x00032d58        0x0 ../RawaPro_Linux_Cache_bsp//libhal_bsp.a(altera_avalon_performance_counter.o)
 .data          0x00032d58        0x0 ../RawaPro_Linux_Cache_bsp//libhal_bsp.a(altera_avalon_timer_sc.o)
 .data          0x00032d58        0x0 ../RawaPro_Linux_Cache_bsp//libhal_bsp.a(alt_alarm_start.o)
 .data          0x00032d58        0x0 ../RawaPro_Linux_Cache_bsp//libhal_bsp.a(alt_busy_sleep.o)
 .data          0x00032d58        0x0 ../RawaPro_Linux_Cache_bsp//libhal_bsp.a(alt_dcache_flush.o)
 .data          0x00032d58        0x0 ../RawaPro_Linux_Cache_bsp//libhal_bsp.a(alt_dcache_flush_all.o)
 .data          0x00032d58        0x0 ../RawaPro_Linux_Cache_bsp//libhal_bsp.a(alt_dev_llist_insert.o)
 .data          0x00032d58        0x0 ../RawaPro_Linux_Cache_bsp//libhal_bsp.a(alt_do_ctors.o)
 .data          0x00032d58        0x0 ../RawaPro_Linux_Cache_bsp//libhal_bsp.a(alt_do_dtors.o)
 .data          0x00032d58        0x0 ../RawaPro_Linux_Cache_bsp//libhal_bsp.a(alt_exception_entry.o)
 .data          0x00032d58        0x0 ../RawaPro_Linux_Cache_bsp//libhal_bsp.a(alt_icache_flush_all.o)
 .data          0x00032d58        0x0 ../RawaPro_Linux_Cache_bsp//libhal_bsp.a(alt_io_redirect.o)
 .data          0x00032d58        0x0 ../RawaPro_Linux_Cache_bsp//libhal_bsp.a(alt_open.o)
 .data          0x00032d58        0x0 ../RawaPro_Linux_Cache_bsp//libhal_bsp.a(altera_nios2_qsys_irq.o)
 .data          0x00032d58        0x0 ../RawaPro_Linux_Cache_bsp//libhal_bsp.a(alt_find_dev.o)
 .data          0x00032d58        0x0 ../RawaPro_Linux_Cache_bsp//libhal_bsp.a(alt_find_file.o)
 .data          0x00032d58        0x0 ../RawaPro_Linux_Cache_bsp//libhal_bsp.a(alt_get_fd.o)
 .data          0x00032d58        0x0 ../RawaPro_Linux_Cache_bsp//libhal_bsp.a(alt_icache_flush.o)
 .data          0x00032d58        0x0 /home/lordrafa/altera/12.1sp1/nios2eds/bin/gnu/H-i686-pc-linux-gnu/bin/../lib/gcc/nios2-elf/4.1.2/../../../../nios2-elf/lib/libc.a(lib_a-atexit.o)
 .data          0x00032d58        0x0 /home/lordrafa/altera/12.1sp1/nios2eds/bin/gnu/H-i686-pc-linux-gnu/bin/../lib/gcc/nios2-elf/4.1.2/../../../../nios2-elf/lib/libc.a(lib_a-exit.o)
 .data          0x00032d58        0x0 /home/lordrafa/altera/12.1sp1/nios2eds/bin/gnu/H-i686-pc-linux-gnu/bin/../lib/gcc/nios2-elf/4.1.2/../../../../nios2-elf/lib/libc.a(lib_a-memcmp.o)
 .data          0x00032d58        0x0 /home/lordrafa/altera/12.1sp1/nios2eds/bin/gnu/H-i686-pc-linux-gnu/bin/../lib/gcc/nios2-elf/4.1.2/../../../../nios2-elf/lib/libc.a(lib_a-__atexit.o)
 .data          0x00032d58        0x0 /home/lordrafa/altera/12.1sp1/nios2eds/bin/gnu/H-i686-pc-linux-gnu/bin/../lib/gcc/nios2-elf/4.1.2/../../../../nios2-elf/lib/libc.a(lib_a-__call_atexit.o)
                0x0003ad58                _gp = ABSOLUTE ((. + 0x8000))
                0x0003ad58                PROVIDE (gp, _gp)
 *(.rwdata .rwdata.*)
 *(.sdata .sdata.* .gnu.linkonce.s.*)
 .sdata         0x00032d58        0x4 obj/default/graphics_lib/simple_graphics.o
                0x00032d58                cour10_font
 .sdata         0x00032d5c        0x1 obj/default/main.o
                0x00032d5c                fmask
 *fill*         0x00032d5d        0x3 00
 .sdata         0x00032d60        0x4 /home/lordrafa/altera/12.1sp1/nios2eds/bin/gnu/H-i686-pc-linux-gnu/bin/../lib/gcc/nios2-elf/4.1.2/../../../../nios2-elf/lib/libstdc++.a(eh_term_handler.o)
                0x00032d60                _ZN10__cxxabiv119__terminate_handlerE
 .sdata._ZTISt9exception
                0x00032d64        0x8 /home/lordrafa/altera/12.1sp1/nios2eds/bin/gnu/H-i686-pc-linux-gnu/bin/../lib/gcc/nios2-elf/4.1.2/../../../../nios2-elf/lib/libstdc++.a(eh_exception.o)
                0x00032d64                _ZTISt9exception
 .sdata         0x00032d6c        0x1 /home/lordrafa/altera/12.1sp1/nios2eds/bin/gnu/H-i686-pc-linux-gnu/bin/../lib/gcc/nios2-elf/4.1.2/../../../../nios2-elf/lib/libstdc++.a(new_handler.o)
                0x00032d6c                _ZSt7nothrow
 *fill*         0x00032d6d        0x3 00
 .sdata         0x00032d70        0x4 /home/lordrafa/altera/12.1sp1/nios2eds/bin/gnu/H-i686-pc-linux-gnu/bin/../lib/gcc/nios2-elf/4.1.2/../../../../nios2-elf/lib/libstdc++.a(eh_unex_handler.o)
                0x00032d70                _ZN10__cxxabiv120__unexpected_handlerE
 .sdata._ZTISt9type_info
                0x00032d74        0x8 /home/lordrafa/altera/12.1sp1/nios2eds/bin/gnu/H-i686-pc-linux-gnu/bin/../lib/gcc/nios2-elf/4.1.2/../../../../nios2-elf/lib/libstdc++.a(tinfo.o)
                0x00032d74                _ZTISt9type_info
 .sdata         0x00032d7c        0x8 /home/lordrafa/altera/12.1sp1/nios2eds/bin/gnu/H-i686-pc-linux-gnu/bin/../lib/gcc/nios2-elf/4.1.2/../../../../nios2-elf/lib/libc.a(lib_a-mallocr.o)
                0x00032d7c                __malloc_trim_threshold
                0x00032d80                __malloc_sbrk_base
 .sdata         0x00032d84        0x8 /home/lordrafa/altera/12.1sp1/nios2eds/bin/gnu/H-i686-pc-linux-gnu/bin/../lib/gcc/nios2-elf/4.1.2/../../../../nios2-elf/lib/libc.a(lib_a-impure.o)
                0x00032d84                _impure_ptr
                0x00032d88                _global_impure_ptr
 .sdata         0x00032d8c        0x8 /home/lordrafa/altera/12.1sp1/nios2eds/bin/gnu/H-i686-pc-linux-gnu/bin/../lib/gcc/nios2-elf/4.1.2/../../../../nios2-elf/lib/libc.a(lib_a-locale.o)
                0x00032d8c                __mb_cur_max
 .sdata         0x00032d94       0x14 ../RawaPro_Linux_Cache_bsp//libhal_bsp.a(alt_dev.o)
                0x00032d94                alt_fs_list
                0x00032d9c                alt_dev_list
                0x00032da4                alt_max_fd
 .sdata         0x00032da8        0x4 ../RawaPro_Linux_Cache_bsp//libhal_bsp.a(alt_errno.o)
                0x00032da8                alt_errno
 .sdata         0x00032dac        0x4 ../RawaPro_Linux_Cache_bsp//libhal_bsp.a(alt_irq_vars.o)
                0x00032dac                alt_priority_mask
 .sdata         0x00032db0        0x4 ../RawaPro_Linux_Cache_bsp//libhal_bsp.a(alt_sbrk.o)
 .sdata         0x00032db4        0x8 ../RawaPro_Linux_Cache_bsp//libhal_bsp.a(alt_tick.o)
                0x00032db4                alt_alarm_list
 *(.sdata2 .sdata2.* .gnu.linkonce.s2.*)
                0x00032dbc                . = ALIGN (0x4)
                0x00032dbc                _edata = ABSOLUTE (.)
                0x00032dbc                PROVIDE (edata, ABSOLUTE (.))
                0x00032dbc                PROVIDE (__ram_rwdata_end, ABSOLUTE (.))
                0x00032dbc                PROVIDE (__flash_rwdata_start, LOADADDR (.rwdata))

.bss            0x000363ec      0xb0c
                0x000363ec                __bss_start = ABSOLUTE (.)
                0x000363ec                PROVIDE (__sbss_start, ABSOLUTE (.))
                0x000363ec                PROVIDE (___sbss_start, ABSOLUTE (.))
 *(.dynsbss)
 *(.sbss .sbss.* .gnu.linkonce.sb.*)
 .sbss          0x000363ec        0x8 obj/default/audio_tvdecoder/i2c.o
 .sbss          0x000363f4        0x4 obj/default/framereader/vip_wrapper_for_c_func.o
                0x000363f4                the_frame_reader
 .sbss          0x000363f8        0x4 /home/lordrafa/altera/12.1sp1/nios2eds/bin/gnu/H-i686-pc-linux-gnu/bin/../lib/gcc/nios2-elf/4.1.2/../../../../nios2-elf/lib/libstdc++.a(eh_alloc.o)
 .sbss          0x000363fc        0x4 /home/lordrafa/altera/12.1sp1/nios2eds/bin/gnu/H-i686-pc-linux-gnu/bin/../lib/gcc/nios2-elf/4.1.2/../../../../nios2-elf/lib/libstdc++.a(new_handler.o)
                0x000363fc                __new_handler
 .sbss          0x00036400        0x8 /home/lordrafa/altera/12.1sp1/nios2eds/bin/gnu/H-i686-pc-linux-gnu/bin/../lib/gcc/nios2-elf/4.1.2/../../../../nios2-elf/lib/libstdc++.a(eh_globals.o)
 .sbss          0x00036408        0x4 /home/lordrafa/altera/12.1sp1/nios2eds/bin/gnu/H-i686-pc-linux-gnu/bin/../lib/gcc/nios2-elf/4.1.2/libgcc.a(unwind-sjlj.o)
 .sbss          0x0003640c        0xc /home/lordrafa/altera/12.1sp1/nios2eds/bin/gnu/H-i686-pc-linux-gnu/bin/../lib/gcc/nios2-elf/4.1.2/../../../../nios2-elf/lib/libc.a(lib_a-mallocr.o)
                0x0003640c                __malloc_top_pad
                0x00036410                __malloc_max_sbrked_mem
                0x00036414                __malloc_max_total_mem
 .sbss          0x00036418        0x4 /home/lordrafa/altera/12.1sp1/nios2eds/bin/gnu/H-i686-pc-linux-gnu/bin/../lib/gcc/nios2-elf/4.1.2/../../../../nios2-elf/lib/libc.a(lib_a-int_errno.o)
                0x00036418                errno
 .sbss          0x0003641c        0xc /home/lordrafa/altera/12.1sp1/nios2eds/bin/gnu/H-i686-pc-linux-gnu/bin/../lib/gcc/nios2-elf/4.1.2/../../../../nios2-elf/lib/libc.a(lib_a-locale.o)
                0x0003641c                __nlocale_changed
                0x00036420                __mlocale_changed
                0x00036424                _PathLocale
 .sbss          0x00036428        0x4 ../RawaPro_Linux_Cache_bsp//libhal_bsp.a(alt_irq_vars.o)
                0x00036428                alt_irq_active
 .sbss          0x0003642c        0xc ../RawaPro_Linux_Cache_bsp//libhal_bsp.a(alt_main.o)
                0x0003642c                alt_argc
                0x00036430                alt_argv
                0x00036434                alt_envp
 .sbss          0x00036438        0x8 ../RawaPro_Linux_Cache_bsp//libhal_bsp.a(alt_tick.o)
                0x00036438                _alt_tick_rate
                0x0003643c                _alt_nticks
 *(.sbss2 .sbss2.* .gnu.linkonce.sb2.*)
 *(.scommon)
                0x00036440                PROVIDE (__sbss_end, ABSOLUTE (.))
                0x00036440                PROVIDE (___sbss_end, ABSOLUTE (.))
 *(.dynbss)
 *(.bss .bss.* .gnu.linkonce.b.*)
 .bss           0x00036440        0x0 ../RawaPro_Linux_Cache_bsp//obj/HAL/src/crt0.o
 .bss           0x00036440        0x0 obj/default/alt_tpo_lcd/alt_tpo_lcd.o
 .bss           0x00036440        0x0 obj/default/alt_video_display/alt_video_display.o
 .bss           0x00036440        0x0 obj/default/audio_tvdecoder/i2c.o
 .bss           0x00036440        0x0 obj/default/audio_tvdecoder/tvdecoder_ctrl.o
 .bss           0x00036440        0x0 obj/default/fonts/tahomabold_20.o
 .bss           0x00036440        0x0 obj/default/fonts/tahomabold_32.o
 .bss           0x00036440        0x0 obj/default/graphics_lib/simple_graphics.o
 .bss           0x00036440        0x0 obj/default/graphics_lib/simple_text.o
 .bss           0x00036440        0x0 obj/default/keyhandler/keyhandler.o
 .bss           0x00036440        0x0 obj/default/main.o
 .bss           0x00036440        0x0 obj/default/sfs/sfs.o
 .bss           0x00036440        0x0 obj/default/framereader/vip_wrapper_for_c_func.o
 .bss           0x00036440        0x0 /home/lordrafa/altera/12.1sp1/nios2eds/bin/gnu/H-i686-pc-linux-gnu/bin/../lib/gcc/nios2-elf/4.1.2/../../../../nios2-elf/lib/libstdc++.a(eh_personality.o)
 .bss           0x00036440        0x0 /home/lordrafa/altera/12.1sp1/nios2eds/bin/gnu/H-i686-pc-linux-gnu/bin/../lib/gcc/nios2-elf/4.1.2/../../../../nios2-elf/lib/libstdc++.a(eh_terminate.o)
 .bss           0x00036440        0x0 /home/lordrafa/altera/12.1sp1/nios2eds/bin/gnu/H-i686-pc-linux-gnu/bin/../lib/gcc/nios2-elf/4.1.2/../../../../nios2-elf/lib/libstdc++.a(eh_term_handler.o)
 .bss           0x00036440        0x0 /home/lordrafa/altera/12.1sp1/nios2eds/bin/gnu/H-i686-pc-linux-gnu/bin/../lib/gcc/nios2-elf/4.1.2/../../../../nios2-elf/lib/libstdc++.a(eh_catch.o)
 .bss           0x00036440        0x0 /home/lordrafa/altera/12.1sp1/nios2eds/bin/gnu/H-i686-pc-linux-gnu/bin/../lib/gcc/nios2-elf/4.1.2/../../../../nios2-elf/lib/libstdc++.a(del_op.o)
 .bss           0x00036440        0x0 /home/lordrafa/altera/12.1sp1/nios2eds/bin/gnu/H-i686-pc-linux-gnu/bin/../lib/gcc/nios2-elf/4.1.2/../../../../nios2-elf/lib/libstdc++.a(eh_throw.o)
 .bss           0x00036440      0x800 /home/lordrafa/altera/12.1sp1/nios2eds/bin/gnu/H-i686-pc-linux-gnu/bin/../lib/gcc/nios2-elf/4.1.2/../../../../nios2-elf/lib/libstdc++.a(eh_alloc.o)
 .bss           0x00036c40        0x0 /home/lordrafa/altera/12.1sp1/nios2eds/bin/gnu/H-i686-pc-linux-gnu/bin/../lib/gcc/nios2-elf/4.1.2/../../../../nios2-elf/lib/libstdc++.a(new_op.o)
 .bss           0x00036c40        0x0 /home/lordrafa/altera/12.1sp1/nios2eds/bin/gnu/H-i686-pc-linux-gnu/bin/../lib/gcc/nios2-elf/4.1.2/../../../../nios2-elf/lib/libstdc++.a(eh_exception.o)
 .bss           0x00036c40        0x0 /home/lordrafa/altera/12.1sp1/nios2eds/bin/gnu/H-i686-pc-linux-gnu/bin/../lib/gcc/nios2-elf/4.1.2/../../../../nios2-elf/lib/libstdc++.a(eh_call.o)
 .bss           0x00036c40        0x0 /home/lordrafa/altera/12.1sp1/nios2eds/bin/gnu/H-i686-pc-linux-gnu/bin/../lib/gcc/nios2-elf/4.1.2/../../../../nios2-elf/lib/libstdc++.a(new_handler.o)
 .bss           0x00036c40        0x0 /home/lordrafa/altera/12.1sp1/nios2eds/bin/gnu/H-i686-pc-linux-gnu/bin/../lib/gcc/nios2-elf/4.1.2/../../../../nios2-elf/lib/libstdc++.a(eh_globals.o)
 .bss           0x00036c40        0x0 /home/lordrafa/altera/12.1sp1/nios2eds/bin/gnu/H-i686-pc-linux-gnu/bin/../lib/gcc/nios2-elf/4.1.2/../../../../nios2-elf/lib/libstdc++.a(class_type_info.o)
 .bss           0x00036c40        0x0 /home/lordrafa/altera/12.1sp1/nios2eds/bin/gnu/H-i686-pc-linux-gnu/bin/../lib/gcc/nios2-elf/4.1.2/../../../../nios2-elf/lib/libstdc++.a(eh_unex_handler.o)
 .bss           0x00036c40        0x0 /home/lordrafa/altera/12.1sp1/nios2eds/bin/gnu/H-i686-pc-linux-gnu/bin/../lib/gcc/nios2-elf/4.1.2/../../../../nios2-elf/lib/libstdc++.a(si_class_type_info.o)
 .bss           0x00036c40        0x0 /home/lordrafa/altera/12.1sp1/nios2eds/bin/gnu/H-i686-pc-linux-gnu/bin/../lib/gcc/nios2-elf/4.1.2/../../../../nios2-elf/lib/libstdc++.a(tinfo.o)
 .bss           0x00036c40        0x0 /home/lordrafa/altera/12.1sp1/nios2eds/bin/gnu/H-i686-pc-linux-gnu/bin/../lib/gcc/nios2-elf/4.1.2/libgcc.a(lib2-divmod.o)
 .bss           0x00036c40        0x0 /home/lordrafa/altera/12.1sp1/nios2eds/bin/gnu/H-i686-pc-linux-gnu/bin/../lib/gcc/nios2-elf/4.1.2/libgcc.a(unwind-sjlj.o)
 .bss           0x00036c40        0x0 /home/lordrafa/altera/12.1sp1/nios2eds/bin/gnu/H-i686-pc-linux-gnu/bin/../lib/gcc/nios2-elf/4.1.2/../../../../nios2-elf/lib/libc.a(lib_a-abort.o)
 .bss           0x00036c40        0x0 /home/lordrafa/altera/12.1sp1/nios2eds/bin/gnu/H-i686-pc-linux-gnu/bin/../lib/gcc/nios2-elf/4.1.2/../../../../nios2-elf/lib/libc.a(lib_a-malloc.o)
 .bss           0x00036c40       0x28 /home/lordrafa/altera/12.1sp1/nios2eds/bin/gnu/H-i686-pc-linux-gnu/bin/../lib/gcc/nios2-elf/4.1.2/../../../../nios2-elf/lib/libc.a(lib_a-mallocr.o)
                0x00036c40                __malloc_current_mallinfo
 .bss           0x00036c68        0x0 /home/lordrafa/altera/12.1sp1/nios2eds/bin/gnu/H-i686-pc-linux-gnu/bin/../lib/gcc/nios2-elf/4.1.2/../../../../nios2-elf/lib/libc.a(lib_a-memcpy.o)
 .bss           0x00036c68        0x0 /home/lordrafa/altera/12.1sp1/nios2eds/bin/gnu/H-i686-pc-linux-gnu/bin/../lib/gcc/nios2-elf/4.1.2/../../../../nios2-elf/lib/libc.a(lib_a-memset.o)
 .bss           0x00036c68        0x0 /home/lordrafa/altera/12.1sp1/nios2eds/bin/gnu/H-i686-pc-linux-gnu/bin/../lib/gcc/nios2-elf/4.1.2/../../../../nios2-elf/lib/libc.a(lib_a-printf.o)
 .bss           0x00036c68        0x0 /home/lordrafa/altera/12.1sp1/nios2eds/bin/gnu/H-i686-pc-linux-gnu/bin/../lib/gcc/nios2-elf/4.1.2/../../../../nios2-elf/lib/libc.a(lib_a-puts.o)
 .bss           0x00036c68        0x0 /home/lordrafa/altera/12.1sp1/nios2eds/bin/gnu/H-i686-pc-linux-gnu/bin/../lib/gcc/nios2-elf/4.1.2/../../../../nios2-elf/lib/libc.a(lib_a-sbrkr.o)
 .bss           0x00036c68        0x0 /home/lordrafa/altera/12.1sp1/nios2eds/bin/gnu/H-i686-pc-linux-gnu/bin/../lib/gcc/nios2-elf/4.1.2/../../../../nios2-elf/lib/libc.a(lib_a-signal.o)
 .bss           0x00036c68        0x0 /home/lordrafa/altera/12.1sp1/nios2eds/bin/gnu/H-i686-pc-linux-gnu/bin/../lib/gcc/nios2-elf/4.1.2/../../../../nios2-elf/lib/libc.a(lib_a-signalr.o)
 .bss           0x00036c68        0x0 /home/lordrafa/altera/12.1sp1/nios2eds/bin/gnu/H-i686-pc-linux-gnu/bin/../lib/gcc/nios2-elf/4.1.2/../../../../nios2-elf/lib/libc.a(lib_a-snprintf.o)
 .bss           0x00036c68        0x0 /home/lordrafa/altera/12.1sp1/nios2eds/bin/gnu/H-i686-pc-linux-gnu/bin/../lib/gcc/nios2-elf/4.1.2/../../../../nios2-elf/lib/libc.a(lib_a-strcpy.o)
 .bss           0x00036c68        0x0 /home/lordrafa/altera/12.1sp1/nios2eds/bin/gnu/H-i686-pc-linux-gnu/bin/../lib/gcc/nios2-elf/4.1.2/../../../../nios2-elf/lib/libc.a(lib_a-strlen.o)
 .bss           0x00036c68        0x0 /home/lordrafa/altera/12.1sp1/nios2eds/bin/gnu/H-i686-pc-linux-gnu/bin/../lib/gcc/nios2-elf/4.1.2/../../../../nios2-elf/lib/libc.a(lib_a-vfprintf.o)
 .bss           0x00036c68        0x0 /home/lordrafa/altera/12.1sp1/nios2eds/bin/gnu/H-i686-pc-linux-gnu/bin/../lib/gcc/nios2-elf/4.1.2/../../../../nios2-elf/lib/libc.a(lib_a-wsetup.o)
 .bss           0x00036c68        0x0 /home/lordrafa/altera/12.1sp1/nios2eds/bin/gnu/H-i686-pc-linux-gnu/bin/../lib/gcc/nios2-elf/4.1.2/../../../../nios2-elf/lib/libc.a(lib_a-dtoa.o)
 .bss           0x00036c68        0x0 /home/lordrafa/altera/12.1sp1/nios2eds/bin/gnu/H-i686-pc-linux-gnu/bin/../lib/gcc/nios2-elf/4.1.2/../../../../nios2-elf/lib/libc.a(lib_a-fflush.o)
 .bss           0x00036c68        0x0 /home/lordrafa/altera/12.1sp1/nios2eds/bin/gnu/H-i686-pc-linux-gnu/bin/../lib/gcc/nios2-elf/4.1.2/../../../../nios2-elf/lib/libc.a(lib_a-findfp.o)
 .bss           0x00036c68        0x0 /home/lordrafa/altera/12.1sp1/nios2eds/bin/gnu/H-i686-pc-linux-gnu/bin/../lib/gcc/nios2-elf/4.1.2/../../../../nios2-elf/lib/libc.a(lib_a-freer.o)
 .bss           0x00036c68        0x0 /home/lordrafa/altera/12.1sp1/nios2eds/bin/gnu/H-i686-pc-linux-gnu/bin/../lib/gcc/nios2-elf/4.1.2/../../../../nios2-elf/lib/libc.a(lib_a-fvwrite.o)
 .bss           0x00036c68        0x0 /home/lordrafa/altera/12.1sp1/nios2eds/bin/gnu/H-i686-pc-linux-gnu/bin/../lib/gcc/nios2-elf/4.1.2/../../../../nios2-elf/lib/libc.a(lib_a-fwalk.o)
 .bss           0x00036c68        0x0 /home/lordrafa/altera/12.1sp1/nios2eds/bin/gnu/H-i686-pc-linux-gnu/bin/../lib/gcc/nios2-elf/4.1.2/../../../../nios2-elf/lib/libc.a(lib_a-impure.o)
 .bss           0x00036c68        0x0 /home/lordrafa/altera/12.1sp1/nios2eds/bin/gnu/H-i686-pc-linux-gnu/bin/../lib/gcc/nios2-elf/4.1.2/../../../../nios2-elf/lib/libc.a(lib_a-int_errno.o)
 .bss           0x00036c68        0x0 /home/lordrafa/altera/12.1sp1/nios2eds/bin/gnu/H-i686-pc-linux-gnu/bin/../lib/gcc/nios2-elf/4.1.2/../../../../nios2-elf/lib/libc.a(lib_a-locale.o)
 .bss           0x00036c68        0x0 /home/lordrafa/altera/12.1sp1/nios2eds/bin/gnu/H-i686-pc-linux-gnu/bin/../lib/gcc/nios2-elf/4.1.2/../../../../nios2-elf/lib/libc.a(lib_a-makebuf.o)
 .bss           0x00036c68        0x0 /home/lordrafa/altera/12.1sp1/nios2eds/bin/gnu/H-i686-pc-linux-gnu/bin/../lib/gcc/nios2-elf/4.1.2/../../../../nios2-elf/lib/libc.a(lib_a-memchr.o)
 .bss           0x00036c68        0x0 /home/lordrafa/altera/12.1sp1/nios2eds/bin/gnu/H-i686-pc-linux-gnu/bin/../lib/gcc/nios2-elf/4.1.2/../../../../nios2-elf/lib/libc.a(lib_a-memmove.o)
 .bss           0x00036c68        0x0 /home/lordrafa/altera/12.1sp1/nios2eds/bin/gnu/H-i686-pc-linux-gnu/bin/../lib/gcc/nios2-elf/4.1.2/../../../../nios2-elf/lib/libc.a(lib_a-mprec.o)
 .bss           0x00036c68        0x0 /home/lordrafa/altera/12.1sp1/nios2eds/bin/gnu/H-i686-pc-linux-gnu/bin/../lib/gcc/nios2-elf/4.1.2/../../../../nios2-elf/lib/libc.a(lib_a-reallocr.o)
 .bss           0x00036c68        0x0 /home/lordrafa/altera/12.1sp1/nios2eds/bin/gnu/H-i686-pc-linux-gnu/bin/../lib/gcc/nios2-elf/4.1.2/../../../../nios2-elf/lib/libc.a(lib_a-s_isinfd.o)
 .bss           0x00036c68        0x0 /home/lordrafa/altera/12.1sp1/nios2eds/bin/gnu/H-i686-pc-linux-gnu/bin/../lib/gcc/nios2-elf/4.1.2/../../../../nios2-elf/lib/libc.a(lib_a-s_isnand.o)
 .bss           0x00036c68        0x0 /home/lordrafa/altera/12.1sp1/nios2eds/bin/gnu/H-i686-pc-linux-gnu/bin/../lib/gcc/nios2-elf/4.1.2/../../../../nios2-elf/lib/libc.a(lib_a-stdio.o)
 .bss           0x00036c68        0x0 /home/lordrafa/altera/12.1sp1/nios2eds/bin/gnu/H-i686-pc-linux-gnu/bin/../lib/gcc/nios2-elf/4.1.2/../../../../nios2-elf/lib/libc.a(lib_a-strcmp.o)
 .bss           0x00036c68        0x0 /home/lordrafa/altera/12.1sp1/nios2eds/bin/gnu/H-i686-pc-linux-gnu/bin/../lib/gcc/nios2-elf/4.1.2/../../../../nios2-elf/lib/libc.a(lib_a-writer.o)
 .bss           0x00036c68        0x0 /home/lordrafa/altera/12.1sp1/nios2eds/bin/gnu/H-i686-pc-linux-gnu/bin/../lib/gcc/nios2-elf/4.1.2/../../../../nios2-elf/lib/libc.a(lib_a-callocr.o)
 .bss           0x00036c68        0x0 /home/lordrafa/altera/12.1sp1/nios2eds/bin/gnu/H-i686-pc-linux-gnu/bin/../lib/gcc/nios2-elf/4.1.2/../../../../nios2-elf/lib/libc.a(lib_a-closer.o)
 .bss           0x00036c68        0x0 /home/lordrafa/altera/12.1sp1/nios2eds/bin/gnu/H-i686-pc-linux-gnu/bin/../lib/gcc/nios2-elf/4.1.2/../../../../nios2-elf/lib/libc.a(lib_a-fclose.o)
 .bss           0x00036c68        0x0 /home/lordrafa/altera/12.1sp1/nios2eds/bin/gnu/H-i686-pc-linux-gnu/bin/../lib/gcc/nios2-elf/4.1.2/../../../../nios2-elf/lib/libc.a(lib_a-fstatr.o)
 .bss           0x00036c68        0x0 /home/lordrafa/altera/12.1sp1/nios2eds/bin/gnu/H-i686-pc-linux-gnu/bin/../lib/gcc/nios2-elf/4.1.2/../../../../nios2-elf/lib/libc.a(lib_a-isattyr.o)
 .bss           0x00036c68        0x0 /home/lordrafa/altera/12.1sp1/nios2eds/bin/gnu/H-i686-pc-linux-gnu/bin/../lib/gcc/nios2-elf/4.1.2/../../../../nios2-elf/lib/libc.a(lib_a-lseekr.o)
 .bss           0x00036c68        0x0 /home/lordrafa/altera/12.1sp1/nios2eds/bin/gnu/H-i686-pc-linux-gnu/bin/../lib/gcc/nios2-elf/4.1.2/../../../../nios2-elf/lib/libc.a(lib_a-readr.o)
 .bss           0x00036c68        0x0 /home/lordrafa/altera/12.1sp1/nios2eds/bin/gnu/H-i686-pc-linux-gnu/bin/../lib/gcc/nios2-elf/4.1.2/libgcc.a(_udivdi3.o)
 .bss           0x00036c68        0x0 /home/lordrafa/altera/12.1sp1/nios2eds/bin/gnu/H-i686-pc-linux-gnu/bin/../lib/gcc/nios2-elf/4.1.2/libgcc.a(_umoddi3.o)
 .bss           0x00036c68        0x0 /home/lordrafa/altera/12.1sp1/nios2eds/bin/gnu/H-i686-pc-linux-gnu/bin/../lib/gcc/nios2-elf/4.1.2/libgcc.a(_addsub_df.o)
 .bss           0x00036c68        0x0 /home/lordrafa/altera/12.1sp1/nios2eds/bin/gnu/H-i686-pc-linux-gnu/bin/../lib/gcc/nios2-elf/4.1.2/libgcc.a(_mul_df.o)
 .bss           0x00036c68        0x0 /home/lordrafa/altera/12.1sp1/nios2eds/bin/gnu/H-i686-pc-linux-gnu/bin/../lib/gcc/nios2-elf/4.1.2/libgcc.a(_div_df.o)
 .bss           0x00036c68        0x0 /home/lordrafa/altera/12.1sp1/nios2eds/bin/gnu/H-i686-pc-linux-gnu/bin/../lib/gcc/nios2-elf/4.1.2/libgcc.a(_eq_df.o)
 .bss           0x00036c68        0x0 /home/lordrafa/altera/12.1sp1/nios2eds/bin/gnu/H-i686-pc-linux-gnu/bin/../lib/gcc/nios2-elf/4.1.2/libgcc.a(_ne_df.o)
 .bss           0x00036c68        0x0 /home/lordrafa/altera/12.1sp1/nios2eds/bin/gnu/H-i686-pc-linux-gnu/bin/../lib/gcc/nios2-elf/4.1.2/libgcc.a(_gt_df.o)
 .bss           0x00036c68        0x0 /home/lordrafa/altera/12.1sp1/nios2eds/bin/gnu/H-i686-pc-linux-gnu/bin/../lib/gcc/nios2-elf/4.1.2/libgcc.a(_ge_df.o)
 .bss           0x00036c68        0x0 /home/lordrafa/altera/12.1sp1/nios2eds/bin/gnu/H-i686-pc-linux-gnu/bin/../lib/gcc/nios2-elf/4.1.2/libgcc.a(_lt_df.o)
 .bss           0x00036c68        0x0 /home/lordrafa/altera/12.1sp1/nios2eds/bin/gnu/H-i686-pc-linux-gnu/bin/../lib/gcc/nios2-elf/4.1.2/libgcc.a(_si_to_df.o)
 .bss           0x00036c68        0x0 /home/lordrafa/altera/12.1sp1/nios2eds/bin/gnu/H-i686-pc-linux-gnu/bin/../lib/gcc/nios2-elf/4.1.2/libgcc.a(_df_to_si.o)
 .bss           0x00036c68        0x0 /home/lordrafa/altera/12.1sp1/nios2eds/bin/gnu/H-i686-pc-linux-gnu/bin/../lib/gcc/nios2-elf/4.1.2/libgcc.a(_thenan_df.o)
 .bss           0x00036c68        0x0 /home/lordrafa/altera/12.1sp1/nios2eds/bin/gnu/H-i686-pc-linux-gnu/bin/../lib/gcc/nios2-elf/4.1.2/libgcc.a(_usi_to_df.o)
 .bss           0x00036c68        0x0 /home/lordrafa/altera/12.1sp1/nios2eds/bin/gnu/H-i686-pc-linux-gnu/bin/../lib/gcc/nios2-elf/4.1.2/libgcc.a(_muldi3.o)
 .bss           0x00036c68        0x0 /home/lordrafa/altera/12.1sp1/nios2eds/bin/gnu/H-i686-pc-linux-gnu/bin/../lib/gcc/nios2-elf/4.1.2/libgcc.a(_clz.o)
 .bss           0x00036c68        0x0 /home/lordrafa/altera/12.1sp1/nios2eds/bin/gnu/H-i686-pc-linux-gnu/bin/../lib/gcc/nios2-elf/4.1.2/libgcc.a(_clzsi2.o)
 .bss           0x00036c68        0x0 /home/lordrafa/altera/12.1sp1/nios2eds/bin/gnu/H-i686-pc-linux-gnu/bin/../lib/gcc/nios2-elf/4.1.2/libgcc.a(_pack_df.o)
 .bss           0x00036c68        0x0 /home/lordrafa/altera/12.1sp1/nios2eds/bin/gnu/H-i686-pc-linux-gnu/bin/../lib/gcc/nios2-elf/4.1.2/libgcc.a(_unpack_df.o)
 .bss           0x00036c68        0x0 /home/lordrafa/altera/12.1sp1/nios2eds/bin/gnu/H-i686-pc-linux-gnu/bin/../lib/gcc/nios2-elf/4.1.2/libgcc.a(_fpcmp_parts_df.o)
 .bss           0x00036c68        0x0 ../RawaPro_Linux_Cache_bsp//libhal_bsp.a(alt_close.o)
 .bss           0x00036c68        0x0 ../RawaPro_Linux_Cache_bsp//libhal_bsp.a(alt_dev.o)
 .bss           0x00036c68        0x0 ../RawaPro_Linux_Cache_bsp//libhal_bsp.a(alt_errno.o)
 .bss           0x00036c68        0x0 ../RawaPro_Linux_Cache_bsp//libhal_bsp.a(alt_exit.o)
 .bss           0x00036c68        0x0 ../RawaPro_Linux_Cache_bsp//libhal_bsp.a(alt_fstat.o)
 .bss           0x00036c68        0x0 ../RawaPro_Linux_Cache_bsp//libhal_bsp.a(alt_getpid.o)
 .bss           0x00036c68        0x0 ../RawaPro_Linux_Cache_bsp//libhal_bsp.a(alt_iic.o)
 .bss           0x00036c68        0x0 ../RawaPro_Linux_Cache_bsp//libhal_bsp.a(alt_iic_isr_register.o)
 .bss           0x00036c68        0x0 ../RawaPro_Linux_Cache_bsp//libhal_bsp.a(alt_irq_entry.o)
 .bss           0x00036c68        0x0 ../RawaPro_Linux_Cache_bsp//libhal_bsp.a(alt_irq_handler.o)
 .bss           0x00036c68        0x0 ../RawaPro_Linux_Cache_bsp//libhal_bsp.a(alt_irq_vars.o)
 .bss           0x00036c68        0x0 ../RawaPro_Linux_Cache_bsp//libhal_bsp.a(alt_isatty.o)
 .bss           0x00036c68        0x0 ../RawaPro_Linux_Cache_bsp//libhal_bsp.a(alt_kill.o)
 .bss           0x00036c68        0x0 ../RawaPro_Linux_Cache_bsp//libhal_bsp.a(alt_load.o)
 .bss           0x00036c68        0x0 ../RawaPro_Linux_Cache_bsp//libhal_bsp.a(alt_lseek.o)
 .bss           0x00036c68        0x0 ../RawaPro_Linux_Cache_bsp//libhal_bsp.a(alt_main.o)
 .bss           0x00036c68        0x0 ../RawaPro_Linux_Cache_bsp//libhal_bsp.a(alt_malloc_lock.o)
 .bss           0x00036c68        0x0 ../RawaPro_Linux_Cache_bsp//libhal_bsp.a(alt_read.o)
 .bss           0x00036c68        0x0 ../RawaPro_Linux_Cache_bsp//libhal_bsp.a(alt_release_fd.o)
 .bss           0x00036c68        0x0 ../RawaPro_Linux_Cache_bsp//libhal_bsp.a(alt_remap_uncached.o)
 .bss           0x00036c68        0x0 ../RawaPro_Linux_Cache_bsp//libhal_bsp.a(alt_sbrk.o)
 .bss           0x00036c68        0x0 ../RawaPro_Linux_Cache_bsp//libhal_bsp.a(alt_tick.o)
 .bss           0x00036c68        0x0 ../RawaPro_Linux_Cache_bsp//libhal_bsp.a(alt_uncached_malloc.o)
 .bss           0x00036c68        0x0 ../RawaPro_Linux_Cache_bsp//libhal_bsp.a(alt_usleep.o)
 .bss           0x00036c68        0x0 ../RawaPro_Linux_Cache_bsp//libhal_bsp.a(alt_write.o)
 .bss           0x00036c68        0x0 ../RawaPro_Linux_Cache_bsp//libhal_bsp.a(alt_sys_init.o)
 .bss           0x00036c68        0x0 ../RawaPro_Linux_Cache_bsp//libhal_bsp.a(altera_avalon_jtag_uart_fd.o)
 .bss           0x00036c68        0x0 ../RawaPro_Linux_Cache_bsp//libhal_bsp.a(altera_avalon_jtag_uart_init.o)
 .bss           0x00036c68        0x0 ../RawaPro_Linux_Cache_bsp//libhal_bsp.a(altera_avalon_jtag_uart_ioctl.o)
 .bss           0x00036c68        0x0 ../RawaPro_Linux_Cache_bsp//libhal_bsp.a(altera_avalon_jtag_uart_read.o)
 .bss           0x00036c68        0x0 ../RawaPro_Linux_Cache_bsp//libhal_bsp.a(altera_avalon_jtag_uart_write.o)
 .bss           0x00036c68        0x0 ../RawaPro_Linux_Cache_bsp//libhal_bsp.a(altera_avalon_performance_counter.o)
 .bss           0x00036c68        0x0 ../RawaPro_Linux_Cache_bsp//libhal_bsp.a(altera_avalon_timer_sc.o)
 .bss           0x00036c68        0x0 ../RawaPro_Linux_Cache_bsp//libhal_bsp.a(alt_alarm_start.o)
 .bss           0x00036c68        0x0 ../RawaPro_Linux_Cache_bsp//libhal_bsp.a(alt_busy_sleep.o)
 .bss           0x00036c68        0x0 ../RawaPro_Linux_Cache_bsp//libhal_bsp.a(alt_dcache_flush.o)
 .bss           0x00036c68        0x0 ../RawaPro_Linux_Cache_bsp//libhal_bsp.a(alt_dcache_flush_all.o)
 .bss           0x00036c68        0x0 ../RawaPro_Linux_Cache_bsp//libhal_bsp.a(alt_dev_llist_insert.o)
 .bss           0x00036c68        0x0 ../RawaPro_Linux_Cache_bsp//libhal_bsp.a(alt_do_ctors.o)
 .bss           0x00036c68        0x0 ../RawaPro_Linux_Cache_bsp//libhal_bsp.a(alt_do_dtors.o)
 .bss           0x00036c68        0x0 ../RawaPro_Linux_Cache_bsp//libhal_bsp.a(alt_exception_entry.o)
 .bss           0x00036c68        0x0 ../RawaPro_Linux_Cache_bsp//libhal_bsp.a(alt_icache_flush_all.o)
 .bss           0x00036c68        0x0 ../RawaPro_Linux_Cache_bsp//libhal_bsp.a(alt_io_redirect.o)
 .bss           0x00036c68        0x0 ../RawaPro_Linux_Cache_bsp//libhal_bsp.a(alt_open.o)
 .bss           0x00036c68        0x0 ../RawaPro_Linux_Cache_bsp//libhal_bsp.a(altera_nios2_qsys_irq.o)
 .bss           0x00036c68        0x0 ../RawaPro_Linux_Cache_bsp//libhal_bsp.a(alt_find_dev.o)
 .bss           0x00036c68        0x0 ../RawaPro_Linux_Cache_bsp//libhal_bsp.a(alt_find_file.o)
 .bss           0x00036c68        0x0 ../RawaPro_Linux_Cache_bsp//libhal_bsp.a(alt_get_fd.o)
 .bss           0x00036c68        0x0 ../RawaPro_Linux_Cache_bsp//libhal_bsp.a(alt_icache_flush.o)
 .bss           0x00036c68        0x0 /home/lordrafa/altera/12.1sp1/nios2eds/bin/gnu/H-i686-pc-linux-gnu/bin/../lib/gcc/nios2-elf/4.1.2/../../../../nios2-elf/lib/libc.a(lib_a-atexit.o)
 .bss           0x00036c68        0x0 /home/lordrafa/altera/12.1sp1/nios2eds/bin/gnu/H-i686-pc-linux-gnu/bin/../lib/gcc/nios2-elf/4.1.2/../../../../nios2-elf/lib/libc.a(lib_a-exit.o)
 .bss           0x00036c68        0x0 /home/lordrafa/altera/12.1sp1/nios2eds/bin/gnu/H-i686-pc-linux-gnu/bin/../lib/gcc/nios2-elf/4.1.2/../../../../nios2-elf/lib/libc.a(lib_a-memcmp.o)
 .bss           0x00036c68        0x0 /home/lordrafa/altera/12.1sp1/nios2eds/bin/gnu/H-i686-pc-linux-gnu/bin/../lib/gcc/nios2-elf/4.1.2/../../../../nios2-elf/lib/libc.a(lib_a-__atexit.o)
 .bss           0x00036c68        0x0 /home/lordrafa/altera/12.1sp1/nios2eds/bin/gnu/H-i686-pc-linux-gnu/bin/../lib/gcc/nios2-elf/4.1.2/../../../../nios2-elf/lib/libc.a(lib_a-__call_atexit.o)
 *(COMMON)
 COMMON         0x00036c68      0x100 ../RawaPro_Linux_Cache_bsp//libhal_bsp.a(alt_irq_handler.o)
                0x00036c68                alt_irq
 COMMON         0x00036d68      0x190 /home/lordrafa/altera/12.1sp1/nios2eds/bin/gnu/H-i686-pc-linux-gnu/bin/../lib/gcc/nios2-elf/4.1.2/../../../../nios2-elf/lib/libc.a(lib_a-atexit.o)
                0x00036d68                _atexit0
                0x00036ef8                . = ALIGN (0x4)
                0x00036ef8                __bss_end = ABSOLUTE (.)

.ddr_sdram      0x00036ef8        0x0
                0x00036ef8                PROVIDE (_alt_partition_ddr_sdram_start, ABSOLUTE (.))
 *(.ddr_sdram. ddr_sdram.*)
                0x00036ef8                . = ALIGN (0x4)
                0x00036ef8                PROVIDE (_alt_partition_ddr_sdram_end, ABSOLUTE (.))
                0x00036ef8                _end = ABSOLUTE (.)
                0x00036ef8                end = ABSOLUTE (.)
                0x00036ef8                __alt_stack_base = ABSOLUTE (.)
                0x00036ef8                PROVIDE (_alt_partition_ddr_sdram_load_addr, LOADADDR (.ddr_sdram))

.stab
 *(.stab)

.stabstr
 *(.stabstr)

.stab.excl
 *(.stab.excl)

.stab.exclstr
 *(.stab.exclstr)

.stab.index
 *(.stab.index)

.stab.indexstr
 *(.stab.indexstr)

.comment        0x00000000       0x26
 *(.comment)
 .comment       0x00000000       0x26 obj/default/alt_tpo_lcd/alt_tpo_lcd.o
                                 0x27 (size before relaxing)
 .comment       0x00000000       0x27 obj/default/alt_video_display/alt_video_display.o
 .comment       0x00000000       0x27 obj/default/audio_tvdecoder/i2c.o
 .comment       0x00000000       0x27 obj/default/audio_tvdecoder/tvdecoder_ctrl.o
 .comment       0x00000000       0x27 obj/default/fonts/tahomabold_20.o
 .comment       0x00000000       0x27 obj/default/fonts/tahomabold_32.o
 .comment       0x00000000       0x27 obj/default/graphics_lib/simple_graphics.o
 .comment       0x00000000       0x27 obj/default/graphics_lib/simple_text.o
 .comment       0x00000000       0x27 obj/default/keyhandler/keyhandler.o
 .comment       0x00000000       0x27 obj/default/main.o
 .comment       0x00000000       0x27 obj/default/sfs/sfs.o
 .comment       0x00000000       0x27 obj/default/framereader/vip_wrapper_for_c_func.o
 .comment       0x00000000       0x27 /home/lordrafa/altera/12.1sp1/nios2eds/bin/gnu/H-i686-pc-linux-gnu/bin/../lib/gcc/nios2-elf/4.1.2/../../../../nios2-elf/lib/libstdc++.a(eh_personality.o)
 .comment       0x00000000       0x27 /home/lordrafa/altera/12.1sp1/nios2eds/bin/gnu/H-i686-pc-linux-gnu/bin/../lib/gcc/nios2-elf/4.1.2/../../../../nios2-elf/lib/libstdc++.a(eh_terminate.o)
 .comment       0x00000000       0x27 /home/lordrafa/altera/12.1sp1/nios2eds/bin/gnu/H-i686-pc-linux-gnu/bin/../lib/gcc/nios2-elf/4.1.2/../../../../nios2-elf/lib/libstdc++.a(eh_term_handler.o)
 .comment       0x00000000       0x27 /home/lordrafa/altera/12.1sp1/nios2eds/bin/gnu/H-i686-pc-linux-gnu/bin/../lib/gcc/nios2-elf/4.1.2/../../../../nios2-elf/lib/libstdc++.a(eh_catch.o)
 .comment       0x00000000       0x27 /home/lordrafa/altera/12.1sp1/nios2eds/bin/gnu/H-i686-pc-linux-gnu/bin/../lib/gcc/nios2-elf/4.1.2/../../../../nios2-elf/lib/libstdc++.a(del_op.o)
 .comment       0x00000000       0x27 /home/lordrafa/altera/12.1sp1/nios2eds/bin/gnu/H-i686-pc-linux-gnu/bin/../lib/gcc/nios2-elf/4.1.2/../../../../nios2-elf/lib/libstdc++.a(eh_throw.o)
 .comment       0x00000000       0x27 /home/lordrafa/altera/12.1sp1/nios2eds/bin/gnu/H-i686-pc-linux-gnu/bin/../lib/gcc/nios2-elf/4.1.2/../../../../nios2-elf/lib/libstdc++.a(eh_alloc.o)
 .comment       0x00000000       0x27 /home/lordrafa/altera/12.1sp1/nios2eds/bin/gnu/H-i686-pc-linux-gnu/bin/../lib/gcc/nios2-elf/4.1.2/../../../../nios2-elf/lib/libstdc++.a(new_op.o)
 .comment       0x00000000       0x27 /home/lordrafa/altera/12.1sp1/nios2eds/bin/gnu/H-i686-pc-linux-gnu/bin/../lib/gcc/nios2-elf/4.1.2/../../../../nios2-elf/lib/libstdc++.a(eh_exception.o)
 .comment       0x00000000       0x27 /home/lordrafa/altera/12.1sp1/nios2eds/bin/gnu/H-i686-pc-linux-gnu/bin/../lib/gcc/nios2-elf/4.1.2/../../../../nios2-elf/lib/libstdc++.a(eh_call.o)
 .comment       0x00000000       0x27 /home/lordrafa/altera/12.1sp1/nios2eds/bin/gnu/H-i686-pc-linux-gnu/bin/../lib/gcc/nios2-elf/4.1.2/../../../../nios2-elf/lib/libstdc++.a(new_handler.o)
 .comment       0x00000000       0x27 /home/lordrafa/altera/12.1sp1/nios2eds/bin/gnu/H-i686-pc-linux-gnu/bin/../lib/gcc/nios2-elf/4.1.2/../../../../nios2-elf/lib/libstdc++.a(eh_globals.o)
 .comment       0x00000000       0x27 /home/lordrafa/altera/12.1sp1/nios2eds/bin/gnu/H-i686-pc-linux-gnu/bin/../lib/gcc/nios2-elf/4.1.2/../../../../nios2-elf/lib/libstdc++.a(class_type_info.o)
 .comment       0x00000000       0x27 /home/lordrafa/altera/12.1sp1/nios2eds/bin/gnu/H-i686-pc-linux-gnu/bin/../lib/gcc/nios2-elf/4.1.2/../../../../nios2-elf/lib/libstdc++.a(eh_unex_handler.o)
 .comment       0x00000000       0x27 /home/lordrafa/altera/12.1sp1/nios2eds/bin/gnu/H-i686-pc-linux-gnu/bin/../lib/gcc/nios2-elf/4.1.2/../../../../nios2-elf/lib/libstdc++.a(si_class_type_info.o)
 .comment       0x00000000       0x27 /home/lordrafa/altera/12.1sp1/nios2eds/bin/gnu/H-i686-pc-linux-gnu/bin/../lib/gcc/nios2-elf/4.1.2/../../../../nios2-elf/lib/libstdc++.a(tinfo.o)
 .comment       0x00000000       0x27 /home/lordrafa/altera/12.1sp1/nios2eds/bin/gnu/H-i686-pc-linux-gnu/bin/../lib/gcc/nios2-elf/4.1.2/libgcc.a(lib2-divmod.o)
 .comment       0x00000000       0x27 /home/lordrafa/altera/12.1sp1/nios2eds/bin/gnu/H-i686-pc-linux-gnu/bin/../lib/gcc/nios2-elf/4.1.2/libgcc.a(unwind-sjlj.o)
 .comment       0x00000000       0x27 /home/lordrafa/altera/12.1sp1/nios2eds/bin/gnu/H-i686-pc-linux-gnu/bin/../lib/gcc/nios2-elf/4.1.2/../../../../nios2-elf/lib/libc.a(lib_a-abort.o)
 .comment       0x00000000       0x27 /home/lordrafa/altera/12.1sp1/nios2eds/bin/gnu/H-i686-pc-linux-gnu/bin/../lib/gcc/nios2-elf/4.1.2/../../../../nios2-elf/lib/libc.a(lib_a-malloc.o)
 .comment       0x00000000       0x27 /home/lordrafa/altera/12.1sp1/nios2eds/bin/gnu/H-i686-pc-linux-gnu/bin/../lib/gcc/nios2-elf/4.1.2/../../../../nios2-elf/lib/libc.a(lib_a-mallocr.o)
 .comment       0x00000000       0x27 /home/lordrafa/altera/12.1sp1/nios2eds/bin/gnu/H-i686-pc-linux-gnu/bin/../lib/gcc/nios2-elf/4.1.2/../../../../nios2-elf/lib/libc.a(lib_a-memcpy.o)
 .comment       0x00000000       0x27 /home/lordrafa/altera/12.1sp1/nios2eds/bin/gnu/H-i686-pc-linux-gnu/bin/../lib/gcc/nios2-elf/4.1.2/../../../../nios2-elf/lib/libc.a(lib_a-memset.o)
 .comment       0x00000000       0x27 /home/lordrafa/altera/12.1sp1/nios2eds/bin/gnu/H-i686-pc-linux-gnu/bin/../lib/gcc/nios2-elf/4.1.2/../../../../nios2-elf/lib/libc.a(lib_a-printf.o)
 .comment       0x00000000       0x27 /home/lordrafa/altera/12.1sp1/nios2eds/bin/gnu/H-i686-pc-linux-gnu/bin/../lib/gcc/nios2-elf/4.1.2/../../../../nios2-elf/lib/libc.a(lib_a-puts.o)
 .comment       0x00000000       0x27 /home/lordrafa/altera/12.1sp1/nios2eds/bin/gnu/H-i686-pc-linux-gnu/bin/../lib/gcc/nios2-elf/4.1.2/../../../../nios2-elf/lib/libc.a(lib_a-sbrkr.o)
 .comment       0x00000000       0x27 /home/lordrafa/altera/12.1sp1/nios2eds/bin/gnu/H-i686-pc-linux-gnu/bin/../lib/gcc/nios2-elf/4.1.2/../../../../nios2-elf/lib/libc.a(lib_a-signal.o)
 .comment       0x00000000       0x27 /home/lordrafa/altera/12.1sp1/nios2eds/bin/gnu/H-i686-pc-linux-gnu/bin/../lib/gcc/nios2-elf/4.1.2/../../../../nios2-elf/lib/libc.a(lib_a-signalr.o)
 .comment       0x00000000       0x27 /home/lordrafa/altera/12.1sp1/nios2eds/bin/gnu/H-i686-pc-linux-gnu/bin/../lib/gcc/nios2-elf/4.1.2/../../../../nios2-elf/lib/libc.a(lib_a-snprintf.o)
 .comment       0x00000000       0x27 /home/lordrafa/altera/12.1sp1/nios2eds/bin/gnu/H-i686-pc-linux-gnu/bin/../lib/gcc/nios2-elf/4.1.2/../../../../nios2-elf/lib/libc.a(lib_a-strcpy.o)
 .comment       0x00000000       0x27 /home/lordrafa/altera/12.1sp1/nios2eds/bin/gnu/H-i686-pc-linux-gnu/bin/../lib/gcc/nios2-elf/4.1.2/../../../../nios2-elf/lib/libc.a(lib_a-strlen.o)
 .comment       0x00000000       0x27 /home/lordrafa/altera/12.1sp1/nios2eds/bin/gnu/H-i686-pc-linux-gnu/bin/../lib/gcc/nios2-elf/4.1.2/../../../../nios2-elf/lib/libc.a(lib_a-vfprintf.o)
 .comment       0x00000000       0x27 /home/lordrafa/altera/12.1sp1/nios2eds/bin/gnu/H-i686-pc-linux-gnu/bin/../lib/gcc/nios2-elf/4.1.2/../../../../nios2-elf/lib/libc.a(lib_a-wsetup.o)
 .comment       0x00000000       0x27 /home/lordrafa/altera/12.1sp1/nios2eds/bin/gnu/H-i686-pc-linux-gnu/bin/../lib/gcc/nios2-elf/4.1.2/../../../../nios2-elf/lib/libc.a(lib_a-dtoa.o)
 .comment       0x00000000       0x27 /home/lordrafa/altera/12.1sp1/nios2eds/bin/gnu/H-i686-pc-linux-gnu/bin/../lib/gcc/nios2-elf/4.1.2/../../../../nios2-elf/lib/libc.a(lib_a-fflush.o)
 .comment       0x00000000       0x27 /home/lordrafa/altera/12.1sp1/nios2eds/bin/gnu/H-i686-pc-linux-gnu/bin/../lib/gcc/nios2-elf/4.1.2/../../../../nios2-elf/lib/libc.a(lib_a-findfp.o)
 .comment       0x00000000       0x27 /home/lordrafa/altera/12.1sp1/nios2eds/bin/gnu/H-i686-pc-linux-gnu/bin/../lib/gcc/nios2-elf/4.1.2/../../../../nios2-elf/lib/libc.a(lib_a-freer.o)
 .comment       0x00000000       0x27 /home/lordrafa/altera/12.1sp1/nios2eds/bin/gnu/H-i686-pc-linux-gnu/bin/../lib/gcc/nios2-elf/4.1.2/../../../../nios2-elf/lib/libc.a(lib_a-fvwrite.o)
 .comment       0x00000000       0x27 /home/lordrafa/altera/12.1sp1/nios2eds/bin/gnu/H-i686-pc-linux-gnu/bin/../lib/gcc/nios2-elf/4.1.2/../../../../nios2-elf/lib/libc.a(lib_a-fwalk.o)
 .comment       0x00000000       0x27 /home/lordrafa/altera/12.1sp1/nios2eds/bin/gnu/H-i686-pc-linux-gnu/bin/../lib/gcc/nios2-elf/4.1.2/../../../../nios2-elf/lib/libc.a(lib_a-impure.o)
 .comment       0x00000000       0x27 /home/lordrafa/altera/12.1sp1/nios2eds/bin/gnu/H-i686-pc-linux-gnu/bin/../lib/gcc/nios2-elf/4.1.2/../../../../nios2-elf/lib/libc.a(lib_a-int_errno.o)
 .comment       0x00000000       0x27 /home/lordrafa/altera/12.1sp1/nios2eds/bin/gnu/H-i686-pc-linux-gnu/bin/../lib/gcc/nios2-elf/4.1.2/../../../../nios2-elf/lib/libc.a(lib_a-locale.o)
 .comment       0x00000000       0x27 /home/lordrafa/altera/12.1sp1/nios2eds/bin/gnu/H-i686-pc-linux-gnu/bin/../lib/gcc/nios2-elf/4.1.2/../../../../nios2-elf/lib/libc.a(lib_a-makebuf.o)
 .comment       0x00000000       0x27 /home/lordrafa/altera/12.1sp1/nios2eds/bin/gnu/H-i686-pc-linux-gnu/bin/../lib/gcc/nios2-elf/4.1.2/../../../../nios2-elf/lib/libc.a(lib_a-memchr.o)
 .comment       0x00000000       0x27 /home/lordrafa/altera/12.1sp1/nios2eds/bin/gnu/H-i686-pc-linux-gnu/bin/../lib/gcc/nios2-elf/4.1.2/../../../../nios2-elf/lib/libc.a(lib_a-memmove.o)
 .comment       0x00000000       0x27 /home/lordrafa/altera/12.1sp1/nios2eds/bin/gnu/H-i686-pc-linux-gnu/bin/../lib/gcc/nios2-elf/4.1.2/../../../../nios2-elf/lib/libc.a(lib_a-mprec.o)
 .comment       0x00000000       0x27 /home/lordrafa/altera/12.1sp1/nios2eds/bin/gnu/H-i686-pc-linux-gnu/bin/../lib/gcc/nios2-elf/4.1.2/../../../../nios2-elf/lib/libc.a(lib_a-reallocr.o)
 .comment       0x00000000       0x27 /home/lordrafa/altera/12.1sp1/nios2eds/bin/gnu/H-i686-pc-linux-gnu/bin/../lib/gcc/nios2-elf/4.1.2/../../../../nios2-elf/lib/libc.a(lib_a-s_isinfd.o)
 .comment       0x00000000       0x27 /home/lordrafa/altera/12.1sp1/nios2eds/bin/gnu/H-i686-pc-linux-gnu/bin/../lib/gcc/nios2-elf/4.1.2/../../../../nios2-elf/lib/libc.a(lib_a-s_isnand.o)
 .comment       0x00000000       0x27 /home/lordrafa/altera/12.1sp1/nios2eds/bin/gnu/H-i686-pc-linux-gnu/bin/../lib/gcc/nios2-elf/4.1.2/../../../../nios2-elf/lib/libc.a(lib_a-stdio.o)
 .comment       0x00000000       0x27 /home/lordrafa/altera/12.1sp1/nios2eds/bin/gnu/H-i686-pc-linux-gnu/bin/../lib/gcc/nios2-elf/4.1.2/../../../../nios2-elf/lib/libc.a(lib_a-strcmp.o)
 .comment       0x00000000       0x27 /home/lordrafa/altera/12.1sp1/nios2eds/bin/gnu/H-i686-pc-linux-gnu/bin/../lib/gcc/nios2-elf/4.1.2/../../../../nios2-elf/lib/libc.a(lib_a-writer.o)
 .comment       0x00000000       0x27 /home/lordrafa/altera/12.1sp1/nios2eds/bin/gnu/H-i686-pc-linux-gnu/bin/../lib/gcc/nios2-elf/4.1.2/../../../../nios2-elf/lib/libc.a(lib_a-callocr.o)
 .comment       0x00000000       0x27 /home/lordrafa/altera/12.1sp1/nios2eds/bin/gnu/H-i686-pc-linux-gnu/bin/../lib/gcc/nios2-elf/4.1.2/../../../../nios2-elf/lib/libc.a(lib_a-closer.o)
 .comment       0x00000000       0x27 /home/lordrafa/altera/12.1sp1/nios2eds/bin/gnu/H-i686-pc-linux-gnu/bin/../lib/gcc/nios2-elf/4.1.2/../../../../nios2-elf/lib/libc.a(lib_a-fclose.o)
 .comment       0x00000000       0x27 /home/lordrafa/altera/12.1sp1/nios2eds/bin/gnu/H-i686-pc-linux-gnu/bin/../lib/gcc/nios2-elf/4.1.2/../../../../nios2-elf/lib/libc.a(lib_a-fstatr.o)
 .comment       0x00000000       0x27 /home/lordrafa/altera/12.1sp1/nios2eds/bin/gnu/H-i686-pc-linux-gnu/bin/../lib/gcc/nios2-elf/4.1.2/../../../../nios2-elf/lib/libc.a(lib_a-isattyr.o)
 .comment       0x00000000       0x27 /home/lordrafa/altera/12.1sp1/nios2eds/bin/gnu/H-i686-pc-linux-gnu/bin/../lib/gcc/nios2-elf/4.1.2/../../../../nios2-elf/lib/libc.a(lib_a-lseekr.o)
 .comment       0x00000000       0x27 /home/lordrafa/altera/12.1sp1/nios2eds/bin/gnu/H-i686-pc-linux-gnu/bin/../lib/gcc/nios2-elf/4.1.2/../../../../nios2-elf/lib/libc.a(lib_a-readr.o)
 .comment       0x00000000       0x27 /home/lordrafa/altera/12.1sp1/nios2eds/bin/gnu/H-i686-pc-linux-gnu/bin/../lib/gcc/nios2-elf/4.1.2/libgcc.a(_udivdi3.o)
 .comment       0x00000000       0x27 /home/lordrafa/altera/12.1sp1/nios2eds/bin/gnu/H-i686-pc-linux-gnu/bin/../lib/gcc/nios2-elf/4.1.2/libgcc.a(_umoddi3.o)
 .comment       0x00000000       0x27 /home/lordrafa/altera/12.1sp1/nios2eds/bin/gnu/H-i686-pc-linux-gnu/bin/../lib/gcc/nios2-elf/4.1.2/libgcc.a(_addsub_df.o)
 .comment       0x00000000       0x27 /home/lordrafa/altera/12.1sp1/nios2eds/bin/gnu/H-i686-pc-linux-gnu/bin/../lib/gcc/nios2-elf/4.1.2/libgcc.a(_mul_df.o)
 .comment       0x00000000       0x27 /home/lordrafa/altera/12.1sp1/nios2eds/bin/gnu/H-i686-pc-linux-gnu/bin/../lib/gcc/nios2-elf/4.1.2/libgcc.a(_div_df.o)
 .comment       0x00000000       0x27 /home/lordrafa/altera/12.1sp1/nios2eds/bin/gnu/H-i686-pc-linux-gnu/bin/../lib/gcc/nios2-elf/4.1.2/libgcc.a(_eq_df.o)
 .comment       0x00000000       0x27 /home/lordrafa/altera/12.1sp1/nios2eds/bin/gnu/H-i686-pc-linux-gnu/bin/../lib/gcc/nios2-elf/4.1.2/libgcc.a(_ne_df.o)
 .comment       0x00000000       0x27 /home/lordrafa/altera/12.1sp1/nios2eds/bin/gnu/H-i686-pc-linux-gnu/bin/../lib/gcc/nios2-elf/4.1.2/libgcc.a(_gt_df.o)
 .comment       0x00000000       0x27 /home/lordrafa/altera/12.1sp1/nios2eds/bin/gnu/H-i686-pc-linux-gnu/bin/../lib/gcc/nios2-elf/4.1.2/libgcc.a(_ge_df.o)
 .comment       0x00000000       0x27 /home/lordrafa/altera/12.1sp1/nios2eds/bin/gnu/H-i686-pc-linux-gnu/bin/../lib/gcc/nios2-elf/4.1.2/libgcc.a(_lt_df.o)
 .comment       0x00000000       0x27 /home/lordrafa/altera/12.1sp1/nios2eds/bin/gnu/H-i686-pc-linux-gnu/bin/../lib/gcc/nios2-elf/4.1.2/libgcc.a(_si_to_df.o)
 .comment       0x00000000       0x27 /home/lordrafa/altera/12.1sp1/nios2eds/bin/gnu/H-i686-pc-linux-gnu/bin/../lib/gcc/nios2-elf/4.1.2/libgcc.a(_df_to_si.o)
 .comment       0x00000000       0x27 /home/lordrafa/altera/12.1sp1/nios2eds/bin/gnu/H-i686-pc-linux-gnu/bin/../lib/gcc/nios2-elf/4.1.2/libgcc.a(_thenan_df.o)
 .comment       0x00000000       0x27 /home/lordrafa/altera/12.1sp1/nios2eds/bin/gnu/H-i686-pc-linux-gnu/bin/../lib/gcc/nios2-elf/4.1.2/libgcc.a(_usi_to_df.o)
 .comment       0x00000000       0x27 /home/lordrafa/altera/12.1sp1/nios2eds/bin/gnu/H-i686-pc-linux-gnu/bin/../lib/gcc/nios2-elf/4.1.2/libgcc.a(_muldi3.o)
 .comment       0x00000000       0x27 /home/lordrafa/altera/12.1sp1/nios2eds/bin/gnu/H-i686-pc-linux-gnu/bin/../lib/gcc/nios2-elf/4.1.2/libgcc.a(_clz.o)
 .comment       0x00000000       0x27 /home/lordrafa/altera/12.1sp1/nios2eds/bin/gnu/H-i686-pc-linux-gnu/bin/../lib/gcc/nios2-elf/4.1.2/libgcc.a(_clzsi2.o)
 .comment       0x00000000       0x27 /home/lordrafa/altera/12.1sp1/nios2eds/bin/gnu/H-i686-pc-linux-gnu/bin/../lib/gcc/nios2-elf/4.1.2/libgcc.a(_pack_df.o)
 .comment       0x00000000       0x27 /home/lordrafa/altera/12.1sp1/nios2eds/bin/gnu/H-i686-pc-linux-gnu/bin/../lib/gcc/nios2-elf/4.1.2/libgcc.a(_unpack_df.o)
 .comment       0x00000000       0x27 /home/lordrafa/altera/12.1sp1/nios2eds/bin/gnu/H-i686-pc-linux-gnu/bin/../lib/gcc/nios2-elf/4.1.2/libgcc.a(_fpcmp_parts_df.o)
 .comment       0x00000000       0x27 ../RawaPro_Linux_Cache_bsp//libhal_bsp.a(alt_close.o)
 .comment       0x00000000       0x27 ../RawaPro_Linux_Cache_bsp//libhal_bsp.a(alt_dev.o)
 .comment       0x00000000       0x27 ../RawaPro_Linux_Cache_bsp//libhal_bsp.a(alt_errno.o)
 .comment       0x00000000       0x27 ../RawaPro_Linux_Cache_bsp//libhal_bsp.a(alt_exit.o)
 .comment       0x00000000       0x27 ../RawaPro_Linux_Cache_bsp//libhal_bsp.a(alt_fstat.o)
 .comment       0x00000000       0x27 ../RawaPro_Linux_Cache_bsp//libhal_bsp.a(alt_getpid.o)
 .comment       0x00000000       0x27 ../RawaPro_Linux_Cache_bsp//libhal_bsp.a(alt_iic.o)
 .comment       0x00000000       0x27 ../RawaPro_Linux_Cache_bsp//libhal_bsp.a(alt_iic_isr_register.o)
 .comment       0x00000000       0x27 ../RawaPro_Linux_Cache_bsp//libhal_bsp.a(alt_irq_handler.o)
 .comment       0x00000000       0x27 ../RawaPro_Linux_Cache_bsp//libhal_bsp.a(alt_irq_vars.o)
 .comment       0x00000000       0x27 ../RawaPro_Linux_Cache_bsp//libhal_bsp.a(alt_isatty.o)
 .comment       0x00000000       0x27 ../RawaPro_Linux_Cache_bsp//libhal_bsp.a(alt_kill.o)
 .comment       0x00000000       0x27 ../RawaPro_Linux_Cache_bsp//libhal_bsp.a(alt_load.o)
 .comment       0x00000000       0x27 ../RawaPro_Linux_Cache_bsp//libhal_bsp.a(alt_lseek.o)
 .comment       0x00000000       0x27 ../RawaPro_Linux_Cache_bsp//libhal_bsp.a(alt_main.o)
 .comment       0x00000000       0x27 ../RawaPro_Linux_Cache_bsp//libhal_bsp.a(alt_malloc_lock.o)
 .comment       0x00000000       0x27 ../RawaPro_Linux_Cache_bsp//libhal_bsp.a(alt_read.o)
 .comment       0x00000000       0x27 ../RawaPro_Linux_Cache_bsp//libhal_bsp.a(alt_release_fd.o)
 .comment       0x00000000       0x27 ../RawaPro_Linux_Cache_bsp//libhal_bsp.a(alt_remap_uncached.o)
 .comment       0x00000000       0x27 ../RawaPro_Linux_Cache_bsp//libhal_bsp.a(alt_sbrk.o)
 .comment       0x00000000       0x27 ../RawaPro_Linux_Cache_bsp//libhal_bsp.a(alt_tick.o)
 .comment       0x00000000       0x27 ../RawaPro_Linux_Cache_bsp//libhal_bsp.a(alt_uncached_malloc.o)
 .comment       0x00000000       0x27 ../RawaPro_Linux_Cache_bsp//libhal_bsp.a(alt_usleep.o)
 .comment       0x00000000       0x27 ../RawaPro_Linux_Cache_bsp//libhal_bsp.a(alt_write.o)
 .comment       0x00000000       0x27 ../RawaPro_Linux_Cache_bsp//libhal_bsp.a(alt_sys_init.o)
 .comment       0x00000000       0x27 ../RawaPro_Linux_Cache_bsp//libhal_bsp.a(altera_avalon_jtag_uart_fd.o)
 .comment       0x00000000       0x27 ../RawaPro_Linux_Cache_bsp//libhal_bsp.a(altera_avalon_jtag_uart_init.o)
 .comment       0x00000000       0x27 ../RawaPro_Linux_Cache_bsp//libhal_bsp.a(altera_avalon_jtag_uart_ioctl.o)
 .comment       0x00000000       0x27 ../RawaPro_Linux_Cache_bsp//libhal_bsp.a(altera_avalon_jtag_uart_read.o)
 .comment       0x00000000       0x27 ../RawaPro_Linux_Cache_bsp//libhal_bsp.a(altera_avalon_jtag_uart_write.o)
 .comment       0x00000000       0x27 ../RawaPro_Linux_Cache_bsp//libhal_bsp.a(altera_avalon_performance_counter.o)
 .comment       0x00000000       0x27 ../RawaPro_Linux_Cache_bsp//libhal_bsp.a(altera_avalon_timer_sc.o)
 .comment       0x00000000       0x27 ../RawaPro_Linux_Cache_bsp//libhal_bsp.a(alt_alarm_start.o)
 .comment       0x00000000       0x27 ../RawaPro_Linux_Cache_bsp//libhal_bsp.a(alt_busy_sleep.o)
 .comment       0x00000000       0x27 ../RawaPro_Linux_Cache_bsp//libhal_bsp.a(alt_dcache_flush.o)
 .comment       0x00000000       0x27 ../RawaPro_Linux_Cache_bsp//libhal_bsp.a(alt_dcache_flush_all.o)
 .comment       0x00000000       0x27 ../RawaPro_Linux_Cache_bsp//libhal_bsp.a(alt_dev_llist_insert.o)
 .comment       0x00000000       0x27 ../RawaPro_Linux_Cache_bsp//libhal_bsp.a(alt_do_ctors.o)
 .comment       0x00000000       0x27 ../RawaPro_Linux_Cache_bsp//libhal_bsp.a(alt_do_dtors.o)
 .comment       0x00000000       0x27 ../RawaPro_Linux_Cache_bsp//libhal_bsp.a(alt_icache_flush_all.o)
 .comment       0x00000000       0x27 ../RawaPro_Linux_Cache_bsp//libhal_bsp.a(alt_io_redirect.o)
 .comment       0x00000000       0x27 ../RawaPro_Linux_Cache_bsp//libhal_bsp.a(alt_open.o)
 .comment       0x00000000       0x27 ../RawaPro_Linux_Cache_bsp//libhal_bsp.a(altera_nios2_qsys_irq.o)
 .comment       0x00000000       0x27 ../RawaPro_Linux_Cache_bsp//libhal_bsp.a(alt_find_dev.o)
 .comment       0x00000000       0x27 ../RawaPro_Linux_Cache_bsp//libhal_bsp.a(alt_find_file.o)
 .comment       0x00000000       0x27 ../RawaPro_Linux_Cache_bsp//libhal_bsp.a(alt_get_fd.o)
 .comment       0x00000000       0x27 ../RawaPro_Linux_Cache_bsp//libhal_bsp.a(alt_icache_flush.o)
 .comment       0x00000000       0x27 /home/lordrafa/altera/12.1sp1/nios2eds/bin/gnu/H-i686-pc-linux-gnu/bin/../lib/gcc/nios2-elf/4.1.2/../../../../nios2-elf/lib/libc.a(lib_a-atexit.o)
 .comment       0x00000000       0x27 /home/lordrafa/altera/12.1sp1/nios2eds/bin/gnu/H-i686-pc-linux-gnu/bin/../lib/gcc/nios2-elf/4.1.2/../../../../nios2-elf/lib/libc.a(lib_a-exit.o)
 .comment       0x00000000       0x27 /home/lordrafa/altera/12.1sp1/nios2eds/bin/gnu/H-i686-pc-linux-gnu/bin/../lib/gcc/nios2-elf/4.1.2/../../../../nios2-elf/lib/libc.a(lib_a-memcmp.o)
 .comment       0x00000000       0x27 /home/lordrafa/altera/12.1sp1/nios2eds/bin/gnu/H-i686-pc-linux-gnu/bin/../lib/gcc/nios2-elf/4.1.2/../../../../nios2-elf/lib/libc.a(lib_a-__atexit.o)
 .comment       0x00000000       0x27 /home/lordrafa/altera/12.1sp1/nios2eds/bin/gnu/H-i686-pc-linux-gnu/bin/../lib/gcc/nios2-elf/4.1.2/../../../../nios2-elf/lib/libc.a(lib_a-__call_atexit.o)

.debug
 *(.debug)

.line
 *(.line)

.debug_srcinfo
 *(.debug_srcinfo)

.debug_sfnames
 *(.debug_sfnames)

.debug_aranges  0x00000000     0x11b0
 *(.debug_aranges)
 .debug_aranges
                0x00000000       0x28 ../RawaPro_Linux_Cache_bsp//obj/HAL/src/crt0.o
 .debug_aranges
                0x00000028       0x20 obj/default/alt_tpo_lcd/alt_tpo_lcd.o
 .debug_aranges
                0x00000048       0x20 obj/default/alt_video_display/alt_video_display.o
 .debug_aranges
                0x00000068       0x20 obj/default/audio_tvdecoder/i2c.o
 .debug_aranges
                0x00000088       0x20 obj/default/audio_tvdecoder/tvdecoder_ctrl.o
 .debug_aranges
                0x000000a8       0x20 obj/default/graphics_lib/simple_graphics.o
 .debug_aranges
                0x000000c8       0x20 obj/default/graphics_lib/simple_text.o
 .debug_aranges
                0x000000e8       0x20 obj/default/keyhandler/keyhandler.o
 .debug_aranges
                0x00000108       0x20 obj/default/main.o
 .debug_aranges
                0x00000128       0x20 obj/default/sfs/sfs.o
 .debug_aranges
                0x00000148       0x98 obj/default/framereader/vip_wrapper_for_c_func.o
 .debug_aranges
                0x000001e0       0x20 /home/lordrafa/altera/12.1sp1/nios2eds/bin/gnu/H-i686-pc-linux-gnu/bin/../lib/gcc/nios2-elf/4.1.2/../../../../nios2-elf/lib/libstdc++.a(eh_personality.o)
 .debug_aranges
                0x00000200       0x20 /home/lordrafa/altera/12.1sp1/nios2eds/bin/gnu/H-i686-pc-linux-gnu/bin/../lib/gcc/nios2-elf/4.1.2/../../../../nios2-elf/lib/libstdc++.a(eh_terminate.o)
 .debug_aranges
                0x00000220       0x20 /home/lordrafa/altera/12.1sp1/nios2eds/bin/gnu/H-i686-pc-linux-gnu/bin/../lib/gcc/nios2-elf/4.1.2/../../../../nios2-elf/lib/libstdc++.a(eh_catch.o)
 .debug_aranges
                0x00000240       0x20 /home/lordrafa/altera/12.1sp1/nios2eds/bin/gnu/H-i686-pc-linux-gnu/bin/../lib/gcc/nios2-elf/4.1.2/../../../../nios2-elf/lib/libstdc++.a(del_op.o)
 .debug_aranges
                0x00000260       0x20 /home/lordrafa/altera/12.1sp1/nios2eds/bin/gnu/H-i686-pc-linux-gnu/bin/../lib/gcc/nios2-elf/4.1.2/../../../../nios2-elf/lib/libstdc++.a(eh_throw.o)
 .debug_aranges
                0x00000280       0x20 /home/lordrafa/altera/12.1sp1/nios2eds/bin/gnu/H-i686-pc-linux-gnu/bin/../lib/gcc/nios2-elf/4.1.2/../../../../nios2-elf/lib/libstdc++.a(eh_alloc.o)
 .debug_aranges
                0x000002a0       0x20 /home/lordrafa/altera/12.1sp1/nios2eds/bin/gnu/H-i686-pc-linux-gnu/bin/../lib/gcc/nios2-elf/4.1.2/../../../../nios2-elf/lib/libstdc++.a(new_op.o)
 .debug_aranges
                0x000002c0       0x20 /home/lordrafa/altera/12.1sp1/nios2eds/bin/gnu/H-i686-pc-linux-gnu/bin/../lib/gcc/nios2-elf/4.1.2/../../../../nios2-elf/lib/libstdc++.a(eh_exception.o)
 .debug_aranges
                0x000002e0       0x20 /home/lordrafa/altera/12.1sp1/nios2eds/bin/gnu/H-i686-pc-linux-gnu/bin/../lib/gcc/nios2-elf/4.1.2/../../../../nios2-elf/lib/libstdc++.a(eh_call.o)
 .debug_aranges
                0x00000300       0x20 /home/lordrafa/altera/12.1sp1/nios2eds/bin/gnu/H-i686-pc-linux-gnu/bin/../lib/gcc/nios2-elf/4.1.2/../../../../nios2-elf/lib/libstdc++.a(new_handler.o)
 .debug_aranges
                0x00000320       0x20 /home/lordrafa/altera/12.1sp1/nios2eds/bin/gnu/H-i686-pc-linux-gnu/bin/../lib/gcc/nios2-elf/4.1.2/../../../../nios2-elf/lib/libstdc++.a(eh_globals.o)
 .debug_aranges
                0x00000340       0x20 /home/lordrafa/altera/12.1sp1/nios2eds/bin/gnu/H-i686-pc-linux-gnu/bin/../lib/gcc/nios2-elf/4.1.2/../../../../nios2-elf/lib/libstdc++.a(class_type_info.o)
 .debug_aranges
                0x00000360       0x20 /home/lordrafa/altera/12.1sp1/nios2eds/bin/gnu/H-i686-pc-linux-gnu/bin/../lib/gcc/nios2-elf/4.1.2/../../../../nios2-elf/lib/libstdc++.a(si_class_type_info.o)
 .debug_aranges
                0x00000380       0x20 /home/lordrafa/altera/12.1sp1/nios2eds/bin/gnu/H-i686-pc-linux-gnu/bin/../lib/gcc/nios2-elf/4.1.2/../../../../nios2-elf/lib/libstdc++.a(tinfo.o)
 .debug_aranges
                0x000003a0       0x20 /home/lordrafa/altera/12.1sp1/nios2eds/bin/gnu/H-i686-pc-linux-gnu/bin/../lib/gcc/nios2-elf/4.1.2/libgcc.a(lib2-divmod.o)
 .debug_aranges
                0x000003c0       0x20 /home/lordrafa/altera/12.1sp1/nios2eds/bin/gnu/H-i686-pc-linux-gnu/bin/../lib/gcc/nios2-elf/4.1.2/libgcc.a(unwind-sjlj.o)
 .debug_aranges
                0x000003e0       0x20 /home/lordrafa/altera/12.1sp1/nios2eds/bin/gnu/H-i686-pc-linux-gnu/bin/../lib/gcc/nios2-elf/4.1.2/../../../../nios2-elf/lib/libc.a(lib_a-abort.o)
 .debug_aranges
                0x00000400       0x20 /home/lordrafa/altera/12.1sp1/nios2eds/bin/gnu/H-i686-pc-linux-gnu/bin/../lib/gcc/nios2-elf/4.1.2/../../../../nios2-elf/lib/libc.a(lib_a-malloc.o)
 .debug_aranges
                0x00000420       0x20 /home/lordrafa/altera/12.1sp1/nios2eds/bin/gnu/H-i686-pc-linux-gnu/bin/../lib/gcc/nios2-elf/4.1.2/../../../../nios2-elf/lib/libc.a(lib_a-mallocr.o)
 .debug_aranges
                0x00000440       0x20 /home/lordrafa/altera/12.1sp1/nios2eds/bin/gnu/H-i686-pc-linux-gnu/bin/../lib/gcc/nios2-elf/4.1.2/../../../../nios2-elf/lib/libc.a(lib_a-memcpy.o)
 .debug_aranges
                0x00000460       0x20 /home/lordrafa/altera/12.1sp1/nios2eds/bin/gnu/H-i686-pc-linux-gnu/bin/../lib/gcc/nios2-elf/4.1.2/../../../../nios2-elf/lib/libc.a(lib_a-memset.o)
 .debug_aranges
                0x00000480       0x20 /home/lordrafa/altera/12.1sp1/nios2eds/bin/gnu/H-i686-pc-linux-gnu/bin/../lib/gcc/nios2-elf/4.1.2/../../../../nios2-elf/lib/libc.a(lib_a-printf.o)
 .debug_aranges
                0x000004a0       0x20 /home/lordrafa/altera/12.1sp1/nios2eds/bin/gnu/H-i686-pc-linux-gnu/bin/../lib/gcc/nios2-elf/4.1.2/../../../../nios2-elf/lib/libc.a(lib_a-puts.o)
 .debug_aranges
                0x000004c0       0x20 /home/lordrafa/altera/12.1sp1/nios2eds/bin/gnu/H-i686-pc-linux-gnu/bin/../lib/gcc/nios2-elf/4.1.2/../../../../nios2-elf/lib/libc.a(lib_a-sbrkr.o)
 .debug_aranges
                0x000004e0       0x20 /home/lordrafa/altera/12.1sp1/nios2eds/bin/gnu/H-i686-pc-linux-gnu/bin/../lib/gcc/nios2-elf/4.1.2/../../../../nios2-elf/lib/libc.a(lib_a-signal.o)
 .debug_aranges
                0x00000500       0x20 /home/lordrafa/altera/12.1sp1/nios2eds/bin/gnu/H-i686-pc-linux-gnu/bin/../lib/gcc/nios2-elf/4.1.2/../../../../nios2-elf/lib/libc.a(lib_a-signalr.o)
 .debug_aranges
                0x00000520       0x20 /home/lordrafa/altera/12.1sp1/nios2eds/bin/gnu/H-i686-pc-linux-gnu/bin/../lib/gcc/nios2-elf/4.1.2/../../../../nios2-elf/lib/libc.a(lib_a-snprintf.o)
 .debug_aranges
                0x00000540       0x20 /home/lordrafa/altera/12.1sp1/nios2eds/bin/gnu/H-i686-pc-linux-gnu/bin/../lib/gcc/nios2-elf/4.1.2/../../../../nios2-elf/lib/libc.a(lib_a-strcpy.o)
 .debug_aranges
                0x00000560       0x20 /home/lordrafa/altera/12.1sp1/nios2eds/bin/gnu/H-i686-pc-linux-gnu/bin/../lib/gcc/nios2-elf/4.1.2/../../../../nios2-elf/lib/libc.a(lib_a-strlen.o)
 .debug_aranges
                0x00000580       0x20 /home/lordrafa/altera/12.1sp1/nios2eds/bin/gnu/H-i686-pc-linux-gnu/bin/../lib/gcc/nios2-elf/4.1.2/../../../../nios2-elf/lib/libc.a(lib_a-vfprintf.o)
 .debug_aranges
                0x000005a0       0x20 /home/lordrafa/altera/12.1sp1/nios2eds/bin/gnu/H-i686-pc-linux-gnu/bin/../lib/gcc/nios2-elf/4.1.2/../../../../nios2-elf/lib/libc.a(lib_a-wsetup.o)
 .debug_aranges
                0x000005c0       0x20 /home/lordrafa/altera/12.1sp1/nios2eds/bin/gnu/H-i686-pc-linux-gnu/bin/../lib/gcc/nios2-elf/4.1.2/../../../../nios2-elf/lib/libc.a(lib_a-dtoa.o)
 .debug_aranges
                0x000005e0       0x20 /home/lordrafa/altera/12.1sp1/nios2eds/bin/gnu/H-i686-pc-linux-gnu/bin/../lib/gcc/nios2-elf/4.1.2/../../../../nios2-elf/lib/libc.a(lib_a-fflush.o)
 .debug_aranges
                0x00000600       0x20 /home/lordrafa/altera/12.1sp1/nios2eds/bin/gnu/H-i686-pc-linux-gnu/bin/../lib/gcc/nios2-elf/4.1.2/../../../../nios2-elf/lib/libc.a(lib_a-findfp.o)
 .debug_aranges
                0x00000620       0x20 /home/lordrafa/altera/12.1sp1/nios2eds/bin/gnu/H-i686-pc-linux-gnu/bin/../lib/gcc/nios2-elf/4.1.2/../../../../nios2-elf/lib/libc.a(lib_a-freer.o)
 .debug_aranges
                0x00000640       0x20 /home/lordrafa/altera/12.1sp1/nios2eds/bin/gnu/H-i686-pc-linux-gnu/bin/../lib/gcc/nios2-elf/4.1.2/../../../../nios2-elf/lib/libc.a(lib_a-fvwrite.o)
 .debug_aranges
                0x00000660       0x20 /home/lordrafa/altera/12.1sp1/nios2eds/bin/gnu/H-i686-pc-linux-gnu/bin/../lib/gcc/nios2-elf/4.1.2/../../../../nios2-elf/lib/libc.a(lib_a-fwalk.o)
 .debug_aranges
                0x00000680       0x20 /home/lordrafa/altera/12.1sp1/nios2eds/bin/gnu/H-i686-pc-linux-gnu/bin/../lib/gcc/nios2-elf/4.1.2/../../../../nios2-elf/lib/libc.a(lib_a-locale.o)
 .debug_aranges
                0x000006a0       0x20 /home/lordrafa/altera/12.1sp1/nios2eds/bin/gnu/H-i686-pc-linux-gnu/bin/../lib/gcc/nios2-elf/4.1.2/../../../../nios2-elf/lib/libc.a(lib_a-makebuf.o)
 .debug_aranges
                0x000006c0       0x20 /home/lordrafa/altera/12.1sp1/nios2eds/bin/gnu/H-i686-pc-linux-gnu/bin/../lib/gcc/nios2-elf/4.1.2/../../../../nios2-elf/lib/libc.a(lib_a-memchr.o)
 .debug_aranges
                0x000006e0       0x20 /home/lordrafa/altera/12.1sp1/nios2eds/bin/gnu/H-i686-pc-linux-gnu/bin/../lib/gcc/nios2-elf/4.1.2/../../../../nios2-elf/lib/libc.a(lib_a-memmove.o)
 .debug_aranges
                0x00000700       0x20 /home/lordrafa/altera/12.1sp1/nios2eds/bin/gnu/H-i686-pc-linux-gnu/bin/../lib/gcc/nios2-elf/4.1.2/../../../../nios2-elf/lib/libc.a(lib_a-mprec.o)
 .debug_aranges
                0x00000720       0x20 /home/lordrafa/altera/12.1sp1/nios2eds/bin/gnu/H-i686-pc-linux-gnu/bin/../lib/gcc/nios2-elf/4.1.2/../../../../nios2-elf/lib/libc.a(lib_a-reallocr.o)
 .debug_aranges
                0x00000740       0x20 /home/lordrafa/altera/12.1sp1/nios2eds/bin/gnu/H-i686-pc-linux-gnu/bin/../lib/gcc/nios2-elf/4.1.2/../../../../nios2-elf/lib/libc.a(lib_a-s_isinfd.o)
 .debug_aranges
                0x00000760       0x20 /home/lordrafa/altera/12.1sp1/nios2eds/bin/gnu/H-i686-pc-linux-gnu/bin/../lib/gcc/nios2-elf/4.1.2/../../../../nios2-elf/lib/libc.a(lib_a-s_isnand.o)
 .debug_aranges
                0x00000780       0x20 /home/lordrafa/altera/12.1sp1/nios2eds/bin/gnu/H-i686-pc-linux-gnu/bin/../lib/gcc/nios2-elf/4.1.2/../../../../nios2-elf/lib/libc.a(lib_a-stdio.o)
 .debug_aranges
                0x000007a0       0x20 /home/lordrafa/altera/12.1sp1/nios2eds/bin/gnu/H-i686-pc-linux-gnu/bin/../lib/gcc/nios2-elf/4.1.2/../../../../nios2-elf/lib/libc.a(lib_a-strcmp.o)
 .debug_aranges
                0x000007c0       0x20 /home/lordrafa/altera/12.1sp1/nios2eds/bin/gnu/H-i686-pc-linux-gnu/bin/../lib/gcc/nios2-elf/4.1.2/../../../../nios2-elf/lib/libc.a(lib_a-writer.o)
 .debug_aranges
                0x000007e0       0x20 /home/lordrafa/altera/12.1sp1/nios2eds/bin/gnu/H-i686-pc-linux-gnu/bin/../lib/gcc/nios2-elf/4.1.2/../../../../nios2-elf/lib/libc.a(lib_a-callocr.o)
 .debug_aranges
                0x00000800       0x20 /home/lordrafa/altera/12.1sp1/nios2eds/bin/gnu/H-i686-pc-linux-gnu/bin/../lib/gcc/nios2-elf/4.1.2/../../../../nios2-elf/lib/libc.a(lib_a-closer.o)
 .debug_aranges
                0x00000820       0x20 /home/lordrafa/altera/12.1sp1/nios2eds/bin/gnu/H-i686-pc-linux-gnu/bin/../lib/gcc/nios2-elf/4.1.2/../../../../nios2-elf/lib/libc.a(lib_a-fclose.o)
 .debug_aranges
                0x00000840       0x20 /home/lordrafa/altera/12.1sp1/nios2eds/bin/gnu/H-i686-pc-linux-gnu/bin/../lib/gcc/nios2-elf/4.1.2/../../../../nios2-elf/lib/libc.a(lib_a-fstatr.o)
 .debug_aranges
                0x00000860       0x20 /home/lordrafa/altera/12.1sp1/nios2eds/bin/gnu/H-i686-pc-linux-gnu/bin/../lib/gcc/nios2-elf/4.1.2/../../../../nios2-elf/lib/libc.a(lib_a-isattyr.o)
 .debug_aranges
                0x00000880       0x20 /home/lordrafa/altera/12.1sp1/nios2eds/bin/gnu/H-i686-pc-linux-gnu/bin/../lib/gcc/nios2-elf/4.1.2/../../../../nios2-elf/lib/libc.a(lib_a-lseekr.o)
 .debug_aranges
                0x000008a0       0x20 /home/lordrafa/altera/12.1sp1/nios2eds/bin/gnu/H-i686-pc-linux-gnu/bin/../lib/gcc/nios2-elf/4.1.2/../../../../nios2-elf/lib/libc.a(lib_a-readr.o)
 .debug_aranges
                0x000008c0       0x20 /home/lordrafa/altera/12.1sp1/nios2eds/bin/gnu/H-i686-pc-linux-gnu/bin/../lib/gcc/nios2-elf/4.1.2/libgcc.a(_udivdi3.o)
 .debug_aranges
                0x000008e0       0x20 /home/lordrafa/altera/12.1sp1/nios2eds/bin/gnu/H-i686-pc-linux-gnu/bin/../lib/gcc/nios2-elf/4.1.2/libgcc.a(_umoddi3.o)
 .debug_aranges
                0x00000900       0x20 /home/lordrafa/altera/12.1sp1/nios2eds/bin/gnu/H-i686-pc-linux-gnu/bin/../lib/gcc/nios2-elf/4.1.2/libgcc.a(_addsub_df.o)
 .debug_aranges
                0x00000920       0x20 /home/lordrafa/altera/12.1sp1/nios2eds/bin/gnu/H-i686-pc-linux-gnu/bin/../lib/gcc/nios2-elf/4.1.2/libgcc.a(_mul_df.o)
 .debug_aranges
                0x00000940       0x20 /home/lordrafa/altera/12.1sp1/nios2eds/bin/gnu/H-i686-pc-linux-gnu/bin/../lib/gcc/nios2-elf/4.1.2/libgcc.a(_div_df.o)
 .debug_aranges
                0x00000960       0x20 /home/lordrafa/altera/12.1sp1/nios2eds/bin/gnu/H-i686-pc-linux-gnu/bin/../lib/gcc/nios2-elf/4.1.2/libgcc.a(_eq_df.o)
 .debug_aranges
                0x00000980       0x20 /home/lordrafa/altera/12.1sp1/nios2eds/bin/gnu/H-i686-pc-linux-gnu/bin/../lib/gcc/nios2-elf/4.1.2/libgcc.a(_ne_df.o)
 .debug_aranges
                0x000009a0       0x20 /home/lordrafa/altera/12.1sp1/nios2eds/bin/gnu/H-i686-pc-linux-gnu/bin/../lib/gcc/nios2-elf/4.1.2/libgcc.a(_gt_df.o)
 .debug_aranges
                0x000009c0       0x20 /home/lordrafa/altera/12.1sp1/nios2eds/bin/gnu/H-i686-pc-linux-gnu/bin/../lib/gcc/nios2-elf/4.1.2/libgcc.a(_ge_df.o)
 .debug_aranges
                0x000009e0       0x20 /home/lordrafa/altera/12.1sp1/nios2eds/bin/gnu/H-i686-pc-linux-gnu/bin/../lib/gcc/nios2-elf/4.1.2/libgcc.a(_lt_df.o)
 .debug_aranges
                0x00000a00       0x20 /home/lordrafa/altera/12.1sp1/nios2eds/bin/gnu/H-i686-pc-linux-gnu/bin/../lib/gcc/nios2-elf/4.1.2/libgcc.a(_si_to_df.o)
 .debug_aranges
                0x00000a20       0x20 /home/lordrafa/altera/12.1sp1/nios2eds/bin/gnu/H-i686-pc-linux-gnu/bin/../lib/gcc/nios2-elf/4.1.2/libgcc.a(_df_to_si.o)
 .debug_aranges
                0x00000a40       0x20 /home/lordrafa/altera/12.1sp1/nios2eds/bin/gnu/H-i686-pc-linux-gnu/bin/../lib/gcc/nios2-elf/4.1.2/libgcc.a(_usi_to_df.o)
 .debug_aranges
                0x00000a60       0x20 /home/lordrafa/altera/12.1sp1/nios2eds/bin/gnu/H-i686-pc-linux-gnu/bin/../lib/gcc/nios2-elf/4.1.2/libgcc.a(_muldi3.o)
 .debug_aranges
                0x00000a80       0x20 /home/lordrafa/altera/12.1sp1/nios2eds/bin/gnu/H-i686-pc-linux-gnu/bin/../lib/gcc/nios2-elf/4.1.2/libgcc.a(_clzsi2.o)
 .debug_aranges
                0x00000aa0       0x20 /home/lordrafa/altera/12.1sp1/nios2eds/bin/gnu/H-i686-pc-linux-gnu/bin/../lib/gcc/nios2-elf/4.1.2/libgcc.a(_pack_df.o)
 .debug_aranges
                0x00000ac0       0x20 /home/lordrafa/altera/12.1sp1/nios2eds/bin/gnu/H-i686-pc-linux-gnu/bin/../lib/gcc/nios2-elf/4.1.2/libgcc.a(_unpack_df.o)
 .debug_aranges
                0x00000ae0       0x20 /home/lordrafa/altera/12.1sp1/nios2eds/bin/gnu/H-i686-pc-linux-gnu/bin/../lib/gcc/nios2-elf/4.1.2/libgcc.a(_fpcmp_parts_df.o)
 .debug_aranges
                0x00000b00       0x20 ../RawaPro_Linux_Cache_bsp//libhal_bsp.a(alt_close.o)
 .debug_aranges
                0x00000b20       0x20 ../RawaPro_Linux_Cache_bsp//libhal_bsp.a(alt_dev.o)
 .debug_aranges
                0x00000b40       0x20 ../RawaPro_Linux_Cache_bsp//libhal_bsp.a(alt_exit.o)
 .debug_aranges
                0x00000b60       0x20 ../RawaPro_Linux_Cache_bsp//libhal_bsp.a(alt_fstat.o)
 .debug_aranges
                0x00000b80       0x20 ../RawaPro_Linux_Cache_bsp//libhal_bsp.a(alt_getpid.o)
 .debug_aranges
                0x00000ba0       0x20 ../RawaPro_Linux_Cache_bsp//libhal_bsp.a(alt_iic.o)
 .debug_aranges
                0x00000bc0       0x20 ../RawaPro_Linux_Cache_bsp//libhal_bsp.a(alt_iic_isr_register.o)
 .debug_aranges
                0x00000be0       0x30 ../RawaPro_Linux_Cache_bsp//libhal_bsp.a(alt_irq_entry.o)
 .debug_aranges
                0x00000c10       0x28 ../RawaPro_Linux_Cache_bsp//libhal_bsp.a(alt_irq_handler.o)
 .debug_aranges
                0x00000c38       0x20 ../RawaPro_Linux_Cache_bsp//libhal_bsp.a(alt_isatty.o)
 .debug_aranges
                0x00000c58       0x20 ../RawaPro_Linux_Cache_bsp//libhal_bsp.a(alt_kill.o)
 .debug_aranges
                0x00000c78       0x20 ../RawaPro_Linux_Cache_bsp//libhal_bsp.a(alt_load.o)
 .debug_aranges
                0x00000c98       0x20 ../RawaPro_Linux_Cache_bsp//libhal_bsp.a(alt_lseek.o)
 .debug_aranges
                0x00000cb8       0x20 ../RawaPro_Linux_Cache_bsp//libhal_bsp.a(alt_main.o)
 .debug_aranges
                0x00000cd8       0x20 ../RawaPro_Linux_Cache_bsp//libhal_bsp.a(alt_malloc_lock.o)
 .debug_aranges
                0x00000cf8       0x20 ../RawaPro_Linux_Cache_bsp//libhal_bsp.a(alt_read.o)
 .debug_aranges
                0x00000d18       0x20 ../RawaPro_Linux_Cache_bsp//libhal_bsp.a(alt_release_fd.o)
 .debug_aranges
                0x00000d38       0x20 ../RawaPro_Linux_Cache_bsp//libhal_bsp.a(alt_remap_uncached.o)
 .debug_aranges
                0x00000d58       0x20 ../RawaPro_Linux_Cache_bsp//libhal_bsp.a(alt_sbrk.o)
 .debug_aranges
                0x00000d78       0x20 ../RawaPro_Linux_Cache_bsp//libhal_bsp.a(alt_tick.o)
 .debug_aranges
                0x00000d98       0x20 ../RawaPro_Linux_Cache_bsp//libhal_bsp.a(alt_uncached_malloc.o)
 .debug_aranges
                0x00000db8       0x20 ../RawaPro_Linux_Cache_bsp//libhal_bsp.a(alt_usleep.o)
 .debug_aranges
                0x00000dd8       0x20 ../RawaPro_Linux_Cache_bsp//libhal_bsp.a(alt_write.o)
 .debug_aranges
                0x00000df8       0x20 ../RawaPro_Linux_Cache_bsp//libhal_bsp.a(alt_sys_init.o)
 .debug_aranges
                0x00000e18       0x20 ../RawaPro_Linux_Cache_bsp//libhal_bsp.a(altera_avalon_jtag_uart_fd.o)
 .debug_aranges
                0x00000e38       0x20 ../RawaPro_Linux_Cache_bsp//libhal_bsp.a(altera_avalon_jtag_uart_init.o)
 .debug_aranges
                0x00000e58       0x20 ../RawaPro_Linux_Cache_bsp//libhal_bsp.a(altera_avalon_jtag_uart_ioctl.o)
 .debug_aranges
                0x00000e78       0x20 ../RawaPro_Linux_Cache_bsp//libhal_bsp.a(altera_avalon_jtag_uart_read.o)
 .debug_aranges
                0x00000e98       0x20 ../RawaPro_Linux_Cache_bsp//libhal_bsp.a(altera_avalon_jtag_uart_write.o)
 .debug_aranges
                0x00000eb8       0x20 ../RawaPro_Linux_Cache_bsp//libhal_bsp.a(altera_avalon_performance_counter.o)
 .debug_aranges
                0x00000ed8       0x20 ../RawaPro_Linux_Cache_bsp//libhal_bsp.a(altera_avalon_timer_sc.o)
 .debug_aranges
                0x00000ef8       0x20 ../RawaPro_Linux_Cache_bsp//libhal_bsp.a(alt_alarm_start.o)
 .debug_aranges
                0x00000f18       0x20 ../RawaPro_Linux_Cache_bsp//libhal_bsp.a(alt_busy_sleep.o)
 .debug_aranges
                0x00000f38       0x20 ../RawaPro_Linux_Cache_bsp//libhal_bsp.a(alt_dcache_flush.o)
 .debug_aranges
                0x00000f58       0x20 ../RawaPro_Linux_Cache_bsp//libhal_bsp.a(alt_dcache_flush_all.o)
 .debug_aranges
                0x00000f78       0x20 ../RawaPro_Linux_Cache_bsp//libhal_bsp.a(alt_dev_llist_insert.o)
 .debug_aranges
                0x00000f98       0x20 ../RawaPro_Linux_Cache_bsp//libhal_bsp.a(alt_do_ctors.o)
 .debug_aranges
                0x00000fb8       0x20 ../RawaPro_Linux_Cache_bsp//libhal_bsp.a(alt_do_dtors.o)
 .debug_aranges
                0x00000fd8       0x38 ../RawaPro_Linux_Cache_bsp//libhal_bsp.a(alt_exception_entry.o)
 .debug_aranges
                0x00001010       0x20 ../RawaPro_Linux_Cache_bsp//libhal_bsp.a(alt_icache_flush_all.o)
 .debug_aranges
                0x00001030       0x20 ../RawaPro_Linux_Cache_bsp//libhal_bsp.a(alt_io_redirect.o)
 .debug_aranges
                0x00001050       0x20 ../RawaPro_Linux_Cache_bsp//libhal_bsp.a(alt_open.o)
 .debug_aranges
                0x00001070       0x20 ../RawaPro_Linux_Cache_bsp//libhal_bsp.a(altera_nios2_qsys_irq.o)
 .debug_aranges
                0x00001090       0x20 ../RawaPro_Linux_Cache_bsp//libhal_bsp.a(alt_find_dev.o)
 .debug_aranges
                0x000010b0       0x20 ../RawaPro_Linux_Cache_bsp//libhal_bsp.a(alt_find_file.o)
 .debug_aranges
                0x000010d0       0x20 ../RawaPro_Linux_Cache_bsp//libhal_bsp.a(alt_get_fd.o)
 .debug_aranges
                0x000010f0       0x20 ../RawaPro_Linux_Cache_bsp//libhal_bsp.a(alt_icache_flush.o)
 .debug_aranges
                0x00001110       0x20 /home/lordrafa/altera/12.1sp1/nios2eds/bin/gnu/H-i686-pc-linux-gnu/bin/../lib/gcc/nios2-elf/4.1.2/../../../../nios2-elf/lib/libc.a(lib_a-atexit.o)
 .debug_aranges
                0x00001130       0x20 /home/lordrafa/altera/12.1sp1/nios2eds/bin/gnu/H-i686-pc-linux-gnu/bin/../lib/gcc/nios2-elf/4.1.2/../../../../nios2-elf/lib/libc.a(lib_a-exit.o)
 .debug_aranges
                0x00001150       0x20 /home/lordrafa/altera/12.1sp1/nios2eds/bin/gnu/H-i686-pc-linux-gnu/bin/../lib/gcc/nios2-elf/4.1.2/../../../../nios2-elf/lib/libc.a(lib_a-memcmp.o)
 .debug_aranges
                0x00001170       0x20 /home/lordrafa/altera/12.1sp1/nios2eds/bin/gnu/H-i686-pc-linux-gnu/bin/../lib/gcc/nios2-elf/4.1.2/../../../../nios2-elf/lib/libc.a(lib_a-__atexit.o)
 .debug_aranges
                0x00001190       0x20 /home/lordrafa/altera/12.1sp1/nios2eds/bin/gnu/H-i686-pc-linux-gnu/bin/../lib/gcc/nios2-elf/4.1.2/../../../../nios2-elf/lib/libc.a(lib_a-__call_atexit.o)

.debug_pubnames
                0x00000000     0x2943
 *(.debug_pubnames)
 .debug_pubnames
                0x00000000       0xfb obj/default/alt_tpo_lcd/alt_tpo_lcd.o
 .debug_pubnames
                0x000000fb       0x8d obj/default/alt_video_display/alt_video_display.o
 .debug_pubnames
                0x00000188       0x55 obj/default/audio_tvdecoder/i2c.o
 .debug_pubnames
                0x000001dd       0x4f obj/default/audio_tvdecoder/tvdecoder_ctrl.o
 .debug_pubnames
                0x0000022c       0x24 obj/default/fonts/tahomabold_20.o
 .debug_pubnames
                0x00000250       0x24 obj/default/fonts/tahomabold_32.o
 .debug_pubnames
                0x00000274      0x292 obj/default/graphics_lib/simple_graphics.o
 .debug_pubnames
                0x00000506       0xc4 obj/default/graphics_lib/simple_text.o
 .debug_pubnames
                0x000005ca       0x43 obj/default/keyhandler/keyhandler.o
 .debug_pubnames
                0x0000060d       0x25 obj/default/main.o
 .debug_pubnames
                0x00000632       0x28 obj/default/sfs/sfs.o
 .debug_pubnames
                0x0000065a      0x2c1 obj/default/framereader/vip_wrapper_for_c_func.o
 .debug_pubnames
                0x0000091b       0x46 /home/lordrafa/altera/12.1sp1/nios2eds/bin/gnu/H-i686-pc-linux-gnu/bin/../lib/gcc/nios2-elf/4.1.2/../../../../nios2-elf/lib/libstdc++.a(eh_personality.o)
 .debug_pubnames
                0x00000961       0x75 /home/lordrafa/altera/12.1sp1/nios2eds/bin/gnu/H-i686-pc-linux-gnu/bin/../lib/gcc/nios2-elf/4.1.2/../../../../nios2-elf/lib/libstdc++.a(eh_terminate.o)
 .debug_pubnames
                0x000009d6       0x2a /home/lordrafa/altera/12.1sp1/nios2eds/bin/gnu/H-i686-pc-linux-gnu/bin/../lib/gcc/nios2-elf/4.1.2/../../../../nios2-elf/lib/libstdc++.a(eh_term_handler.o)
 .debug_pubnames
                0x00000a00       0x6f /home/lordrafa/altera/12.1sp1/nios2eds/bin/gnu/H-i686-pc-linux-gnu/bin/../lib/gcc/nios2-elf/4.1.2/../../../../nios2-elf/lib/libstdc++.a(eh_catch.o)
 .debug_pubnames
                0x00000a6f       0x26 /home/lordrafa/altera/12.1sp1/nios2eds/bin/gnu/H-i686-pc-linux-gnu/bin/../lib/gcc/nios2-elf/4.1.2/../../../../nios2-elf/lib/libstdc++.a(del_op.o)
 .debug_pubnames
                0x00000a95       0x34 /home/lordrafa/altera/12.1sp1/nios2eds/bin/gnu/H-i686-pc-linux-gnu/bin/../lib/gcc/nios2-elf/4.1.2/../../../../nios2-elf/lib/libstdc++.a(eh_throw.o)
 .debug_pubnames
                0x00000ac9       0x48 /home/lordrafa/altera/12.1sp1/nios2eds/bin/gnu/H-i686-pc-linux-gnu/bin/../lib/gcc/nios2-elf/4.1.2/../../../../nios2-elf/lib/libstdc++.a(eh_alloc.o)
 .debug_pubnames
                0x00000b11       0x23 /home/lordrafa/altera/12.1sp1/nios2eds/bin/gnu/H-i686-pc-linux-gnu/bin/../lib/gcc/nios2-elf/4.1.2/../../../../nios2-elf/lib/libstdc++.a(new_op.o)
 .debug_pubnames
                0x00000b34       0xfd /home/lordrafa/altera/12.1sp1/nios2eds/bin/gnu/H-i686-pc-linux-gnu/bin/../lib/gcc/nios2-elf/4.1.2/../../../../nios2-elf/lib/libstdc++.a(eh_exception.o)
 .debug_pubnames
                0x00000c31       0x2b /home/lordrafa/altera/12.1sp1/nios2eds/bin/gnu/H-i686-pc-linux-gnu/bin/../lib/gcc/nios2-elf/4.1.2/../../../../nios2-elf/lib/libstdc++.a(eh_call.o)
 .debug_pubnames
                0x00000c5c       0xa1 /home/lordrafa/altera/12.1sp1/nios2eds/bin/gnu/H-i686-pc-linux-gnu/bin/../lib/gcc/nios2-elf/4.1.2/../../../../nios2-elf/lib/libstdc++.a(new_handler.o)
 .debug_pubnames
                0x00000cfd       0x43 /home/lordrafa/altera/12.1sp1/nios2eds/bin/gnu/H-i686-pc-linux-gnu/bin/../lib/gcc/nios2-elf/4.1.2/../../../../nios2-elf/lib/libstdc++.a(eh_globals.o)
 .debug_pubnames
                0x00000d40      0x1a8 /home/lordrafa/altera/12.1sp1/nios2eds/bin/gnu/H-i686-pc-linux-gnu/bin/../lib/gcc/nios2-elf/4.1.2/../../../../nios2-elf/lib/libstdc++.a(class_type_info.o)
 .debug_pubnames
                0x00000ee8       0x2b /home/lordrafa/altera/12.1sp1/nios2eds/bin/gnu/H-i686-pc-linux-gnu/bin/../lib/gcc/nios2-elf/4.1.2/../../../../nios2-elf/lib/libstdc++.a(eh_unex_handler.o)
 .debug_pubnames
                0x00000f13      0x166 /home/lordrafa/altera/12.1sp1/nios2eds/bin/gnu/H-i686-pc-linux-gnu/bin/../lib/gcc/nios2-elf/4.1.2/../../../../nios2-elf/lib/libstdc++.a(si_class_type_info.o)
 .debug_pubnames
                0x00001079       0xf5 /home/lordrafa/altera/12.1sp1/nios2eds/bin/gnu/H-i686-pc-linux-gnu/bin/../lib/gcc/nios2-elf/4.1.2/../../../../nios2-elf/lib/libstdc++.a(tinfo.o)
 .debug_pubnames
                0x0000116e       0x48 /home/lordrafa/altera/12.1sp1/nios2eds/bin/gnu/H-i686-pc-linux-gnu/bin/../lib/gcc/nios2-elf/4.1.2/libgcc.a(lib2-divmod.o)
 .debug_pubnames
                0x000011b6      0x1fb /home/lordrafa/altera/12.1sp1/nios2eds/bin/gnu/H-i686-pc-linux-gnu/bin/../lib/gcc/nios2-elf/4.1.2/libgcc.a(unwind-sjlj.o)
 .debug_pubnames
                0x000013b1       0x1c /home/lordrafa/altera/12.1sp1/nios2eds/bin/gnu/H-i686-pc-linux-gnu/bin/../lib/gcc/nios2-elf/4.1.2/../../../../nios2-elf/lib/libc.a(lib_a-abort.o)
 .debug_pubnames
                0x000013cd       0x26 /home/lordrafa/altera/12.1sp1/nios2eds/bin/gnu/H-i686-pc-linux-gnu/bin/../lib/gcc/nios2-elf/4.1.2/../../../../nios2-elf/lib/libc.a(lib_a-malloc.o)
 .debug_pubnames
                0x000013f3       0xce /home/lordrafa/altera/12.1sp1/nios2eds/bin/gnu/H-i686-pc-linux-gnu/bin/../lib/gcc/nios2-elf/4.1.2/../../../../nios2-elf/lib/libc.a(lib_a-mallocr.o)
 .debug_pubnames
                0x000014c1       0x1d /home/lordrafa/altera/12.1sp1/nios2eds/bin/gnu/H-i686-pc-linux-gnu/bin/../lib/gcc/nios2-elf/4.1.2/../../../../nios2-elf/lib/libc.a(lib_a-memcpy.o)
 .debug_pubnames
                0x000014de       0x1d /home/lordrafa/altera/12.1sp1/nios2eds/bin/gnu/H-i686-pc-linux-gnu/bin/../lib/gcc/nios2-elf/4.1.2/../../../../nios2-elf/lib/libc.a(lib_a-memset.o)
 .debug_pubnames
                0x000014fb       0x2b /home/lordrafa/altera/12.1sp1/nios2eds/bin/gnu/H-i686-pc-linux-gnu/bin/../lib/gcc/nios2-elf/4.1.2/../../../../nios2-elf/lib/libc.a(lib_a-printf.o)
 .debug_pubnames
                0x00001526       0x27 /home/lordrafa/altera/12.1sp1/nios2eds/bin/gnu/H-i686-pc-linux-gnu/bin/../lib/gcc/nios2-elf/4.1.2/../../../../nios2-elf/lib/libc.a(lib_a-puts.o)
 .debug_pubnames
                0x0000154d       0x1e /home/lordrafa/altera/12.1sp1/nios2eds/bin/gnu/H-i686-pc-linux-gnu/bin/../lib/gcc/nios2-elf/4.1.2/../../../../nios2-elf/lib/libc.a(lib_a-sbrkr.o)
 .debug_pubnames
                0x0000156b       0x86 /home/lordrafa/altera/12.1sp1/nios2eds/bin/gnu/H-i686-pc-linux-gnu/bin/../lib/gcc/nios2-elf/4.1.2/../../../../nios2-elf/lib/libc.a(lib_a-signal.o)
 .debug_pubnames
                0x000015f1       0x2c /home/lordrafa/altera/12.1sp1/nios2eds/bin/gnu/H-i686-pc-linux-gnu/bin/../lib/gcc/nios2-elf/4.1.2/../../../../nios2-elf/lib/libc.a(lib_a-signalr.o)
 .debug_pubnames
                0x0000161d       0x2f /home/lordrafa/altera/12.1sp1/nios2eds/bin/gnu/H-i686-pc-linux-gnu/bin/../lib/gcc/nios2-elf/4.1.2/../../../../nios2-elf/lib/libc.a(lib_a-snprintf.o)
 .debug_pubnames
                0x0000164c       0x1d /home/lordrafa/altera/12.1sp1/nios2eds/bin/gnu/H-i686-pc-linux-gnu/bin/../lib/gcc/nios2-elf/4.1.2/../../../../nios2-elf/lib/libc.a(lib_a-strcpy.o)
 .debug_pubnames
                0x00001669       0x1d /home/lordrafa/altera/12.1sp1/nios2eds/bin/gnu/H-i686-pc-linux-gnu/bin/../lib/gcc/nios2-elf/4.1.2/../../../../nios2-elf/lib/libc.a(lib_a-strlen.o)
 .debug_pubnames
                0x00001686       0x45 /home/lordrafa/altera/12.1sp1/nios2eds/bin/gnu/H-i686-pc-linux-gnu/bin/../lib/gcc/nios2-elf/4.1.2/../../../../nios2-elf/lib/libc.a(lib_a-vfprintf.o)
 .debug_pubnames
                0x000016cb       0x22 /home/lordrafa/altera/12.1sp1/nios2eds/bin/gnu/H-i686-pc-linux-gnu/bin/../lib/gcc/nios2-elf/4.1.2/../../../../nios2-elf/lib/libc.a(lib_a-wsetup.o)
 .debug_pubnames
                0x000016ed       0x1e /home/lordrafa/altera/12.1sp1/nios2eds/bin/gnu/H-i686-pc-linux-gnu/bin/../lib/gcc/nios2-elf/4.1.2/../../../../nios2-elf/lib/libc.a(lib_a-dtoa.o)
 .debug_pubnames
                0x0000170b       0x2b /home/lordrafa/altera/12.1sp1/nios2eds/bin/gnu/H-i686-pc-linux-gnu/bin/../lib/gcc/nios2-elf/4.1.2/../../../../nios2-elf/lib/libc.a(lib_a-fflush.o)
 .debug_pubnames
                0x00001736       0xdb /home/lordrafa/altera/12.1sp1/nios2eds/bin/gnu/H-i686-pc-linux-gnu/bin/../lib/gcc/nios2-elf/4.1.2/../../../../nios2-elf/lib/libc.a(lib_a-findfp.o)
 .debug_pubnames
                0x00001811       0x31 /home/lordrafa/altera/12.1sp1/nios2eds/bin/gnu/H-i686-pc-linux-gnu/bin/../lib/gcc/nios2-elf/4.1.2/../../../../nios2-elf/lib/libc.a(lib_a-freer.o)
 .debug_pubnames
                0x00001842       0x23 /home/lordrafa/altera/12.1sp1/nios2eds/bin/gnu/H-i686-pc-linux-gnu/bin/../lib/gcc/nios2-elf/4.1.2/../../../../nios2-elf/lib/libc.a(lib_a-fvwrite.o)
 .debug_pubnames
                0x00001865       0x2e /home/lordrafa/altera/12.1sp1/nios2eds/bin/gnu/H-i686-pc-linux-gnu/bin/../lib/gcc/nios2-elf/4.1.2/../../../../nios2-elf/lib/libc.a(lib_a-fwalk.o)
 .debug_pubnames
                0x00001893       0x39 /home/lordrafa/altera/12.1sp1/nios2eds/bin/gnu/H-i686-pc-linux-gnu/bin/../lib/gcc/nios2-elf/4.1.2/../../../../nios2-elf/lib/libc.a(lib_a-impure.o)
 .debug_pubnames
                0x000018cc       0x1c /home/lordrafa/altera/12.1sp1/nios2eds/bin/gnu/H-i686-pc-linux-gnu/bin/../lib/gcc/nios2-elf/4.1.2/../../../../nios2-elf/lib/libc.a(lib_a-int_errno.o)
 .debug_pubnames
                0x000018e8       0xc3 /home/lordrafa/altera/12.1sp1/nios2eds/bin/gnu/H-i686-pc-linux-gnu/bin/../lib/gcc/nios2-elf/4.1.2/../../../../nios2-elf/lib/libc.a(lib_a-locale.o)
 .debug_pubnames
                0x000019ab       0x23 /home/lordrafa/altera/12.1sp1/nios2eds/bin/gnu/H-i686-pc-linux-gnu/bin/../lib/gcc/nios2-elf/4.1.2/../../../../nios2-elf/lib/libc.a(lib_a-makebuf.o)
 .debug_pubnames
                0x000019ce       0x1d /home/lordrafa/altera/12.1sp1/nios2eds/bin/gnu/H-i686-pc-linux-gnu/bin/../lib/gcc/nios2-elf/4.1.2/../../../../nios2-elf/lib/libc.a(lib_a-memchr.o)
 .debug_pubnames
                0x000019eb       0x1e /home/lordrafa/altera/12.1sp1/nios2eds/bin/gnu/H-i686-pc-linux-gnu/bin/../lib/gcc/nios2-elf/4.1.2/../../../../nios2-elf/lib/libc.a(lib_a-memmove.o)
 .debug_pubnames
                0x00001a09      0x13a /home/lordrafa/altera/12.1sp1/nios2eds/bin/gnu/H-i686-pc-linux-gnu/bin/../lib/gcc/nios2-elf/4.1.2/../../../../nios2-elf/lib/libc.a(lib_a-mprec.o)
 .debug_pubnames
                0x00001b43       0x21 /home/lordrafa/altera/12.1sp1/nios2eds/bin/gnu/H-i686-pc-linux-gnu/bin/../lib/gcc/nios2-elf/4.1.2/../../../../nios2-elf/lib/libc.a(lib_a-reallocr.o)
 .debug_pubnames
                0x00001b64       0x1f /home/lordrafa/altera/12.1sp1/nios2eds/bin/gnu/H-i686-pc-linux-gnu/bin/../lib/gcc/nios2-elf/4.1.2/../../../../nios2-elf/lib/libc.a(lib_a-s_isinfd.o)
 .debug_pubnames
                0x00001b83       0x1f /home/lordrafa/altera/12.1sp1/nios2eds/bin/gnu/H-i686-pc-linux-gnu/bin/../lib/gcc/nios2-elf/4.1.2/../../../../nios2-elf/lib/libc.a(lib_a-s_isnand.o)
 .debug_pubnames
                0x00001ba2       0x44 /home/lordrafa/altera/12.1sp1/nios2eds/bin/gnu/H-i686-pc-linux-gnu/bin/../lib/gcc/nios2-elf/4.1.2/../../../../nios2-elf/lib/libc.a(lib_a-stdio.o)
 .debug_pubnames
                0x00001be6       0x1d /home/lordrafa/altera/12.1sp1/nios2eds/bin/gnu/H-i686-pc-linux-gnu/bin/../lib/gcc/nios2-elf/4.1.2/../../../../nios2-elf/lib/libc.a(lib_a-strcmp.o)
 .debug_pubnames
                0x00001c03       0x1f /home/lordrafa/altera/12.1sp1/nios2eds/bin/gnu/H-i686-pc-linux-gnu/bin/../lib/gcc/nios2-elf/4.1.2/../../../../nios2-elf/lib/libc.a(lib_a-writer.o)
 .debug_pubnames
                0x00001c22       0x20 /home/lordrafa/altera/12.1sp1/nios2eds/bin/gnu/H-i686-pc-linux-gnu/bin/../lib/gcc/nios2-elf/4.1.2/../../../../nios2-elf/lib/libc.a(lib_a-callocr.o)
 .debug_pubnames
                0x00001c42       0x1f /home/lordrafa/altera/12.1sp1/nios2eds/bin/gnu/H-i686-pc-linux-gnu/bin/../lib/gcc/nios2-elf/4.1.2/../../../../nios2-elf/lib/libc.a(lib_a-closer.o)
 .debug_pubnames
                0x00001c61       0x2b /home/lordrafa/altera/12.1sp1/nios2eds/bin/gnu/H-i686-pc-linux-gnu/bin/../lib/gcc/nios2-elf/4.1.2/../../../../nios2-elf/lib/libc.a(lib_a-fclose.o)
 .debug_pubnames
                0x00001c8c       0x1f /home/lordrafa/altera/12.1sp1/nios2eds/bin/gnu/H-i686-pc-linux-gnu/bin/../lib/gcc/nios2-elf/4.1.2/../../../../nios2-elf/lib/libc.a(lib_a-fstatr.o)
 .debug_pubnames
                0x00001cab       0x20 /home/lordrafa/altera/12.1sp1/nios2eds/bin/gnu/H-i686-pc-linux-gnu/bin/../lib/gcc/nios2-elf/4.1.2/../../../../nios2-elf/lib/libc.a(lib_a-isattyr.o)
 .debug_pubnames
                0x00001ccb       0x1f /home/lordrafa/altera/12.1sp1/nios2eds/bin/gnu/H-i686-pc-linux-gnu/bin/../lib/gcc/nios2-elf/4.1.2/../../../../nios2-elf/lib/libc.a(lib_a-lseekr.o)
 .debug_pubnames
                0x00001cea       0x1e /home/lordrafa/altera/12.1sp1/nios2eds/bin/gnu/H-i686-pc-linux-gnu/bin/../lib/gcc/nios2-elf/4.1.2/../../../../nios2-elf/lib/libc.a(lib_a-readr.o)
 .debug_pubnames
                0x00001d08       0x20 /home/lordrafa/altera/12.1sp1/nios2eds/bin/gnu/H-i686-pc-linux-gnu/bin/../lib/gcc/nios2-elf/4.1.2/libgcc.a(_udivdi3.o)
 .debug_pubnames
                0x00001d28       0x20 /home/lordrafa/altera/12.1sp1/nios2eds/bin/gnu/H-i686-pc-linux-gnu/bin/../lib/gcc/nios2-elf/4.1.2/libgcc.a(_umoddi3.o)
 .debug_pubnames
                0x00001d48       0x2c /home/lordrafa/altera/12.1sp1/nios2eds/bin/gnu/H-i686-pc-linux-gnu/bin/../lib/gcc/nios2-elf/4.1.2/libgcc.a(_addsub_df.o)
 .debug_pubnames
                0x00001d74       0x1f /home/lordrafa/altera/12.1sp1/nios2eds/bin/gnu/H-i686-pc-linux-gnu/bin/../lib/gcc/nios2-elf/4.1.2/libgcc.a(_mul_df.o)
 .debug_pubnames
                0x00001d93       0x1f /home/lordrafa/altera/12.1sp1/nios2eds/bin/gnu/H-i686-pc-linux-gnu/bin/../lib/gcc/nios2-elf/4.1.2/libgcc.a(_div_df.o)
 .debug_pubnames
                0x00001db2       0x1e /home/lordrafa/altera/12.1sp1/nios2eds/bin/gnu/H-i686-pc-linux-gnu/bin/../lib/gcc/nios2-elf/4.1.2/libgcc.a(_eq_df.o)
 .debug_pubnames
                0x00001dd0       0x1e /home/lordrafa/altera/12.1sp1/nios2eds/bin/gnu/H-i686-pc-linux-gnu/bin/../lib/gcc/nios2-elf/4.1.2/libgcc.a(_ne_df.o)
 .debug_pubnames
                0x00001dee       0x1e /home/lordrafa/altera/12.1sp1/nios2eds/bin/gnu/H-i686-pc-linux-gnu/bin/../lib/gcc/nios2-elf/4.1.2/libgcc.a(_gt_df.o)
 .debug_pubnames
                0x00001e0c       0x1e /home/lordrafa/altera/12.1sp1/nios2eds/bin/gnu/H-i686-pc-linux-gnu/bin/../lib/gcc/nios2-elf/4.1.2/libgcc.a(_ge_df.o)
 .debug_pubnames
                0x00001e2a       0x1e /home/lordrafa/altera/12.1sp1/nios2eds/bin/gnu/H-i686-pc-linux-gnu/bin/../lib/gcc/nios2-elf/4.1.2/libgcc.a(_lt_df.o)
 .debug_pubnames
                0x00001e48       0x22 /home/lordrafa/altera/12.1sp1/nios2eds/bin/gnu/H-i686-pc-linux-gnu/bin/../lib/gcc/nios2-elf/4.1.2/libgcc.a(_si_to_df.o)
 .debug_pubnames
                0x00001e6a       0x20 /home/lordrafa/altera/12.1sp1/nios2eds/bin/gnu/H-i686-pc-linux-gnu/bin/../lib/gcc/nios2-elf/4.1.2/libgcc.a(_df_to_si.o)
 .debug_pubnames
                0x00001e8a       0x22 /home/lordrafa/altera/12.1sp1/nios2eds/bin/gnu/H-i686-pc-linux-gnu/bin/../lib/gcc/nios2-elf/4.1.2/libgcc.a(_thenan_df.o)
 .debug_pubnames
                0x00001eac       0x24 /home/lordrafa/altera/12.1sp1/nios2eds/bin/gnu/H-i686-pc-linux-gnu/bin/../lib/gcc/nios2-elf/4.1.2/libgcc.a(_usi_to_df.o)
 .debug_pubnames
                0x00001ed0       0x1f /home/lordrafa/altera/12.1sp1/nios2eds/bin/gnu/H-i686-pc-linux-gnu/bin/../lib/gcc/nios2-elf/4.1.2/libgcc.a(_muldi3.o)
 .debug_pubnames
                0x00001eef       0x20 /home/lordrafa/altera/12.1sp1/nios2eds/bin/gnu/H-i686-pc-linux-gnu/bin/../lib/gcc/nios2-elf/4.1.2/libgcc.a(_clz.o)
 .debug_pubnames
                0x00001f0f       0x1f /home/lordrafa/altera/12.1sp1/nios2eds/bin/gnu/H-i686-pc-linux-gnu/bin/../lib/gcc/nios2-elf/4.1.2/libgcc.a(_clzsi2.o)
 .debug_pubnames
                0x00001f2e       0x1f /home/lordrafa/altera/12.1sp1/nios2eds/bin/gnu/H-i686-pc-linux-gnu/bin/../lib/gcc/nios2-elf/4.1.2/libgcc.a(_pack_df.o)
 .debug_pubnames
                0x00001f4d       0x21 /home/lordrafa/altera/12.1sp1/nios2eds/bin/gnu/H-i686-pc-linux-gnu/bin/../lib/gcc/nios2-elf/4.1.2/libgcc.a(_unpack_df.o)
 .debug_pubnames
                0x00001f6e       0x26 /home/lordrafa/altera/12.1sp1/nios2eds/bin/gnu/H-i686-pc-linux-gnu/bin/../lib/gcc/nios2-elf/4.1.2/libgcc.a(_fpcmp_parts_df.o)
 .debug_pubnames
                0x00001f94       0x1c ../RawaPro_Linux_Cache_bsp//libhal_bsp.a(alt_close.o)
 .debug_pubnames
                0x00001fb0       0x63 ../RawaPro_Linux_Cache_bsp//libhal_bsp.a(alt_dev.o)
 .debug_pubnames
                0x00002013       0x20 ../RawaPro_Linux_Cache_bsp//libhal_bsp.a(alt_errno.o)
 .debug_pubnames
                0x00002033       0x1c ../RawaPro_Linux_Cache_bsp//libhal_bsp.a(alt_exit.o)
 .debug_pubnames
                0x0000204f       0x1c ../RawaPro_Linux_Cache_bsp//libhal_bsp.a(alt_fstat.o)
 .debug_pubnames
                0x0000206b       0x1d ../RawaPro_Linux_Cache_bsp//libhal_bsp.a(alt_getpid.o)
 .debug_pubnames
                0x00002088       0x6e ../RawaPro_Linux_Cache_bsp//libhal_bsp.a(alt_iic.o)
 .debug_pubnames
                0x000020f6       0x2b ../RawaPro_Linux_Cache_bsp//libhal_bsp.a(alt_iic_isr_register.o)
 .debug_pubnames
                0x00002121       0x32 ../RawaPro_Linux_Cache_bsp//libhal_bsp.a(alt_irq_handler.o)
 .debug_pubnames
                0x00002153       0x3b ../RawaPro_Linux_Cache_bsp//libhal_bsp.a(alt_irq_vars.o)
 .debug_pubnames
                0x0000218e       0x1d ../RawaPro_Linux_Cache_bsp//libhal_bsp.a(alt_isatty.o)
 .debug_pubnames
                0x000021ab       0x1b ../RawaPro_Linux_Cache_bsp//libhal_bsp.a(alt_kill.o)
 .debug_pubnames
                0x000021c6       0x1f ../RawaPro_Linux_Cache_bsp//libhal_bsp.a(alt_load.o)
 .debug_pubnames
                0x000021e5       0x1c ../RawaPro_Linux_Cache_bsp//libhal_bsp.a(alt_lseek.o)
 .debug_pubnames
                0x00002201       0x46 ../RawaPro_Linux_Cache_bsp//libhal_bsp.a(alt_main.o)
 .debug_pubnames
                0x00002247       0x38 ../RawaPro_Linux_Cache_bsp//libhal_bsp.a(alt_malloc_lock.o)
 .debug_pubnames
                0x0000227f       0x1b ../RawaPro_Linux_Cache_bsp//libhal_bsp.a(alt_read.o)
 .debug_pubnames
                0x0000229a       0x25 ../RawaPro_Linux_Cache_bsp//libhal_bsp.a(alt_release_fd.o)
 .debug_pubnames
                0x000022bf       0x29 ../RawaPro_Linux_Cache_bsp//libhal_bsp.a(alt_remap_uncached.o)
 .debug_pubnames
                0x000022e8       0x1b ../RawaPro_Linux_Cache_bsp//libhal_bsp.a(alt_sbrk.o)
 .debug_pubnames
                0x00002303       0x68 ../RawaPro_Linux_Cache_bsp//libhal_bsp.a(alt_tick.o)
 .debug_pubnames
                0x0000236b       0x2a ../RawaPro_Linux_Cache_bsp//libhal_bsp.a(alt_uncached_malloc.o)
 .debug_pubnames
                0x00002395       0x1d ../RawaPro_Linux_Cache_bsp//libhal_bsp.a(alt_usleep.o)
 .debug_pubnames
                0x000023b2       0x1c ../RawaPro_Linux_Cache_bsp//libhal_bsp.a(alt_write.o)
 .debug_pubnames
                0x000023ce       0x34 ../RawaPro_Linux_Cache_bsp//libhal_bsp.a(alt_sys_init.o)
 .debug_pubnames
                0x00002402       0xa5 ../RawaPro_Linux_Cache_bsp//libhal_bsp.a(altera_avalon_jtag_uart_fd.o)
 .debug_pubnames
                0x000024a7       0x55 ../RawaPro_Linux_Cache_bsp//libhal_bsp.a(altera_avalon_jtag_uart_init.o)
 .debug_pubnames
                0x000024fc       0x34 ../RawaPro_Linux_Cache_bsp//libhal_bsp.a(altera_avalon_jtag_uart_ioctl.o)
 .debug_pubnames
                0x00002530       0x33 ../RawaPro_Linux_Cache_bsp//libhal_bsp.a(altera_avalon_jtag_uart_read.o)
 .debug_pubnames
                0x00002563       0x34 ../RawaPro_Linux_Cache_bsp//libhal_bsp.a(altera_avalon_jtag_uart_write.o)
 .debug_pubnames
                0x00002597       0x96 ../RawaPro_Linux_Cache_bsp//libhal_bsp.a(altera_avalon_performance_counter.o)
 .debug_pubnames
                0x0000262d       0x2f ../RawaPro_Linux_Cache_bsp//libhal_bsp.a(altera_avalon_timer_sc.o)
 .debug_pubnames
                0x0000265c       0x26 ../RawaPro_Linux_Cache_bsp//libhal_bsp.a(alt_alarm_start.o)
 .debug_pubnames
                0x00002682       0x25 ../RawaPro_Linux_Cache_bsp//libhal_bsp.a(alt_busy_sleep.o)
 .debug_pubnames
                0x000026a7       0x27 ../RawaPro_Linux_Cache_bsp//libhal_bsp.a(alt_dcache_flush.o)
 .debug_pubnames
                0x000026ce       0x2b ../RawaPro_Linux_Cache_bsp//libhal_bsp.a(alt_dcache_flush_all.o)
 .debug_pubnames
                0x000026f9       0x2b ../RawaPro_Linux_Cache_bsp//libhal_bsp.a(alt_dev_llist_insert.o)
 .debug_pubnames
                0x00002724       0x20 ../RawaPro_Linux_Cache_bsp//libhal_bsp.a(alt_do_ctors.o)
 .debug_pubnames
                0x00002744       0x20 ../RawaPro_Linux_Cache_bsp//libhal_bsp.a(alt_do_dtors.o)
 .debug_pubnames
                0x00002764       0x2b ../RawaPro_Linux_Cache_bsp//libhal_bsp.a(alt_icache_flush_all.o)
 .debug_pubnames
                0x0000278f       0x26 ../RawaPro_Linux_Cache_bsp//libhal_bsp.a(alt_io_redirect.o)
 .debug_pubnames
                0x000027b5       0x1b ../RawaPro_Linux_Cache_bsp//libhal_bsp.a(alt_open.o)
 .debug_pubnames
                0x000027d0       0x31 ../RawaPro_Linux_Cache_bsp//libhal_bsp.a(altera_nios2_qsys_irq.o)
 .debug_pubnames
                0x00002801       0x23 ../RawaPro_Linux_Cache_bsp//libhal_bsp.a(alt_find_dev.o)
 .debug_pubnames
                0x00002824       0x24 ../RawaPro_Linux_Cache_bsp//libhal_bsp.a(alt_find_file.o)
 .debug_pubnames
                0x00002848       0x21 ../RawaPro_Linux_Cache_bsp//libhal_bsp.a(alt_get_fd.o)
 .debug_pubnames
                0x00002869       0x27 ../RawaPro_Linux_Cache_bsp//libhal_bsp.a(alt_icache_flush.o)
 .debug_pubnames
                0x00002890       0x2a /home/lordrafa/altera/12.1sp1/nios2eds/bin/gnu/H-i686-pc-linux-gnu/bin/../lib/gcc/nios2-elf/4.1.2/../../../../nios2-elf/lib/libc.a(lib_a-atexit.o)
 .debug_pubnames
                0x000028ba       0x1b /home/lordrafa/altera/12.1sp1/nios2eds/bin/gnu/H-i686-pc-linux-gnu/bin/../lib/gcc/nios2-elf/4.1.2/../../../../nios2-elf/lib/libc.a(lib_a-exit.o)
 .debug_pubnames
                0x000028d5       0x1d /home/lordrafa/altera/12.1sp1/nios2eds/bin/gnu/H-i686-pc-linux-gnu/bin/../lib/gcc/nios2-elf/4.1.2/../../../../nios2-elf/lib/libc.a(lib_a-memcmp.o)
 .debug_pubnames
                0x000028f2       0x2a /home/lordrafa/altera/12.1sp1/nios2eds/bin/gnu/H-i686-pc-linux-gnu/bin/../lib/gcc/nios2-elf/4.1.2/../../../../nios2-elf/lib/libc.a(lib_a-__atexit.o)
 .debug_pubnames
                0x0000291c       0x27 /home/lordrafa/altera/12.1sp1/nios2eds/bin/gnu/H-i686-pc-linux-gnu/bin/../lib/gcc/nios2-elf/4.1.2/../../../../nios2-elf/lib/libc.a(lib_a-__call_atexit.o)

.debug_info     0x00000000    0x360a1
 *(.debug_info .gnu.linkonce.wi.*)
 .debug_info    0x00000000       0x87 ../RawaPro_Linux_Cache_bsp//obj/HAL/src/crt0.o
 .debug_info    0x00000087      0x567 obj/default/alt_tpo_lcd/alt_tpo_lcd.o
 .debug_info    0x000005ee      0x4d7 obj/default/alt_video_display/alt_video_display.o
 .debug_info    0x00000ac5      0x453 obj/default/audio_tvdecoder/i2c.o
 .debug_info    0x00000f18      0x216 obj/default/audio_tvdecoder/tvdecoder_ctrl.o
 .debug_info    0x0000112e     0x1018 obj/default/fonts/tahomabold_20.o
 .debug_info    0x00002146     0x1095 obj/default/fonts/tahomabold_32.o
 .debug_info    0x000031db     0x198f obj/default/graphics_lib/simple_graphics.o
 .debug_info    0x00004b6a      0x9a6 obj/default/graphics_lib/simple_text.o
 .debug_info    0x00005510      0x1e6 obj/default/keyhandler/keyhandler.o
 .debug_info    0x000056f6      0x54a obj/default/main.o
 .debug_info    0x00005c40      0x27e obj/default/sfs/sfs.o
 .debug_info    0x00005ebe     0x1059 obj/default/framereader/vip_wrapper_for_c_func.o
 .debug_info    0x00006f17     0x141a /home/lordrafa/altera/12.1sp1/nios2eds/bin/gnu/H-i686-pc-linux-gnu/bin/../lib/gcc/nios2-elf/4.1.2/../../../../nios2-elf/lib/libstdc++.a(eh_personality.o)
 .debug_info    0x00008331      0x9c9 /home/lordrafa/altera/12.1sp1/nios2eds/bin/gnu/H-i686-pc-linux-gnu/bin/../lib/gcc/nios2-elf/4.1.2/../../../../nios2-elf/lib/libstdc++.a(eh_terminate.o)
 .debug_info    0x00008cfa      0x4e6 /home/lordrafa/altera/12.1sp1/nios2eds/bin/gnu/H-i686-pc-linux-gnu/bin/../lib/gcc/nios2-elf/4.1.2/../../../../nios2-elf/lib/libstdc++.a(eh_term_handler.o)
 .debug_info    0x000091e0      0xa74 /home/lordrafa/altera/12.1sp1/nios2eds/bin/gnu/H-i686-pc-linux-gnu/bin/../lib/gcc/nios2-elf/4.1.2/../../../../nios2-elf/lib/libstdc++.a(eh_catch.o)
 .debug_info    0x00009c54      0x44c /home/lordrafa/altera/12.1sp1/nios2eds/bin/gnu/H-i686-pc-linux-gnu/bin/../lib/gcc/nios2-elf/4.1.2/../../../../nios2-elf/lib/libstdc++.a(del_op.o)
 .debug_info    0x0000a0a0      0x6e7 /home/lordrafa/altera/12.1sp1/nios2eds/bin/gnu/H-i686-pc-linux-gnu/bin/../lib/gcc/nios2-elf/4.1.2/../../../../nios2-elf/lib/libstdc++.a(eh_throw.o)
 .debug_info    0x0000a787      0xaaa /home/lordrafa/altera/12.1sp1/nios2eds/bin/gnu/H-i686-pc-linux-gnu/bin/../lib/gcc/nios2-elf/4.1.2/../../../../nios2-elf/lib/libstdc++.a(eh_alloc.o)
 .debug_info    0x0000b231      0x60c /home/lordrafa/altera/12.1sp1/nios2eds/bin/gnu/H-i686-pc-linux-gnu/bin/../lib/gcc/nios2-elf/4.1.2/../../../../nios2-elf/lib/libstdc++.a(new_op.o)
 .debug_info    0x0000b83d      0x511 /home/lordrafa/altera/12.1sp1/nios2eds/bin/gnu/H-i686-pc-linux-gnu/bin/../lib/gcc/nios2-elf/4.1.2/../../../../nios2-elf/lib/libstdc++.a(eh_exception.o)
 .debug_info    0x0000bd4e      0x8cd /home/lordrafa/altera/12.1sp1/nios2eds/bin/gnu/H-i686-pc-linux-gnu/bin/../lib/gcc/nios2-elf/4.1.2/../../../../nios2-elf/lib/libstdc++.a(eh_call.o)
 .debug_info    0x0000c61b      0x2ab /home/lordrafa/altera/12.1sp1/nios2eds/bin/gnu/H-i686-pc-linux-gnu/bin/../lib/gcc/nios2-elf/4.1.2/../../../../nios2-elf/lib/libstdc++.a(new_handler.o)
 .debug_info    0x0000c8c6      0xaf4 /home/lordrafa/altera/12.1sp1/nios2eds/bin/gnu/H-i686-pc-linux-gnu/bin/../lib/gcc/nios2-elf/4.1.2/../../../../nios2-elf/lib/libstdc++.a(eh_globals.o)
 .debug_info    0x0000d3ba      0x8df /home/lordrafa/altera/12.1sp1/nios2eds/bin/gnu/H-i686-pc-linux-gnu/bin/../lib/gcc/nios2-elf/4.1.2/../../../../nios2-elf/lib/libstdc++.a(class_type_info.o)
 .debug_info    0x0000dc99      0x4cc /home/lordrafa/altera/12.1sp1/nios2eds/bin/gnu/H-i686-pc-linux-gnu/bin/../lib/gcc/nios2-elf/4.1.2/../../../../nios2-elf/lib/libstdc++.a(eh_unex_handler.o)
 .debug_info    0x0000e165      0x9dd /home/lordrafa/altera/12.1sp1/nios2eds/bin/gnu/H-i686-pc-linux-gnu/bin/../lib/gcc/nios2-elf/4.1.2/../../../../nios2-elf/lib/libstdc++.a(si_class_type_info.o)
 .debug_info    0x0000eb42      0x77c /home/lordrafa/altera/12.1sp1/nios2eds/bin/gnu/H-i686-pc-linux-gnu/bin/../lib/gcc/nios2-elf/4.1.2/../../../../nios2-elf/lib/libstdc++.a(tinfo.o)
 .debug_info    0x0000f2be      0x21c /home/lordrafa/altera/12.1sp1/nios2eds/bin/gnu/H-i686-pc-linux-gnu/bin/../lib/gcc/nios2-elf/4.1.2/libgcc.a(lib2-divmod.o)
 .debug_info    0x0000f4da      0xaac /home/lordrafa/altera/12.1sp1/nios2eds/bin/gnu/H-i686-pc-linux-gnu/bin/../lib/gcc/nios2-elf/4.1.2/libgcc.a(unwind-sjlj.o)
 .debug_info    0x0000ff86       0x8f /home/lordrafa/altera/12.1sp1/nios2eds/bin/gnu/H-i686-pc-linux-gnu/bin/../lib/gcc/nios2-elf/4.1.2/../../../../nios2-elf/lib/libc.a(lib_a-abort.o)
 .debug_info    0x00010015      0x96e /home/lordrafa/altera/12.1sp1/nios2eds/bin/gnu/H-i686-pc-linux-gnu/bin/../lib/gcc/nios2-elf/4.1.2/../../../../nios2-elf/lib/libc.a(lib_a-malloc.o)
 .debug_info    0x00010983      0xcd0 /home/lordrafa/altera/12.1sp1/nios2eds/bin/gnu/H-i686-pc-linux-gnu/bin/../lib/gcc/nios2-elf/4.1.2/../../../../nios2-elf/lib/libc.a(lib_a-mallocr.o)
 .debug_info    0x00011653      0x106 /home/lordrafa/altera/12.1sp1/nios2eds/bin/gnu/H-i686-pc-linux-gnu/bin/../lib/gcc/nios2-elf/4.1.2/../../../../nios2-elf/lib/libc.a(lib_a-memcpy.o)
 .debug_info    0x00011759      0x113 /home/lordrafa/altera/12.1sp1/nios2eds/bin/gnu/H-i686-pc-linux-gnu/bin/../lib/gcc/nios2-elf/4.1.2/../../../../nios2-elf/lib/libc.a(lib_a-memset.o)
 .debug_info    0x0001186c      0x9d1 /home/lordrafa/altera/12.1sp1/nios2eds/bin/gnu/H-i686-pc-linux-gnu/bin/../lib/gcc/nios2-elf/4.1.2/../../../../nios2-elf/lib/libc.a(lib_a-printf.o)
 .debug_info    0x0001223d      0xa25 /home/lordrafa/altera/12.1sp1/nios2eds/bin/gnu/H-i686-pc-linux-gnu/bin/../lib/gcc/nios2-elf/4.1.2/../../../../nios2-elf/lib/libc.a(lib_a-puts.o)
 .debug_info    0x00012c62      0x962 /home/lordrafa/altera/12.1sp1/nios2eds/bin/gnu/H-i686-pc-linux-gnu/bin/../lib/gcc/nios2-elf/4.1.2/../../../../nios2-elf/lib/libc.a(lib_a-sbrkr.o)
 .debug_info    0x000135c4      0xae9 /home/lordrafa/altera/12.1sp1/nios2eds/bin/gnu/H-i686-pc-linux-gnu/bin/../lib/gcc/nios2-elf/4.1.2/../../../../nios2-elf/lib/libc.a(lib_a-signal.o)
 .debug_info    0x000140ad      0x99e /home/lordrafa/altera/12.1sp1/nios2eds/bin/gnu/H-i686-pc-linux-gnu/bin/../lib/gcc/nios2-elf/4.1.2/../../../../nios2-elf/lib/libc.a(lib_a-signalr.o)
 .debug_info    0x00014a4b      0xa49 /home/lordrafa/altera/12.1sp1/nios2eds/bin/gnu/H-i686-pc-linux-gnu/bin/../lib/gcc/nios2-elf/4.1.2/../../../../nios2-elf/lib/libc.a(lib_a-snprintf.o)
 .debug_info    0x00015494      0x110 /home/lordrafa/altera/12.1sp1/nios2eds/bin/gnu/H-i686-pc-linux-gnu/bin/../lib/gcc/nios2-elf/4.1.2/../../../../nios2-elf/lib/libc.a(lib_a-strcpy.o)
 .debug_info    0x000155a4       0xdb /home/lordrafa/altera/12.1sp1/nios2eds/bin/gnu/H-i686-pc-linux-gnu/bin/../lib/gcc/nios2-elf/4.1.2/../../../../nios2-elf/lib/libc.a(lib_a-strlen.o)
 .debug_info    0x0001567f     0x10d5 /home/lordrafa/altera/12.1sp1/nios2eds/bin/gnu/H-i686-pc-linux-gnu/bin/../lib/gcc/nios2-elf/4.1.2/../../../../nios2-elf/lib/libc.a(lib_a-vfprintf.o)
 .debug_info    0x00016754      0x95d /home/lordrafa/altera/12.1sp1/nios2eds/bin/gnu/H-i686-pc-linux-gnu/bin/../lib/gcc/nios2-elf/4.1.2/../../../../nios2-elf/lib/libc.a(lib_a-wsetup.o)
 .debug_info    0x000170b1      0xd6f /home/lordrafa/altera/12.1sp1/nios2eds/bin/gnu/H-i686-pc-linux-gnu/bin/../lib/gcc/nios2-elf/4.1.2/../../../../nios2-elf/lib/libc.a(lib_a-dtoa.o)
 .debug_info    0x00017e20      0x9fe /home/lordrafa/altera/12.1sp1/nios2eds/bin/gnu/H-i686-pc-linux-gnu/bin/../lib/gcc/nios2-elf/4.1.2/../../../../nios2-elf/lib/libc.a(lib_a-fflush.o)
 .debug_info    0x0001881e      0xb72 /home/lordrafa/altera/12.1sp1/nios2eds/bin/gnu/H-i686-pc-linux-gnu/bin/../lib/gcc/nios2-elf/4.1.2/../../../../nios2-elf/lib/libc.a(lib_a-findfp.o)
 .debug_info    0x00019390      0xbc9 /home/lordrafa/altera/12.1sp1/nios2eds/bin/gnu/H-i686-pc-linux-gnu/bin/../lib/gcc/nios2-elf/4.1.2/../../../../nios2-elf/lib/libc.a(lib_a-freer.o)
 .debug_info    0x00019f59      0xa88 /home/lordrafa/altera/12.1sp1/nios2eds/bin/gnu/H-i686-pc-linux-gnu/bin/../lib/gcc/nios2-elf/4.1.2/../../../../nios2-elf/lib/libc.a(lib_a-fvwrite.o)
 .debug_info    0x0001a9e1      0xaed /home/lordrafa/altera/12.1sp1/nios2eds/bin/gnu/H-i686-pc-linux-gnu/bin/../lib/gcc/nios2-elf/4.1.2/../../../../nios2-elf/lib/libc.a(lib_a-fwalk.o)
 .debug_info    0x0001b4ce      0x93d /home/lordrafa/altera/12.1sp1/nios2eds/bin/gnu/H-i686-pc-linux-gnu/bin/../lib/gcc/nios2-elf/4.1.2/../../../../nios2-elf/lib/libc.a(lib_a-impure.o)
 .debug_info    0x0001be0b       0x8c /home/lordrafa/altera/12.1sp1/nios2eds/bin/gnu/H-i686-pc-linux-gnu/bin/../lib/gcc/nios2-elf/4.1.2/../../../../nios2-elf/lib/libc.a(lib_a-int_errno.o)
 .debug_info    0x0001be97      0xb97 /home/lordrafa/altera/12.1sp1/nios2eds/bin/gnu/H-i686-pc-linux-gnu/bin/../lib/gcc/nios2-elf/4.1.2/../../../../nios2-elf/lib/libc.a(lib_a-locale.o)
 .debug_info    0x0001ca2e      0xb1a /home/lordrafa/altera/12.1sp1/nios2eds/bin/gnu/H-i686-pc-linux-gnu/bin/../lib/gcc/nios2-elf/4.1.2/../../../../nios2-elf/lib/libc.a(lib_a-makebuf.o)
 .debug_info    0x0001d548      0x138 /home/lordrafa/altera/12.1sp1/nios2eds/bin/gnu/H-i686-pc-linux-gnu/bin/../lib/gcc/nios2-elf/4.1.2/../../../../nios2-elf/lib/libc.a(lib_a-memchr.o)
 .debug_info    0x0001d680      0x13e /home/lordrafa/altera/12.1sp1/nios2eds/bin/gnu/H-i686-pc-linux-gnu/bin/../lib/gcc/nios2-elf/4.1.2/../../../../nios2-elf/lib/libc.a(lib_a-memmove.o)
 .debug_info    0x0001d7be     0x1437 /home/lordrafa/altera/12.1sp1/nios2eds/bin/gnu/H-i686-pc-linux-gnu/bin/../lib/gcc/nios2-elf/4.1.2/../../../../nios2-elf/lib/libc.a(lib_a-mprec.o)
 .debug_info    0x0001ebf5      0xbd7 /home/lordrafa/altera/12.1sp1/nios2eds/bin/gnu/H-i686-pc-linux-gnu/bin/../lib/gcc/nios2-elf/4.1.2/../../../../nios2-elf/lib/libc.a(lib_a-reallocr.o)
 .debug_info    0x0001f7cc       0xd7 /home/lordrafa/altera/12.1sp1/nios2eds/bin/gnu/H-i686-pc-linux-gnu/bin/../lib/gcc/nios2-elf/4.1.2/../../../../nios2-elf/lib/libc.a(lib_a-s_isinfd.o)
 .debug_info    0x0001f8a3       0xd5 /home/lordrafa/altera/12.1sp1/nios2eds/bin/gnu/H-i686-pc-linux-gnu/bin/../lib/gcc/nios2-elf/4.1.2/../../../../nios2-elf/lib/libc.a(lib_a-s_isnand.o)
 .debug_info    0x0001f978      0xaac /home/lordrafa/altera/12.1sp1/nios2eds/bin/gnu/H-i686-pc-linux-gnu/bin/../lib/gcc/nios2-elf/4.1.2/../../../../nios2-elf/lib/libc.a(lib_a-stdio.o)
 .debug_info    0x00020424       0xdd /home/lordrafa/altera/12.1sp1/nios2eds/bin/gnu/H-i686-pc-linux-gnu/bin/../lib/gcc/nios2-elf/4.1.2/../../../../nios2-elf/lib/libc.a(lib_a-strcmp.o)
 .debug_info    0x00020501      0x993 /home/lordrafa/altera/12.1sp1/nios2eds/bin/gnu/H-i686-pc-linux-gnu/bin/../lib/gcc/nios2-elf/4.1.2/../../../../nios2-elf/lib/libc.a(lib_a-writer.o)
 .debug_info    0x00020e94      0xa1b /home/lordrafa/altera/12.1sp1/nios2eds/bin/gnu/H-i686-pc-linux-gnu/bin/../lib/gcc/nios2-elf/4.1.2/../../../../nios2-elf/lib/libc.a(lib_a-callocr.o)
 .debug_info    0x000218af      0x958 /home/lordrafa/altera/12.1sp1/nios2eds/bin/gnu/H-i686-pc-linux-gnu/bin/../lib/gcc/nios2-elf/4.1.2/../../../../nios2-elf/lib/libc.a(lib_a-closer.o)
 .debug_info    0x00022207      0x994 /home/lordrafa/altera/12.1sp1/nios2eds/bin/gnu/H-i686-pc-linux-gnu/bin/../lib/gcc/nios2-elf/4.1.2/../../../../nios2-elf/lib/libc.a(lib_a-fclose.o)
 .debug_info    0x00022b9b      0xafc /home/lordrafa/altera/12.1sp1/nios2eds/bin/gnu/H-i686-pc-linux-gnu/bin/../lib/gcc/nios2-elf/4.1.2/../../../../nios2-elf/lib/libc.a(lib_a-fstatr.o)
 .debug_info    0x00023697      0x958 /home/lordrafa/altera/12.1sp1/nios2eds/bin/gnu/H-i686-pc-linux-gnu/bin/../lib/gcc/nios2-elf/4.1.2/../../../../nios2-elf/lib/libc.a(lib_a-isattyr.o)
 .debug_info    0x00023fef      0x981 /home/lordrafa/altera/12.1sp1/nios2eds/bin/gnu/H-i686-pc-linux-gnu/bin/../lib/gcc/nios2-elf/4.1.2/../../../../nios2-elf/lib/libc.a(lib_a-lseekr.o)
 .debug_info    0x00024970      0x98c /home/lordrafa/altera/12.1sp1/nios2eds/bin/gnu/H-i686-pc-linux-gnu/bin/../lib/gcc/nios2-elf/4.1.2/../../../../nios2-elf/lib/libc.a(lib_a-readr.o)
 .debug_info    0x000252fc      0x724 /home/lordrafa/altera/12.1sp1/nios2eds/bin/gnu/H-i686-pc-linux-gnu/bin/../lib/gcc/nios2-elf/4.1.2/libgcc.a(_udivdi3.o)
 .debug_info    0x00025a20      0x751 /home/lordrafa/altera/12.1sp1/nios2eds/bin/gnu/H-i686-pc-linux-gnu/bin/../lib/gcc/nios2-elf/4.1.2/libgcc.a(_umoddi3.o)
 .debug_info    0x00026171      0x493 /home/lordrafa/altera/12.1sp1/nios2eds/bin/gnu/H-i686-pc-linux-gnu/bin/../lib/gcc/nios2-elf/4.1.2/libgcc.a(_addsub_df.o)
 .debug_info    0x00026604      0x488 /home/lordrafa/altera/12.1sp1/nios2eds/bin/gnu/H-i686-pc-linux-gnu/bin/../lib/gcc/nios2-elf/4.1.2/libgcc.a(_mul_df.o)
 .debug_info    0x00026a8c      0x39b /home/lordrafa/altera/12.1sp1/nios2eds/bin/gnu/H-i686-pc-linux-gnu/bin/../lib/gcc/nios2-elf/4.1.2/libgcc.a(_div_df.o)
 .debug_info    0x00026e27      0x29d /home/lordrafa/altera/12.1sp1/nios2eds/bin/gnu/H-i686-pc-linux-gnu/bin/../lib/gcc/nios2-elf/4.1.2/libgcc.a(_eq_df.o)
 .debug_info    0x000270c4      0x29d /home/lordrafa/altera/12.1sp1/nios2eds/bin/gnu/H-i686-pc-linux-gnu/bin/../lib/gcc/nios2-elf/4.1.2/libgcc.a(_ne_df.o)
 .debug_info    0x00027361      0x29d /home/lordrafa/altera/12.1sp1/nios2eds/bin/gnu/H-i686-pc-linux-gnu/bin/../lib/gcc/nios2-elf/4.1.2/libgcc.a(_gt_df.o)
 .debug_info    0x000275fe      0x29d /home/lordrafa/altera/12.1sp1/nios2eds/bin/gnu/H-i686-pc-linux-gnu/bin/../lib/gcc/nios2-elf/4.1.2/libgcc.a(_ge_df.o)
 .debug_info    0x0002789b      0x29d /home/lordrafa/altera/12.1sp1/nios2eds/bin/gnu/H-i686-pc-linux-gnu/bin/../lib/gcc/nios2-elf/4.1.2/libgcc.a(_lt_df.o)
 .debug_info    0x00027b38      0x218 /home/lordrafa/altera/12.1sp1/nios2eds/bin/gnu/H-i686-pc-linux-gnu/bin/../lib/gcc/nios2-elf/4.1.2/libgcc.a(_si_to_df.o)
 .debug_info    0x00027d50      0x2cd /home/lordrafa/altera/12.1sp1/nios2eds/bin/gnu/H-i686-pc-linux-gnu/bin/../lib/gcc/nios2-elf/4.1.2/libgcc.a(_df_to_si.o)
 .debug_info    0x0002801d      0x164 /home/lordrafa/altera/12.1sp1/nios2eds/bin/gnu/H-i686-pc-linux-gnu/bin/../lib/gcc/nios2-elf/4.1.2/libgcc.a(_thenan_df.o)
 .debug_info    0x00028181      0x213 /home/lordrafa/altera/12.1sp1/nios2eds/bin/gnu/H-i686-pc-linux-gnu/bin/../lib/gcc/nios2-elf/4.1.2/libgcc.a(_usi_to_df.o)
 .debug_info    0x00028394      0x215 /home/lordrafa/altera/12.1sp1/nios2eds/bin/gnu/H-i686-pc-linux-gnu/bin/../lib/gcc/nios2-elf/4.1.2/libgcc.a(_muldi3.o)
 .debug_info    0x000285a9       0xc9 /home/lordrafa/altera/12.1sp1/nios2eds/bin/gnu/H-i686-pc-linux-gnu/bin/../lib/gcc/nios2-elf/4.1.2/libgcc.a(_clz.o)
 .debug_info    0x00028672      0x130 /home/lordrafa/altera/12.1sp1/nios2eds/bin/gnu/H-i686-pc-linux-gnu/bin/../lib/gcc/nios2-elf/4.1.2/libgcc.a(_clzsi2.o)
 .debug_info    0x000287a2      0x2fc /home/lordrafa/altera/12.1sp1/nios2eds/bin/gnu/H-i686-pc-linux-gnu/bin/../lib/gcc/nios2-elf/4.1.2/libgcc.a(_pack_df.o)
 .debug_info    0x00028a9e      0x268 /home/lordrafa/altera/12.1sp1/nios2eds/bin/gnu/H-i686-pc-linux-gnu/bin/../lib/gcc/nios2-elf/4.1.2/libgcc.a(_unpack_df.o)
 .debug_info    0x00028d06      0x21b /home/lordrafa/altera/12.1sp1/nios2eds/bin/gnu/H-i686-pc-linux-gnu/bin/../lib/gcc/nios2-elf/4.1.2/libgcc.a(_fpcmp_parts_df.o)
 .debug_info    0x00028f21      0x473 ../RawaPro_Linux_Cache_bsp//libhal_bsp.a(alt_close.o)
 .debug_info    0x00029394      0x68b ../RawaPro_Linux_Cache_bsp//libhal_bsp.a(alt_dev.o)
 .debug_info    0x00029a1f      0x170 ../RawaPro_Linux_Cache_bsp//libhal_bsp.a(alt_errno.o)
 .debug_info    0x00029b8f      0x199 ../RawaPro_Linux_Cache_bsp//libhal_bsp.a(alt_exit.o)
 .debug_info    0x00029d28      0x66c ../RawaPro_Linux_Cache_bsp//libhal_bsp.a(alt_fstat.o)
 .debug_info    0x0002a394       0xb4 ../RawaPro_Linux_Cache_bsp//libhal_bsp.a(alt_getpid.o)
 .debug_info    0x0002a448      0x49f ../RawaPro_Linux_Cache_bsp//libhal_bsp.a(alt_iic.o)
 .debug_info    0x0002a8e7      0x320 ../RawaPro_Linux_Cache_bsp//libhal_bsp.a(alt_iic_isr_register.o)
 .debug_info    0x0002ac07       0x90 ../RawaPro_Linux_Cache_bsp//libhal_bsp.a(alt_irq_entry.o)
 .debug_info    0x0002ac97      0x281 ../RawaPro_Linux_Cache_bsp//libhal_bsp.a(alt_irq_handler.o)
 .debug_info    0x0002af18      0x173 ../RawaPro_Linux_Cache_bsp//libhal_bsp.a(alt_irq_vars.o)
 .debug_info    0x0002b08b      0x672 ../RawaPro_Linux_Cache_bsp//libhal_bsp.a(alt_isatty.o)
 .debug_info    0x0002b6fd      0x1d8 ../RawaPro_Linux_Cache_bsp//libhal_bsp.a(alt_kill.o)
 .debug_info    0x0002b8d5      0x299 ../RawaPro_Linux_Cache_bsp//libhal_bsp.a(alt_load.o)
 .debug_info    0x0002bb6e      0x4a6 ../RawaPro_Linux_Cache_bsp//libhal_bsp.a(alt_lseek.o)
 .debug_info    0x0002c014      0x231 ../RawaPro_Linux_Cache_bsp//libhal_bsp.a(alt_main.o)
 .debug_info    0x0002c245      0xc24 ../RawaPro_Linux_Cache_bsp//libhal_bsp.a(alt_malloc_lock.o)
 .debug_info    0x0002ce69      0x696 ../RawaPro_Linux_Cache_bsp//libhal_bsp.a(alt_read.o)
 .debug_info    0x0002d4ff      0x3fe ../RawaPro_Linux_Cache_bsp//libhal_bsp.a(alt_release_fd.o)
 .debug_info    0x0002d8fd      0x1a1 ../RawaPro_Linux_Cache_bsp//libhal_bsp.a(alt_remap_uncached.o)
 .debug_info    0x0002da9e      0x2c3 ../RawaPro_Linux_Cache_bsp//libhal_bsp.a(alt_sbrk.o)
 .debug_info    0x0002dd61      0x40a ../RawaPro_Linux_Cache_bsp//libhal_bsp.a(alt_tick.o)
 .debug_info    0x0002e16b      0x1a3 ../RawaPro_Linux_Cache_bsp//libhal_bsp.a(alt_uncached_malloc.o)
 .debug_info    0x0002e30e      0x174 ../RawaPro_Linux_Cache_bsp//libhal_bsp.a(alt_usleep.o)
 .debug_info    0x0002e482      0x69f ../RawaPro_Linux_Cache_bsp//libhal_bsp.a(alt_write.o)
 .debug_info    0x0002eb21      0x72c ../RawaPro_Linux_Cache_bsp//libhal_bsp.a(alt_sys_init.o)
 .debug_info    0x0002f24d      0x7e5 ../RawaPro_Linux_Cache_bsp//libhal_bsp.a(altera_avalon_jtag_uart_fd.o)
 .debug_info    0x0002fa32      0x60d ../RawaPro_Linux_Cache_bsp//libhal_bsp.a(altera_avalon_jtag_uart_init.o)
 .debug_info    0x0003003f      0x44f ../RawaPro_Linux_Cache_bsp//libhal_bsp.a(altera_avalon_jtag_uart_ioctl.o)
 .debug_info    0x0003048e      0x552 ../RawaPro_Linux_Cache_bsp//libhal_bsp.a(altera_avalon_jtag_uart_read.o)
 .debug_info    0x000309e0      0x54a ../RawaPro_Linux_Cache_bsp//libhal_bsp.a(altera_avalon_jtag_uart_write.o)
 .debug_info    0x00030f2a      0x2bb ../RawaPro_Linux_Cache_bsp//libhal_bsp.a(altera_avalon_performance_counter.o)
 .debug_info    0x000311e5      0x397 ../RawaPro_Linux_Cache_bsp//libhal_bsp.a(altera_avalon_timer_sc.o)
 .debug_info    0x0003157c      0x44e ../RawaPro_Linux_Cache_bsp//libhal_bsp.a(alt_alarm_start.o)
 .debug_info    0x000319ca      0x1b7 ../RawaPro_Linux_Cache_bsp//libhal_bsp.a(alt_busy_sleep.o)
 .debug_info    0x00031b81      0x1b0 ../RawaPro_Linux_Cache_bsp//libhal_bsp.a(alt_dcache_flush.o)
 .debug_info    0x00031d31      0x17b ../RawaPro_Linux_Cache_bsp//libhal_bsp.a(alt_dcache_flush_all.o)
 .debug_info    0x00031eac      0x2c3 ../RawaPro_Linux_Cache_bsp//libhal_bsp.a(alt_dev_llist_insert.o)
 .debug_info    0x0003216f      0x11b ../RawaPro_Linux_Cache_bsp//libhal_bsp.a(alt_do_ctors.o)
 .debug_info    0x0003228a      0x11a ../RawaPro_Linux_Cache_bsp//libhal_bsp.a(alt_do_dtors.o)
 .debug_info    0x000323a4       0x96 ../RawaPro_Linux_Cache_bsp//libhal_bsp.a(alt_exception_entry.o)
 .debug_info    0x0003243a      0x168 ../RawaPro_Linux_Cache_bsp//libhal_bsp.a(alt_icache_flush_all.o)
 .debug_info    0x000325a2      0x6a1 ../RawaPro_Linux_Cache_bsp//libhal_bsp.a(alt_io_redirect.o)
 .debug_info    0x00032c43      0x531 ../RawaPro_Linux_Cache_bsp//libhal_bsp.a(alt_open.o)
 .debug_info    0x00033174      0x16f ../RawaPro_Linux_Cache_bsp//libhal_bsp.a(altera_nios2_qsys_irq.o)
 .debug_info    0x000332e3      0x424 ../RawaPro_Linux_Cache_bsp//libhal_bsp.a(alt_find_dev.o)
 .debug_info    0x00033707      0x42b ../RawaPro_Linux_Cache_bsp//libhal_bsp.a(alt_find_file.o)
 .debug_info    0x00033b32      0x46c ../RawaPro_Linux_Cache_bsp//libhal_bsp.a(alt_get_fd.o)
 .debug_info    0x00033f9e      0x1b0 ../RawaPro_Linux_Cache_bsp//libhal_bsp.a(alt_icache_flush.o)
 .debug_info    0x0003414e      0x181 /home/lordrafa/altera/12.1sp1/nios2eds/bin/gnu/H-i686-pc-linux-gnu/bin/../lib/gcc/nios2-elf/4.1.2/../../../../nios2-elf/lib/libc.a(lib_a-atexit.o)
 .debug_info    0x000342cf      0x93f /home/lordrafa/altera/12.1sp1/nios2eds/bin/gnu/H-i686-pc-linux-gnu/bin/../lib/gcc/nios2-elf/4.1.2/../../../../nios2-elf/lib/libc.a(lib_a-exit.o)
 .debug_info    0x00034c0e      0x115 /home/lordrafa/altera/12.1sp1/nios2eds/bin/gnu/H-i686-pc-linux-gnu/bin/../lib/gcc/nios2-elf/4.1.2/../../../../nios2-elf/lib/libc.a(lib_a-memcmp.o)
 .debug_info    0x00034d23      0x99c /home/lordrafa/altera/12.1sp1/nios2eds/bin/gnu/H-i686-pc-linux-gnu/bin/../lib/gcc/nios2-elf/4.1.2/../../../../nios2-elf/lib/libc.a(lib_a-__atexit.o)
 .debug_info    0x000356bf      0x9e2 /home/lordrafa/altera/12.1sp1/nios2eds/bin/gnu/H-i686-pc-linux-gnu/bin/../lib/gcc/nios2-elf/4.1.2/../../../../nios2-elf/lib/libc.a(lib_a-__call_atexit.o)

.debug_abbrev   0x00000000     0xc148
 *(.debug_abbrev)
 .debug_abbrev  0x00000000       0x12 ../RawaPro_Linux_Cache_bsp//obj/HAL/src/crt0.o
 .debug_abbrev  0x00000012      0x1a5 obj/default/alt_tpo_lcd/alt_tpo_lcd.o
 .debug_abbrev  0x000001b7      0x110 obj/default/alt_video_display/alt_video_display.o
 .debug_abbrev  0x000002c7      0x107 obj/default/audio_tvdecoder/i2c.o
 .debug_abbrev  0x000003ce       0x9f obj/default/audio_tvdecoder/tvdecoder_ctrl.o
 .debug_abbrev  0x0000046d       0xa2 obj/default/fonts/tahomabold_20.o
 .debug_abbrev  0x0000050f       0xa2 obj/default/fonts/tahomabold_32.o
 .debug_abbrev  0x000005b1      0x1b9 obj/default/graphics_lib/simple_graphics.o
 .debug_abbrev  0x0000076a      0x155 obj/default/graphics_lib/simple_text.o
 .debug_abbrev  0x000008bf       0xab obj/default/keyhandler/keyhandler.o
 .debug_abbrev  0x0000096a       0xfd obj/default/main.o
 .debug_abbrev  0x00000a67       0x9d obj/default/sfs/sfs.o
 .debug_abbrev  0x00000b04      0x2be obj/default/framereader/vip_wrapper_for_c_func.o
 .debug_abbrev  0x00000dc2      0x52a /home/lordrafa/altera/12.1sp1/nios2eds/bin/gnu/H-i686-pc-linux-gnu/bin/../lib/gcc/nios2-elf/4.1.2/../../../../nios2-elf/lib/libstdc++.a(eh_personality.o)
 .debug_abbrev  0x000012ec      0x2dc /home/lordrafa/altera/12.1sp1/nios2eds/bin/gnu/H-i686-pc-linux-gnu/bin/../lib/gcc/nios2-elf/4.1.2/../../../../nios2-elf/lib/libstdc++.a(eh_terminate.o)
 .debug_abbrev  0x000015c8      0x1fc /home/lordrafa/altera/12.1sp1/nios2eds/bin/gnu/H-i686-pc-linux-gnu/bin/../lib/gcc/nios2-elf/4.1.2/../../../../nios2-elf/lib/libstdc++.a(eh_term_handler.o)
 .debug_abbrev  0x000017c4      0x31f /home/lordrafa/altera/12.1sp1/nios2eds/bin/gnu/H-i686-pc-linux-gnu/bin/../lib/gcc/nios2-elf/4.1.2/../../../../nios2-elf/lib/libstdc++.a(eh_catch.o)
 .debug_abbrev  0x00001ae3      0x13d /home/lordrafa/altera/12.1sp1/nios2eds/bin/gnu/H-i686-pc-linux-gnu/bin/../lib/gcc/nios2-elf/4.1.2/../../../../nios2-elf/lib/libstdc++.a(del_op.o)
 .debug_abbrev  0x00001c20      0x2a1 /home/lordrafa/altera/12.1sp1/nios2eds/bin/gnu/H-i686-pc-linux-gnu/bin/../lib/gcc/nios2-elf/4.1.2/../../../../nios2-elf/lib/libstdc++.a(eh_throw.o)
 .debug_abbrev  0x00001ec1      0x2f8 /home/lordrafa/altera/12.1sp1/nios2eds/bin/gnu/H-i686-pc-linux-gnu/bin/../lib/gcc/nios2-elf/4.1.2/../../../../nios2-elf/lib/libstdc++.a(eh_alloc.o)
 .debug_abbrev  0x000021b9      0x227 /home/lordrafa/altera/12.1sp1/nios2eds/bin/gnu/H-i686-pc-linux-gnu/bin/../lib/gcc/nios2-elf/4.1.2/../../../../nios2-elf/lib/libstdc++.a(new_op.o)
 .debug_abbrev  0x000023e0      0x21c /home/lordrafa/altera/12.1sp1/nios2eds/bin/gnu/H-i686-pc-linux-gnu/bin/../lib/gcc/nios2-elf/4.1.2/../../../../nios2-elf/lib/libstdc++.a(eh_exception.o)
 .debug_abbrev  0x000025fc      0x2ad /home/lordrafa/altera/12.1sp1/nios2eds/bin/gnu/H-i686-pc-linux-gnu/bin/../lib/gcc/nios2-elf/4.1.2/../../../../nios2-elf/lib/libstdc++.a(eh_call.o)
 .debug_abbrev  0x000028a9      0x1c6 /home/lordrafa/altera/12.1sp1/nios2eds/bin/gnu/H-i686-pc-linux-gnu/bin/../lib/gcc/nios2-elf/4.1.2/../../../../nios2-elf/lib/libstdc++.a(new_handler.o)
 .debug_abbrev  0x00002a6f      0x340 /home/lordrafa/altera/12.1sp1/nios2eds/bin/gnu/H-i686-pc-linux-gnu/bin/../lib/gcc/nios2-elf/4.1.2/../../../../nios2-elf/lib/libstdc++.a(eh_globals.o)
 .debug_abbrev  0x00002daf      0x3cb /home/lordrafa/altera/12.1sp1/nios2eds/bin/gnu/H-i686-pc-linux-gnu/bin/../lib/gcc/nios2-elf/4.1.2/../../../../nios2-elf/lib/libstdc++.a(class_type_info.o)
 .debug_abbrev  0x0000317a      0x1e6 /home/lordrafa/altera/12.1sp1/nios2eds/bin/gnu/H-i686-pc-linux-gnu/bin/../lib/gcc/nios2-elf/4.1.2/../../../../nios2-elf/lib/libstdc++.a(eh_unex_handler.o)
 .debug_abbrev  0x00003360      0x3e2 /home/lordrafa/altera/12.1sp1/nios2eds/bin/gnu/H-i686-pc-linux-gnu/bin/../lib/gcc/nios2-elf/4.1.2/../../../../nios2-elf/lib/libstdc++.a(si_class_type_info.o)
 .debug_abbrev  0x00003742      0x34f /home/lordrafa/altera/12.1sp1/nios2eds/bin/gnu/H-i686-pc-linux-gnu/bin/../lib/gcc/nios2-elf/4.1.2/../../../../nios2-elf/lib/libstdc++.a(tinfo.o)
 .debug_abbrev  0x00003a91       0xe0 /home/lordrafa/altera/12.1sp1/nios2eds/bin/gnu/H-i686-pc-linux-gnu/bin/../lib/gcc/nios2-elf/4.1.2/libgcc.a(lib2-divmod.o)
 .debug_abbrev  0x00003b71      0x363 /home/lordrafa/altera/12.1sp1/nios2eds/bin/gnu/H-i686-pc-linux-gnu/bin/../lib/gcc/nios2-elf/4.1.2/libgcc.a(unwind-sjlj.o)
 .debug_abbrev  0x00003ed4       0x3f /home/lordrafa/altera/12.1sp1/nios2eds/bin/gnu/H-i686-pc-linux-gnu/bin/../lib/gcc/nios2-elf/4.1.2/../../../../nios2-elf/lib/libc.a(lib_a-abort.o)
 .debug_abbrev  0x00003f13      0x187 /home/lordrafa/altera/12.1sp1/nios2eds/bin/gnu/H-i686-pc-linux-gnu/bin/../lib/gcc/nios2-elf/4.1.2/../../../../nios2-elf/lib/libc.a(lib_a-malloc.o)
 .debug_abbrev  0x0000409a      0x216 /home/lordrafa/altera/12.1sp1/nios2eds/bin/gnu/H-i686-pc-linux-gnu/bin/../lib/gcc/nios2-elf/4.1.2/../../../../nios2-elf/lib/libc.a(lib_a-mallocr.o)
 .debug_abbrev  0x000042b0       0xb5 /home/lordrafa/altera/12.1sp1/nios2eds/bin/gnu/H-i686-pc-linux-gnu/bin/../lib/gcc/nios2-elf/4.1.2/../../../../nios2-elf/lib/libc.a(lib_a-memcpy.o)
 .debug_abbrev  0x00004365       0xb8 /home/lordrafa/altera/12.1sp1/nios2eds/bin/gnu/H-i686-pc-linux-gnu/bin/../lib/gcc/nios2-elf/4.1.2/../../../../nios2-elf/lib/libc.a(lib_a-memset.o)
 .debug_abbrev  0x0000441d      0x191 /home/lordrafa/altera/12.1sp1/nios2eds/bin/gnu/H-i686-pc-linux-gnu/bin/../lib/gcc/nios2-elf/4.1.2/../../../../nios2-elf/lib/libc.a(lib_a-printf.o)
 .debug_abbrev  0x000045ae      0x1ac /home/lordrafa/altera/12.1sp1/nios2eds/bin/gnu/H-i686-pc-linux-gnu/bin/../lib/gcc/nios2-elf/4.1.2/../../../../nios2-elf/lib/libc.a(lib_a-puts.o)
 .debug_abbrev  0x0000475a      0x18c /home/lordrafa/altera/12.1sp1/nios2eds/bin/gnu/H-i686-pc-linux-gnu/bin/../lib/gcc/nios2-elf/4.1.2/../../../../nios2-elf/lib/libc.a(lib_a-sbrkr.o)
 .debug_abbrev  0x000048e6      0x1cb /home/lordrafa/altera/12.1sp1/nios2eds/bin/gnu/H-i686-pc-linux-gnu/bin/../lib/gcc/nios2-elf/4.1.2/../../../../nios2-elf/lib/libc.a(lib_a-signal.o)
 .debug_abbrev  0x00004ab1      0x1a5 /home/lordrafa/altera/12.1sp1/nios2eds/bin/gnu/H-i686-pc-linux-gnu/bin/../lib/gcc/nios2-elf/4.1.2/../../../../nios2-elf/lib/libc.a(lib_a-signalr.o)
 .debug_abbrev  0x00004c56      0x1a2 /home/lordrafa/altera/12.1sp1/nios2eds/bin/gnu/H-i686-pc-linux-gnu/bin/../lib/gcc/nios2-elf/4.1.2/../../../../nios2-elf/lib/libc.a(lib_a-snprintf.o)
 .debug_abbrev  0x00004df8       0x8f /home/lordrafa/altera/12.1sp1/nios2eds/bin/gnu/H-i686-pc-linux-gnu/bin/../lib/gcc/nios2-elf/4.1.2/../../../../nios2-elf/lib/libc.a(lib_a-strcpy.o)
 .debug_abbrev  0x00004e87       0x8b /home/lordrafa/altera/12.1sp1/nios2eds/bin/gnu/H-i686-pc-linux-gnu/bin/../lib/gcc/nios2-elf/4.1.2/../../../../nios2-elf/lib/libc.a(lib_a-strlen.o)
 .debug_abbrev  0x00004f12      0x30a /home/lordrafa/altera/12.1sp1/nios2eds/bin/gnu/H-i686-pc-linux-gnu/bin/../lib/gcc/nios2-elf/4.1.2/../../../../nios2-elf/lib/libc.a(lib_a-vfprintf.o)
 .debug_abbrev  0x0000521c      0x170 /home/lordrafa/altera/12.1sp1/nios2eds/bin/gnu/H-i686-pc-linux-gnu/bin/../lib/gcc/nios2-elf/4.1.2/../../../../nios2-elf/lib/libc.a(lib_a-wsetup.o)
 .debug_abbrev  0x0000538c      0x232 /home/lordrafa/altera/12.1sp1/nios2eds/bin/gnu/H-i686-pc-linux-gnu/bin/../lib/gcc/nios2-elf/4.1.2/../../../../nios2-elf/lib/libc.a(lib_a-dtoa.o)
 .debug_abbrev  0x000055be      0x1c6 /home/lordrafa/altera/12.1sp1/nios2eds/bin/gnu/H-i686-pc-linux-gnu/bin/../lib/gcc/nios2-elf/4.1.2/../../../../nios2-elf/lib/libc.a(lib_a-fflush.o)
 .debug_abbrev  0x00005784      0x24c /home/lordrafa/altera/12.1sp1/nios2eds/bin/gnu/H-i686-pc-linux-gnu/bin/../lib/gcc/nios2-elf/4.1.2/../../../../nios2-elf/lib/libc.a(lib_a-findfp.o)
 .debug_abbrev  0x000059d0      0x1d9 /home/lordrafa/altera/12.1sp1/nios2eds/bin/gnu/H-i686-pc-linux-gnu/bin/../lib/gcc/nios2-elf/4.1.2/../../../../nios2-elf/lib/libc.a(lib_a-freer.o)
 .debug_abbrev  0x00005ba9      0x1a3 /home/lordrafa/altera/12.1sp1/nios2eds/bin/gnu/H-i686-pc-linux-gnu/bin/../lib/gcc/nios2-elf/4.1.2/../../../../nios2-elf/lib/libc.a(lib_a-fvwrite.o)
 .debug_abbrev  0x00005d4c      0x1e3 /home/lordrafa/altera/12.1sp1/nios2eds/bin/gnu/H-i686-pc-linux-gnu/bin/../lib/gcc/nios2-elf/4.1.2/../../../../nios2-elf/lib/libc.a(lib_a-fwalk.o)
 .debug_abbrev  0x00005f2f      0x157 /home/lordrafa/altera/12.1sp1/nios2eds/bin/gnu/H-i686-pc-linux-gnu/bin/../lib/gcc/nios2-elf/4.1.2/../../../../nios2-elf/lib/libc.a(lib_a-impure.o)
 .debug_abbrev  0x00006086       0x3b /home/lordrafa/altera/12.1sp1/nios2eds/bin/gnu/H-i686-pc-linux-gnu/bin/../lib/gcc/nios2-elf/4.1.2/../../../../nios2-elf/lib/libc.a(lib_a-int_errno.o)
 .debug_abbrev  0x000060c1      0x1ed /home/lordrafa/altera/12.1sp1/nios2eds/bin/gnu/H-i686-pc-linux-gnu/bin/../lib/gcc/nios2-elf/4.1.2/../../../../nios2-elf/lib/libc.a(lib_a-locale.o)
 .debug_abbrev  0x000062ae      0x197 /home/lordrafa/altera/12.1sp1/nios2eds/bin/gnu/H-i686-pc-linux-gnu/bin/../lib/gcc/nios2-elf/4.1.2/../../../../nios2-elf/lib/libc.a(lib_a-makebuf.o)
 .debug_abbrev  0x00006445       0xb5 /home/lordrafa/altera/12.1sp1/nios2eds/bin/gnu/H-i686-pc-linux-gnu/bin/../lib/gcc/nios2-elf/4.1.2/../../../../nios2-elf/lib/libc.a(lib_a-memchr.o)
 .debug_abbrev  0x000064fa       0xb5 /home/lordrafa/altera/12.1sp1/nios2eds/bin/gnu/H-i686-pc-linux-gnu/bin/../lib/gcc/nios2-elf/4.1.2/../../../../nios2-elf/lib/libc.a(lib_a-memmove.o)
 .debug_abbrev  0x000065af      0x297 /home/lordrafa/altera/12.1sp1/nios2eds/bin/gnu/H-i686-pc-linux-gnu/bin/../lib/gcc/nios2-elf/4.1.2/../../../../nios2-elf/lib/libc.a(lib_a-mprec.o)
 .debug_abbrev  0x00006846      0x1c3 /home/lordrafa/altera/12.1sp1/nios2eds/bin/gnu/H-i686-pc-linux-gnu/bin/../lib/gcc/nios2-elf/4.1.2/../../../../nios2-elf/lib/libc.a(lib_a-reallocr.o)
 .debug_abbrev  0x00006a09       0x79 /home/lordrafa/altera/12.1sp1/nios2eds/bin/gnu/H-i686-pc-linux-gnu/bin/../lib/gcc/nios2-elf/4.1.2/../../../../nios2-elf/lib/libc.a(lib_a-s_isinfd.o)
 .debug_abbrev  0x00006a82       0x79 /home/lordrafa/altera/12.1sp1/nios2eds/bin/gnu/H-i686-pc-linux-gnu/bin/../lib/gcc/nios2-elf/4.1.2/../../../../nios2-elf/lib/libc.a(lib_a-s_isnand.o)
 .debug_abbrev  0x00006afb      0x1c9 /home/lordrafa/altera/12.1sp1/nios2eds/bin/gnu/H-i686-pc-linux-gnu/bin/../lib/gcc/nios2-elf/4.1.2/../../../../nios2-elf/lib/libc.a(lib_a-stdio.o)
 .debug_abbrev  0x00006cc4       0x80 /home/lordrafa/altera/12.1sp1/nios2eds/bin/gnu/H-i686-pc-linux-gnu/bin/../lib/gcc/nios2-elf/4.1.2/../../../../nios2-elf/lib/libc.a(lib_a-strcmp.o)
 .debug_abbrev  0x00006d44      0x184 /home/lordrafa/altera/12.1sp1/nios2eds/bin/gnu/H-i686-pc-linux-gnu/bin/../lib/gcc/nios2-elf/4.1.2/../../../../nios2-elf/lib/libc.a(lib_a-writer.o)
 .debug_abbrev  0x00006ec8      0x1b8 /home/lordrafa/altera/12.1sp1/nios2eds/bin/gnu/H-i686-pc-linux-gnu/bin/../lib/gcc/nios2-elf/4.1.2/../../../../nios2-elf/lib/libc.a(lib_a-callocr.o)
 .debug_abbrev  0x00007080      0x17f /home/lordrafa/altera/12.1sp1/nios2eds/bin/gnu/H-i686-pc-linux-gnu/bin/../lib/gcc/nios2-elf/4.1.2/../../../../nios2-elf/lib/libc.a(lib_a-closer.o)
 .debug_abbrev  0x000071ff      0x1a7 /home/lordrafa/altera/12.1sp1/nios2eds/bin/gnu/H-i686-pc-linux-gnu/bin/../lib/gcc/nios2-elf/4.1.2/../../../../nios2-elf/lib/libc.a(lib_a-fclose.o)
 .debug_abbrev  0x000073a6      0x18e /home/lordrafa/altera/12.1sp1/nios2eds/bin/gnu/H-i686-pc-linux-gnu/bin/../lib/gcc/nios2-elf/4.1.2/../../../../nios2-elf/lib/libc.a(lib_a-fstatr.o)
 .debug_abbrev  0x00007534      0x17f /home/lordrafa/altera/12.1sp1/nios2eds/bin/gnu/H-i686-pc-linux-gnu/bin/../lib/gcc/nios2-elf/4.1.2/../../../../nios2-elf/lib/libc.a(lib_a-isattyr.o)
 .debug_abbrev  0x000076b3      0x18e /home/lordrafa/altera/12.1sp1/nios2eds/bin/gnu/H-i686-pc-linux-gnu/bin/../lib/gcc/nios2-elf/4.1.2/../../../../nios2-elf/lib/libc.a(lib_a-lseekr.o)
 .debug_abbrev  0x00007841      0x17f /home/lordrafa/altera/12.1sp1/nios2eds/bin/gnu/H-i686-pc-linux-gnu/bin/../lib/gcc/nios2-elf/4.1.2/../../../../nios2-elf/lib/libc.a(lib_a-readr.o)
 .debug_abbrev  0x000079c0      0x16b /home/lordrafa/altera/12.1sp1/nios2eds/bin/gnu/H-i686-pc-linux-gnu/bin/../lib/gcc/nios2-elf/4.1.2/libgcc.a(_udivdi3.o)
 .debug_abbrev  0x00007b2b      0x18e /home/lordrafa/altera/12.1sp1/nios2eds/bin/gnu/H-i686-pc-linux-gnu/bin/../lib/gcc/nios2-elf/4.1.2/libgcc.a(_umoddi3.o)
 .debug_abbrev  0x00007cb9      0x1d2 /home/lordrafa/altera/12.1sp1/nios2eds/bin/gnu/H-i686-pc-linux-gnu/bin/../lib/gcc/nios2-elf/4.1.2/libgcc.a(_addsub_df.o)
 .debug_abbrev  0x00007e8b      0x204 /home/lordrafa/altera/12.1sp1/nios2eds/bin/gnu/H-i686-pc-linux-gnu/bin/../lib/gcc/nios2-elf/4.1.2/libgcc.a(_mul_df.o)
 .debug_abbrev  0x0000808f      0x1e3 /home/lordrafa/altera/12.1sp1/nios2eds/bin/gnu/H-i686-pc-linux-gnu/bin/../lib/gcc/nios2-elf/4.1.2/libgcc.a(_div_df.o)
 .debug_abbrev  0x00008272      0x151 /home/lordrafa/altera/12.1sp1/nios2eds/bin/gnu/H-i686-pc-linux-gnu/bin/../lib/gcc/nios2-elf/4.1.2/libgcc.a(_eq_df.o)
 .debug_abbrev  0x000083c3      0x151 /home/lordrafa/altera/12.1sp1/nios2eds/bin/gnu/H-i686-pc-linux-gnu/bin/../lib/gcc/nios2-elf/4.1.2/libgcc.a(_ne_df.o)
 .debug_abbrev  0x00008514      0x151 /home/lordrafa/altera/12.1sp1/nios2eds/bin/gnu/H-i686-pc-linux-gnu/bin/../lib/gcc/nios2-elf/4.1.2/libgcc.a(_gt_df.o)
 .debug_abbrev  0x00008665      0x151 /home/lordrafa/altera/12.1sp1/nios2eds/bin/gnu/H-i686-pc-linux-gnu/bin/../lib/gcc/nios2-elf/4.1.2/libgcc.a(_ge_df.o)
 .debug_abbrev  0x000087b6      0x151 /home/lordrafa/altera/12.1sp1/nios2eds/bin/gnu/H-i686-pc-linux-gnu/bin/../lib/gcc/nios2-elf/4.1.2/libgcc.a(_lt_df.o)
 .debug_abbrev  0x00008907      0x13f /home/lordrafa/altera/12.1sp1/nios2eds/bin/gnu/H-i686-pc-linux-gnu/bin/../lib/gcc/nios2-elf/4.1.2/libgcc.a(_si_to_df.o)
 .debug_abbrev  0x00008a46      0x176 /home/lordrafa/altera/12.1sp1/nios2eds/bin/gnu/H-i686-pc-linux-gnu/bin/../lib/gcc/nios2-elf/4.1.2/libgcc.a(_df_to_si.o)
 .debug_abbrev  0x00008bbc       0xba /home/lordrafa/altera/12.1sp1/nios2eds/bin/gnu/H-i686-pc-linux-gnu/bin/../lib/gcc/nios2-elf/4.1.2/libgcc.a(_thenan_df.o)
 .debug_abbrev  0x00008c76      0x155 /home/lordrafa/altera/12.1sp1/nios2eds/bin/gnu/H-i686-pc-linux-gnu/bin/../lib/gcc/nios2-elf/4.1.2/libgcc.a(_usi_to_df.o)
 .debug_abbrev  0x00008dcb       0xee /home/lordrafa/altera/12.1sp1/nios2eds/bin/gnu/H-i686-pc-linux-gnu/bin/../lib/gcc/nios2-elf/4.1.2/libgcc.a(_muldi3.o)
 .debug_abbrev  0x00008eb9       0x61 /home/lordrafa/altera/12.1sp1/nios2eds/bin/gnu/H-i686-pc-linux-gnu/bin/../lib/gcc/nios2-elf/4.1.2/libgcc.a(_clz.o)
 .debug_abbrev  0x00008f1a       0xb9 /home/lordrafa/altera/12.1sp1/nios2eds/bin/gnu/H-i686-pc-linux-gnu/bin/../lib/gcc/nios2-elf/4.1.2/libgcc.a(_clzsi2.o)
 .debug_abbrev  0x00008fd3      0x1b1 /home/lordrafa/altera/12.1sp1/nios2eds/bin/gnu/H-i686-pc-linux-gnu/bin/../lib/gcc/nios2-elf/4.1.2/libgcc.a(_pack_df.o)
 .debug_abbrev  0x00009184      0x149 /home/lordrafa/altera/12.1sp1/nios2eds/bin/gnu/H-i686-pc-linux-gnu/bin/../lib/gcc/nios2-elf/4.1.2/libgcc.a(_unpack_df.o)
 .debug_abbrev  0x000092cd      0x132 /home/lordrafa/altera/12.1sp1/nios2eds/bin/gnu/H-i686-pc-linux-gnu/bin/../lib/gcc/nios2-elf/4.1.2/libgcc.a(_fpcmp_parts_df.o)
 .debug_abbrev  0x000093ff       0xfb ../RawaPro_Linux_Cache_bsp//libhal_bsp.a(alt_close.o)
 .debug_abbrev  0x000094fa       0xc7 ../RawaPro_Linux_Cache_bsp//libhal_bsp.a(alt_dev.o)
 .debug_abbrev  0x000095c1       0x5e ../RawaPro_Linux_Cache_bsp//libhal_bsp.a(alt_errno.o)
 .debug_abbrev  0x0000961f       0x72 ../RawaPro_Linux_Cache_bsp//libhal_bsp.a(alt_exit.o)
 .debug_abbrev  0x00009691       0xfb ../RawaPro_Linux_Cache_bsp//libhal_bsp.a(alt_fstat.o)
 .debug_abbrev  0x0000978c       0x36 ../RawaPro_Linux_Cache_bsp//libhal_bsp.a(alt_getpid.o)
 .debug_abbrev  0x000097c2      0x134 ../RawaPro_Linux_Cache_bsp//libhal_bsp.a(alt_iic.o)
 .debug_abbrev  0x000098f6      0x14e ../RawaPro_Linux_Cache_bsp//libhal_bsp.a(alt_iic_isr_register.o)
 .debug_abbrev  0x00009a44       0x12 ../RawaPro_Linux_Cache_bsp//libhal_bsp.a(alt_irq_entry.o)
 .debug_abbrev  0x00009a56      0x10c ../RawaPro_Linux_Cache_bsp//libhal_bsp.a(alt_irq_handler.o)
 .debug_abbrev  0x00009b62       0x44 ../RawaPro_Linux_Cache_bsp//libhal_bsp.a(alt_irq_vars.o)
 .debug_abbrev  0x00009ba6       0xfb ../RawaPro_Linux_Cache_bsp//libhal_bsp.a(alt_isatty.o)
 .debug_abbrev  0x00009ca1       0x99 ../RawaPro_Linux_Cache_bsp//libhal_bsp.a(alt_kill.o)
 .debug_abbrev  0x00009d3a       0x88 ../RawaPro_Linux_Cache_bsp//libhal_bsp.a(alt_load.o)
 .debug_abbrev  0x00009dc2       0xfb ../RawaPro_Linux_Cache_bsp//libhal_bsp.a(alt_lseek.o)
 .debug_abbrev  0x00009ebd       0xb7 ../RawaPro_Linux_Cache_bsp//libhal_bsp.a(alt_main.o)
 .debug_abbrev  0x00009f74      0x181 ../RawaPro_Linux_Cache_bsp//libhal_bsp.a(alt_malloc_lock.o)
 .debug_abbrev  0x0000a0f5       0xfb ../RawaPro_Linux_Cache_bsp//libhal_bsp.a(alt_read.o)
 .debug_abbrev  0x0000a1f0       0xc1 ../RawaPro_Linux_Cache_bsp//libhal_bsp.a(alt_release_fd.o)
 .debug_abbrev  0x0000a2b1       0x74 ../RawaPro_Linux_Cache_bsp//libhal_bsp.a(alt_remap_uncached.o)
 .debug_abbrev  0x0000a325      0x115 ../RawaPro_Linux_Cache_bsp//libhal_bsp.a(alt_sbrk.o)
 .debug_abbrev  0x0000a43a      0x150 ../RawaPro_Linux_Cache_bsp//libhal_bsp.a(alt_tick.o)
 .debug_abbrev  0x0000a58a       0x83 ../RawaPro_Linux_Cache_bsp//libhal_bsp.a(alt_uncached_malloc.o)
 .debug_abbrev  0x0000a60d       0x5d ../RawaPro_Linux_Cache_bsp//libhal_bsp.a(alt_usleep.o)
 .debug_abbrev  0x0000a66a      0x100 ../RawaPro_Linux_Cache_bsp//libhal_bsp.a(alt_write.o)
 .debug_abbrev  0x0000a76a      0x142 ../RawaPro_Linux_Cache_bsp//libhal_bsp.a(alt_sys_init.o)
 .debug_abbrev  0x0000a8ac       0xf7 ../RawaPro_Linux_Cache_bsp//libhal_bsp.a(altera_avalon_jtag_uart_fd.o)
 .debug_abbrev  0x0000a9a3      0x17c ../RawaPro_Linux_Cache_bsp//libhal_bsp.a(altera_avalon_jtag_uart_init.o)
 .debug_abbrev  0x0000ab1f       0xf0 ../RawaPro_Linux_Cache_bsp//libhal_bsp.a(altera_avalon_jtag_uart_ioctl.o)
 .debug_abbrev  0x0000ac0f      0x191 ../RawaPro_Linux_Cache_bsp//libhal_bsp.a(altera_avalon_jtag_uart_read.o)
 .debug_abbrev  0x0000ada0      0x18d ../RawaPro_Linux_Cache_bsp//libhal_bsp.a(altera_avalon_jtag_uart_write.o)
 .debug_abbrev  0x0000af2d       0x81 ../RawaPro_Linux_Cache_bsp//libhal_bsp.a(altera_avalon_performance_counter.o)
 .debug_abbrev  0x0000afae      0x137 ../RawaPro_Linux_Cache_bsp//libhal_bsp.a(altera_avalon_timer_sc.o)
 .debug_abbrev  0x0000b0e5      0x172 ../RawaPro_Linux_Cache_bsp//libhal_bsp.a(alt_alarm_start.o)
 .debug_abbrev  0x0000b257       0x6c ../RawaPro_Linux_Cache_bsp//libhal_bsp.a(alt_busy_sleep.o)
 .debug_abbrev  0x0000b2c3       0x7a ../RawaPro_Linux_Cache_bsp//libhal_bsp.a(alt_dcache_flush.o)
 .debug_abbrev  0x0000b33d       0x57 ../RawaPro_Linux_Cache_bsp//libhal_bsp.a(alt_dcache_flush_all.o)
 .debug_abbrev  0x0000b394       0xf6 ../RawaPro_Linux_Cache_bsp//libhal_bsp.a(alt_dev_llist_insert.o)
 .debug_abbrev  0x0000b48a       0x76 ../RawaPro_Linux_Cache_bsp//libhal_bsp.a(alt_do_ctors.o)
 .debug_abbrev  0x0000b500       0x76 ../RawaPro_Linux_Cache_bsp//libhal_bsp.a(alt_do_dtors.o)
 .debug_abbrev  0x0000b576       0x12 ../RawaPro_Linux_Cache_bsp//libhal_bsp.a(alt_exception_entry.o)
 .debug_abbrev  0x0000b588       0x3f ../RawaPro_Linux_Cache_bsp//libhal_bsp.a(alt_icache_flush_all.o)
 .debug_abbrev  0x0000b5c7       0xf0 ../RawaPro_Linux_Cache_bsp//libhal_bsp.a(alt_io_redirect.o)
 .debug_abbrev  0x0000b6b7      0x112 ../RawaPro_Linux_Cache_bsp//libhal_bsp.a(alt_open.o)
 .debug_abbrev  0x0000b7c9       0x3f ../RawaPro_Linux_Cache_bsp//libhal_bsp.a(altera_nios2_qsys_irq.o)
 .debug_abbrev  0x0000b808       0xcf ../RawaPro_Linux_Cache_bsp//libhal_bsp.a(alt_find_dev.o)
 .debug_abbrev  0x0000b8d7       0xcf ../RawaPro_Linux_Cache_bsp//libhal_bsp.a(alt_find_file.o)
 .debug_abbrev  0x0000b9a6       0xfb ../RawaPro_Linux_Cache_bsp//libhal_bsp.a(alt_get_fd.o)
 .debug_abbrev  0x0000baa1       0x7a ../RawaPro_Linux_Cache_bsp//libhal_bsp.a(alt_icache_flush.o)
 .debug_abbrev  0x0000bb1b       0xb7 /home/lordrafa/altera/12.1sp1/nios2eds/bin/gnu/H-i686-pc-linux-gnu/bin/../lib/gcc/nios2-elf/4.1.2/../../../../nios2-elf/lib/libc.a(lib_a-atexit.o)
 .debug_abbrev  0x0000bbd2      0x16e /home/lordrafa/altera/12.1sp1/nios2eds/bin/gnu/H-i686-pc-linux-gnu/bin/../lib/gcc/nios2-elf/4.1.2/../../../../nios2-elf/lib/libc.a(lib_a-exit.o)
 .debug_abbrev  0x0000bd40       0x7c /home/lordrafa/altera/12.1sp1/nios2eds/bin/gnu/H-i686-pc-linux-gnu/bin/../lib/gcc/nios2-elf/4.1.2/../../../../nios2-elf/lib/libc.a(lib_a-memcmp.o)
 .debug_abbrev  0x0000bdbc      0x1ae /home/lordrafa/altera/12.1sp1/nios2eds/bin/gnu/H-i686-pc-linux-gnu/bin/../lib/gcc/nios2-elf/4.1.2/../../../../nios2-elf/lib/libc.a(lib_a-__atexit.o)
 .debug_abbrev  0x0000bf6a      0x1de /home/lordrafa/altera/12.1sp1/nios2eds/bin/gnu/H-i686-pc-linux-gnu/bin/../lib/gcc/nios2-elf/4.1.2/../../../../nios2-elf/lib/libc.a(lib_a-__call_atexit.o)

.debug_line     0x00000000    0x1e000
 *(.debug_line)
 .debug_line    0x00000000       0x72 ../RawaPro_Linux_Cache_bsp//obj/HAL/src/crt0.o
 .debug_line    0x00000072      0x5ef obj/default/alt_tpo_lcd/alt_tpo_lcd.o
 .debug_line    0x00000661      0x40b obj/default/alt_video_display/alt_video_display.o
 .debug_line    0x00000a6c      0x5af obj/default/audio_tvdecoder/i2c.o
 .debug_line    0x0000101b      0x27a obj/default/audio_tvdecoder/tvdecoder_ctrl.o
 .debug_line    0x00001295       0x5a obj/default/fonts/tahomabold_20.o
 .debug_line    0x000012ef       0x5a obj/default/fonts/tahomabold_32.o
 .debug_line    0x00001349     0x1167 obj/default/graphics_lib/simple_graphics.o
 .debug_line    0x000024b0      0x6f3 obj/default/graphics_lib/simple_text.o
 .debug_line    0x00002ba3      0x2dd obj/default/keyhandler/keyhandler.o
 .debug_line    0x00002e80      0x50e obj/default/main.o
 .debug_line    0x0000338e      0x2df obj/default/sfs/sfs.o
 .debug_line    0x0000366d      0x648 obj/default/framereader/vip_wrapper_for_c_func.o
 .debug_line    0x00003cb5      0xd58 /home/lordrafa/altera/12.1sp1/nios2eds/bin/gnu/H-i686-pc-linux-gnu/bin/../lib/gcc/nios2-elf/4.1.2/../../../../nios2-elf/lib/libstdc++.a(eh_personality.o)
 .debug_line    0x00004a0d      0x409 /home/lordrafa/altera/12.1sp1/nios2eds/bin/gnu/H-i686-pc-linux-gnu/bin/../lib/gcc/nios2-elf/4.1.2/../../../../nios2-elf/lib/libstdc++.a(eh_terminate.o)
 .debug_line    0x00004e16      0x279 /home/lordrafa/altera/12.1sp1/nios2eds/bin/gnu/H-i686-pc-linux-gnu/bin/../lib/gcc/nios2-elf/4.1.2/../../../../nios2-elf/lib/libstdc++.a(eh_term_handler.o)
 .debug_line    0x0000508f      0x519 /home/lordrafa/altera/12.1sp1/nios2eds/bin/gnu/H-i686-pc-linux-gnu/bin/../lib/gcc/nios2-elf/4.1.2/../../../../nios2-elf/lib/libstdc++.a(eh_catch.o)
 .debug_line    0x000055a8      0x340 /home/lordrafa/altera/12.1sp1/nios2eds/bin/gnu/H-i686-pc-linux-gnu/bin/../lib/gcc/nios2-elf/4.1.2/../../../../nios2-elf/lib/libstdc++.a(del_op.o)
 .debug_line    0x000058e8      0x408 /home/lordrafa/altera/12.1sp1/nios2eds/bin/gnu/H-i686-pc-linux-gnu/bin/../lib/gcc/nios2-elf/4.1.2/../../../../nios2-elf/lib/libstdc++.a(eh_throw.o)
 .debug_line    0x00005cf0      0x4bd /home/lordrafa/altera/12.1sp1/nios2eds/bin/gnu/H-i686-pc-linux-gnu/bin/../lib/gcc/nios2-elf/4.1.2/../../../../nios2-elf/lib/libstdc++.a(eh_alloc.o)
 .debug_line    0x000061ad      0x386 /home/lordrafa/altera/12.1sp1/nios2eds/bin/gnu/H-i686-pc-linux-gnu/bin/../lib/gcc/nios2-elf/4.1.2/../../../../nios2-elf/lib/libstdc++.a(new_op.o)
 .debug_line    0x00006533      0x2d2 /home/lordrafa/altera/12.1sp1/nios2eds/bin/gnu/H-i686-pc-linux-gnu/bin/../lib/gcc/nios2-elf/4.1.2/../../../../nios2-elf/lib/libstdc++.a(eh_exception.o)
 .debug_line    0x00006805      0x382 /home/lordrafa/altera/12.1sp1/nios2eds/bin/gnu/H-i686-pc-linux-gnu/bin/../lib/gcc/nios2-elf/4.1.2/../../../../nios2-elf/lib/libstdc++.a(eh_call.o)
 .debug_line    0x00006b87      0x288 /home/lordrafa/altera/12.1sp1/nios2eds/bin/gnu/H-i686-pc-linux-gnu/bin/../lib/gcc/nios2-elf/4.1.2/../../../../nios2-elf/lib/libstdc++.a(new_handler.o)
 .debug_line    0x00006e0f      0x391 /home/lordrafa/altera/12.1sp1/nios2eds/bin/gnu/H-i686-pc-linux-gnu/bin/../lib/gcc/nios2-elf/4.1.2/../../../../nios2-elf/lib/libstdc++.a(eh_globals.o)
 .debug_line    0x000071a0      0x434 /home/lordrafa/altera/12.1sp1/nios2eds/bin/gnu/H-i686-pc-linux-gnu/bin/../lib/gcc/nios2-elf/4.1.2/../../../../nios2-elf/lib/libstdc++.a(class_type_info.o)
 .debug_line    0x000075d4      0x25b /home/lordrafa/altera/12.1sp1/nios2eds/bin/gnu/H-i686-pc-linux-gnu/bin/../lib/gcc/nios2-elf/4.1.2/../../../../nios2-elf/lib/libstdc++.a(eh_unex_handler.o)
 .debug_line    0x0000782f      0x3c4 /home/lordrafa/altera/12.1sp1/nios2eds/bin/gnu/H-i686-pc-linux-gnu/bin/../lib/gcc/nios2-elf/4.1.2/../../../../nios2-elf/lib/libstdc++.a(si_class_type_info.o)
 .debug_line    0x00007bf3      0x2fe /home/lordrafa/altera/12.1sp1/nios2eds/bin/gnu/H-i686-pc-linux-gnu/bin/../lib/gcc/nios2-elf/4.1.2/../../../../nios2-elf/lib/libstdc++.a(tinfo.o)
 .debug_line    0x00007ef1      0x2c6 /home/lordrafa/altera/12.1sp1/nios2eds/bin/gnu/H-i686-pc-linux-gnu/bin/../lib/gcc/nios2-elf/4.1.2/libgcc.a(lib2-divmod.o)
 .debug_line    0x000081b7      0x741 /home/lordrafa/altera/12.1sp1/nios2eds/bin/gnu/H-i686-pc-linux-gnu/bin/../lib/gcc/nios2-elf/4.1.2/libgcc.a(unwind-sjlj.o)
 .debug_line    0x000088f8      0x231 /home/lordrafa/altera/12.1sp1/nios2eds/bin/gnu/H-i686-pc-linux-gnu/bin/../lib/gcc/nios2-elf/4.1.2/../../../../nios2-elf/lib/libc.a(lib_a-abort.o)
 .debug_line    0x00008b29      0x24b /home/lordrafa/altera/12.1sp1/nios2eds/bin/gnu/H-i686-pc-linux-gnu/bin/../lib/gcc/nios2-elf/4.1.2/../../../../nios2-elf/lib/libc.a(lib_a-malloc.o)
 .debug_line    0x00008d74      0x80a /home/lordrafa/altera/12.1sp1/nios2eds/bin/gnu/H-i686-pc-linux-gnu/bin/../lib/gcc/nios2-elf/4.1.2/../../../../nios2-elf/lib/libc.a(lib_a-mallocr.o)
 .debug_line    0x0000957e      0x1ac /home/lordrafa/altera/12.1sp1/nios2eds/bin/gnu/H-i686-pc-linux-gnu/bin/../lib/gcc/nios2-elf/4.1.2/../../../../nios2-elf/lib/libc.a(lib_a-memcpy.o)
 .debug_line    0x0000972a      0x301 /home/lordrafa/altera/12.1sp1/nios2eds/bin/gnu/H-i686-pc-linux-gnu/bin/../lib/gcc/nios2-elf/4.1.2/../../../../nios2-elf/lib/libc.a(lib_a-memset.o)
 .debug_line    0x00009a2b      0x29b /home/lordrafa/altera/12.1sp1/nios2eds/bin/gnu/H-i686-pc-linux-gnu/bin/../lib/gcc/nios2-elf/4.1.2/../../../../nios2-elf/lib/libc.a(lib_a-printf.o)
 .debug_line    0x00009cc6      0x2f7 /home/lordrafa/altera/12.1sp1/nios2eds/bin/gnu/H-i686-pc-linux-gnu/bin/../lib/gcc/nios2-elf/4.1.2/../../../../nios2-elf/lib/libc.a(lib_a-puts.o)
 .debug_line    0x00009fbd      0x299 /home/lordrafa/altera/12.1sp1/nios2eds/bin/gnu/H-i686-pc-linux-gnu/bin/../lib/gcc/nios2-elf/4.1.2/../../../../nios2-elf/lib/libc.a(lib_a-sbrkr.o)
 .debug_line    0x0000a256      0x4de /home/lordrafa/altera/12.1sp1/nios2eds/bin/gnu/H-i686-pc-linux-gnu/bin/../lib/gcc/nios2-elf/4.1.2/../../../../nios2-elf/lib/libc.a(lib_a-signal.o)
 .debug_line    0x0000a734      0x278 /home/lordrafa/altera/12.1sp1/nios2eds/bin/gnu/H-i686-pc-linux-gnu/bin/../lib/gcc/nios2-elf/4.1.2/../../../../nios2-elf/lib/libc.a(lib_a-signalr.o)
 .debug_line    0x0000a9ac      0x3a7 /home/lordrafa/altera/12.1sp1/nios2eds/bin/gnu/H-i686-pc-linux-gnu/bin/../lib/gcc/nios2-elf/4.1.2/../../../../nios2-elf/lib/libc.a(lib_a-snprintf.o)
 .debug_line    0x0000ad53      0x287 /home/lordrafa/altera/12.1sp1/nios2eds/bin/gnu/H-i686-pc-linux-gnu/bin/../lib/gcc/nios2-elf/4.1.2/../../../../nios2-elf/lib/libc.a(lib_a-strcpy.o)
 .debug_line    0x0000afda      0x26d /home/lordrafa/altera/12.1sp1/nios2eds/bin/gnu/H-i686-pc-linux-gnu/bin/../lib/gcc/nios2-elf/4.1.2/../../../../nios2-elf/lib/libc.a(lib_a-strlen.o)
 .debug_line    0x0000b247     0x110c /home/lordrafa/altera/12.1sp1/nios2eds/bin/gnu/H-i686-pc-linux-gnu/bin/../lib/gcc/nios2-elf/4.1.2/../../../../nios2-elf/lib/libc.a(lib_a-vfprintf.o)
 .debug_line    0x0000c353      0x2f0 /home/lordrafa/altera/12.1sp1/nios2eds/bin/gnu/H-i686-pc-linux-gnu/bin/../lib/gcc/nios2-elf/4.1.2/../../../../nios2-elf/lib/libc.a(lib_a-wsetup.o)
 .debug_line    0x0000c643     0x12c6 /home/lordrafa/altera/12.1sp1/nios2eds/bin/gnu/H-i686-pc-linux-gnu/bin/../lib/gcc/nios2-elf/4.1.2/../../../../nios2-elf/lib/libc.a(lib_a-dtoa.o)
 .debug_line    0x0000d909      0x40d /home/lordrafa/altera/12.1sp1/nios2eds/bin/gnu/H-i686-pc-linux-gnu/bin/../lib/gcc/nios2-elf/4.1.2/../../../../nios2-elf/lib/libc.a(lib_a-fflush.o)
 .debug_line    0x0000dd16      0x601 /home/lordrafa/altera/12.1sp1/nios2eds/bin/gnu/H-i686-pc-linux-gnu/bin/../lib/gcc/nios2-elf/4.1.2/../../../../nios2-elf/lib/libc.a(lib_a-findfp.o)
 .debug_line    0x0000e317      0x5eb /home/lordrafa/altera/12.1sp1/nios2eds/bin/gnu/H-i686-pc-linux-gnu/bin/../lib/gcc/nios2-elf/4.1.2/../../../../nios2-elf/lib/libc.a(lib_a-freer.o)
 .debug_line    0x0000e902      0x641 /home/lordrafa/altera/12.1sp1/nios2eds/bin/gnu/H-i686-pc-linux-gnu/bin/../lib/gcc/nios2-elf/4.1.2/../../../../nios2-elf/lib/libc.a(lib_a-fvwrite.o)
 .debug_line    0x0000ef43      0x34a /home/lordrafa/altera/12.1sp1/nios2eds/bin/gnu/H-i686-pc-linux-gnu/bin/../lib/gcc/nios2-elf/4.1.2/../../../../nios2-elf/lib/libc.a(lib_a-fwalk.o)
 .debug_line    0x0000f28d      0x22d /home/lordrafa/altera/12.1sp1/nios2eds/bin/gnu/H-i686-pc-linux-gnu/bin/../lib/gcc/nios2-elf/4.1.2/../../../../nios2-elf/lib/libc.a(lib_a-impure.o)
 .debug_line    0x0000f4ba      0x1df /home/lordrafa/altera/12.1sp1/nios2eds/bin/gnu/H-i686-pc-linux-gnu/bin/../lib/gcc/nios2-elf/4.1.2/../../../../nios2-elf/lib/libc.a(lib_a-int_errno.o)
 .debug_line    0x0000f699      0x2c8 /home/lordrafa/altera/12.1sp1/nios2eds/bin/gnu/H-i686-pc-linux-gnu/bin/../lib/gcc/nios2-elf/4.1.2/../../../../nios2-elf/lib/libc.a(lib_a-locale.o)
 .debug_line    0x0000f961      0x3c3 /home/lordrafa/altera/12.1sp1/nios2eds/bin/gnu/H-i686-pc-linux-gnu/bin/../lib/gcc/nios2-elf/4.1.2/../../../../nios2-elf/lib/libc.a(lib_a-makebuf.o)
 .debug_line    0x0000fd24      0x303 /home/lordrafa/altera/12.1sp1/nios2eds/bin/gnu/H-i686-pc-linux-gnu/bin/../lib/gcc/nios2-elf/4.1.2/../../../../nios2-elf/lib/libc.a(lib_a-memchr.o)
 .debug_line    0x00010027      0x30a /home/lordrafa/altera/12.1sp1/nios2eds/bin/gnu/H-i686-pc-linux-gnu/bin/../lib/gcc/nios2-elf/4.1.2/../../../../nios2-elf/lib/libc.a(lib_a-memmove.o)
 .debug_line    0x00010331     0x1243 /home/lordrafa/altera/12.1sp1/nios2eds/bin/gnu/H-i686-pc-linux-gnu/bin/../lib/gcc/nios2-elf/4.1.2/../../../../nios2-elf/lib/libc.a(lib_a-mprec.o)
 .debug_line    0x00011574      0x58a /home/lordrafa/altera/12.1sp1/nios2eds/bin/gnu/H-i686-pc-linux-gnu/bin/../lib/gcc/nios2-elf/4.1.2/../../../../nios2-elf/lib/libc.a(lib_a-reallocr.o)
 .debug_line    0x00011afe      0x222 /home/lordrafa/altera/12.1sp1/nios2eds/bin/gnu/H-i686-pc-linux-gnu/bin/../lib/gcc/nios2-elf/4.1.2/../../../../nios2-elf/lib/libc.a(lib_a-s_isinfd.o)
 .debug_line    0x00011d20      0x21a /home/lordrafa/altera/12.1sp1/nios2eds/bin/gnu/H-i686-pc-linux-gnu/bin/../lib/gcc/nios2-elf/4.1.2/../../../../nios2-elf/lib/libc.a(lib_a-s_isnand.o)
 .debug_line    0x00011f3a      0x38c /home/lordrafa/altera/12.1sp1/nios2eds/bin/gnu/H-i686-pc-linux-gnu/bin/../lib/gcc/nios2-elf/4.1.2/../../../../nios2-elf/lib/libc.a(lib_a-stdio.o)
 .debug_line    0x000122c6      0x2d5 /home/lordrafa/altera/12.1sp1/nios2eds/bin/gnu/H-i686-pc-linux-gnu/bin/../lib/gcc/nios2-elf/4.1.2/../../../../nios2-elf/lib/libc.a(lib_a-strcmp.o)
 .debug_line    0x0001259b      0x29a /home/lordrafa/altera/12.1sp1/nios2eds/bin/gnu/H-i686-pc-linux-gnu/bin/../lib/gcc/nios2-elf/4.1.2/../../../../nios2-elf/lib/libc.a(lib_a-writer.o)
 .debug_line    0x00012835      0x25c /home/lordrafa/altera/12.1sp1/nios2eds/bin/gnu/H-i686-pc-linux-gnu/bin/../lib/gcc/nios2-elf/4.1.2/../../../../nios2-elf/lib/libc.a(lib_a-callocr.o)
 .debug_line    0x00012a91      0x29a /home/lordrafa/altera/12.1sp1/nios2eds/bin/gnu/H-i686-pc-linux-gnu/bin/../lib/gcc/nios2-elf/4.1.2/../../../../nios2-elf/lib/libc.a(lib_a-closer.o)
 .debug_line    0x00012d2b      0x2e8 /home/lordrafa/altera/12.1sp1/nios2eds/bin/gnu/H-i686-pc-linux-gnu/bin/../lib/gcc/nios2-elf/4.1.2/../../../../nios2-elf/lib/libc.a(lib_a-fclose.o)
 .debug_line    0x00013013      0x264 /home/lordrafa/altera/12.1sp1/nios2eds/bin/gnu/H-i686-pc-linux-gnu/bin/../lib/gcc/nios2-elf/4.1.2/../../../../nios2-elf/lib/libc.a(lib_a-fstatr.o)
 .debug_line    0x00013277      0x29b /home/lordrafa/altera/12.1sp1/nios2eds/bin/gnu/H-i686-pc-linux-gnu/bin/../lib/gcc/nios2-elf/4.1.2/../../../../nios2-elf/lib/libc.a(lib_a-isattyr.o)
 .debug_line    0x00013512      0x29a /home/lordrafa/altera/12.1sp1/nios2eds/bin/gnu/H-i686-pc-linux-gnu/bin/../lib/gcc/nios2-elf/4.1.2/../../../../nios2-elf/lib/libc.a(lib_a-lseekr.o)
 .debug_line    0x000137ac      0x299 /home/lordrafa/altera/12.1sp1/nios2eds/bin/gnu/H-i686-pc-linux-gnu/bin/../lib/gcc/nios2-elf/4.1.2/../../../../nios2-elf/lib/libc.a(lib_a-readr.o)
 .debug_line    0x00013a45      0x369 /home/lordrafa/altera/12.1sp1/nios2eds/bin/gnu/H-i686-pc-linux-gnu/bin/../lib/gcc/nios2-elf/4.1.2/libgcc.a(_udivdi3.o)
 .debug_line    0x00013dae      0x3f4 /home/lordrafa/altera/12.1sp1/nios2eds/bin/gnu/H-i686-pc-linux-gnu/bin/../lib/gcc/nios2-elf/4.1.2/libgcc.a(_umoddi3.o)
 .debug_line    0x000141a2      0x430 /home/lordrafa/altera/12.1sp1/nios2eds/bin/gnu/H-i686-pc-linux-gnu/bin/../lib/gcc/nios2-elf/4.1.2/libgcc.a(_addsub_df.o)
 .debug_line    0x000145d2      0x3e5 /home/lordrafa/altera/12.1sp1/nios2eds/bin/gnu/H-i686-pc-linux-gnu/bin/../lib/gcc/nios2-elf/4.1.2/libgcc.a(_mul_df.o)
 .debug_line    0x000149b7      0x301 /home/lordrafa/altera/12.1sp1/nios2eds/bin/gnu/H-i686-pc-linux-gnu/bin/../lib/gcc/nios2-elf/4.1.2/libgcc.a(_div_df.o)
 .debug_line    0x00014cb8      0x129 /home/lordrafa/altera/12.1sp1/nios2eds/bin/gnu/H-i686-pc-linux-gnu/bin/../lib/gcc/nios2-elf/4.1.2/libgcc.a(_eq_df.o)
 .debug_line    0x00014de1      0x129 /home/lordrafa/altera/12.1sp1/nios2eds/bin/gnu/H-i686-pc-linux-gnu/bin/../lib/gcc/nios2-elf/4.1.2/libgcc.a(_ne_df.o)
 .debug_line    0x00014f0a      0x129 /home/lordrafa/altera/12.1sp1/nios2eds/bin/gnu/H-i686-pc-linux-gnu/bin/../lib/gcc/nios2-elf/4.1.2/libgcc.a(_gt_df.o)
 .debug_line    0x00015033      0x129 /home/lordrafa/altera/12.1sp1/nios2eds/bin/gnu/H-i686-pc-linux-gnu/bin/../lib/gcc/nios2-elf/4.1.2/libgcc.a(_ge_df.o)
 .debug_line    0x0001515c      0x129 /home/lordrafa/altera/12.1sp1/nios2eds/bin/gnu/H-i686-pc-linux-gnu/bin/../lib/gcc/nios2-elf/4.1.2/libgcc.a(_lt_df.o)
 .debug_line    0x00015285      0x175 /home/lordrafa/altera/12.1sp1/nios2eds/bin/gnu/H-i686-pc-linux-gnu/bin/../lib/gcc/nios2-elf/4.1.2/libgcc.a(_si_to_df.o)
 .debug_line    0x000153fa      0x149 /home/lordrafa/altera/12.1sp1/nios2eds/bin/gnu/H-i686-pc-linux-gnu/bin/../lib/gcc/nios2-elf/4.1.2/libgcc.a(_df_to_si.o)
 .debug_line    0x00015543       0x94 /home/lordrafa/altera/12.1sp1/nios2eds/bin/gnu/H-i686-pc-linux-gnu/bin/../lib/gcc/nios2-elf/4.1.2/libgcc.a(_thenan_df.o)
 .debug_line    0x000155d7      0x189 /home/lordrafa/altera/12.1sp1/nios2eds/bin/gnu/H-i686-pc-linux-gnu/bin/../lib/gcc/nios2-elf/4.1.2/libgcc.a(_usi_to_df.o)
 .debug_line    0x00015760      0x196 /home/lordrafa/altera/12.1sp1/nios2eds/bin/gnu/H-i686-pc-linux-gnu/bin/../lib/gcc/nios2-elf/4.1.2/libgcc.a(_muldi3.o)
 .debug_line    0x000158f6      0x121 /home/lordrafa/altera/12.1sp1/nios2eds/bin/gnu/H-i686-pc-linux-gnu/bin/../lib/gcc/nios2-elf/4.1.2/libgcc.a(_clz.o)
 .debug_line    0x00015a17      0x17c /home/lordrafa/altera/12.1sp1/nios2eds/bin/gnu/H-i686-pc-linux-gnu/bin/../lib/gcc/nios2-elf/4.1.2/libgcc.a(_clzsi2.o)
 .debug_line    0x00015b93      0x222 /home/lordrafa/altera/12.1sp1/nios2eds/bin/gnu/H-i686-pc-linux-gnu/bin/../lib/gcc/nios2-elf/4.1.2/libgcc.a(_pack_df.o)
 .debug_line    0x00015db5      0x1e4 /home/lordrafa/altera/12.1sp1/nios2eds/bin/gnu/H-i686-pc-linux-gnu/bin/../lib/gcc/nios2-elf/4.1.2/libgcc.a(_unpack_df.o)
 .debug_line    0x00015f99      0x187 /home/lordrafa/altera/12.1sp1/nios2eds/bin/gnu/H-i686-pc-linux-gnu/bin/../lib/gcc/nios2-elf/4.1.2/libgcc.a(_fpcmp_parts_df.o)
 .debug_line    0x00016120      0x2bb ../RawaPro_Linux_Cache_bsp//libhal_bsp.a(alt_close.o)
 .debug_line    0x000163db      0x276 ../RawaPro_Linux_Cache_bsp//libhal_bsp.a(alt_dev.o)
 .debug_line    0x00016651      0x1cc ../RawaPro_Linux_Cache_bsp//libhal_bsp.a(alt_errno.o)
 .debug_line    0x0001681d      0x228 ../RawaPro_Linux_Cache_bsp//libhal_bsp.a(alt_exit.o)
 .debug_line    0x00016a45      0x2c3 ../RawaPro_Linux_Cache_bsp//libhal_bsp.a(alt_fstat.o)
 .debug_line    0x00016d08       0x71 ../RawaPro_Linux_Cache_bsp//libhal_bsp.a(alt_getpid.o)
 .debug_line    0x00016d79      0x2ea ../RawaPro_Linux_Cache_bsp//libhal_bsp.a(alt_iic.o)
 .debug_line    0x00017063      0x26b ../RawaPro_Linux_Cache_bsp//libhal_bsp.a(alt_iic_isr_register.o)
 .debug_line    0x000172ce       0x6b ../RawaPro_Linux_Cache_bsp//libhal_bsp.a(alt_irq_entry.o)
 .debug_line    0x00017339      0x26a ../RawaPro_Linux_Cache_bsp//libhal_bsp.a(alt_irq_handler.o)
 .debug_line    0x000175a3       0x72 ../RawaPro_Linux_Cache_bsp//libhal_bsp.a(alt_irq_vars.o)
 .debug_line    0x00017615      0x2c4 ../RawaPro_Linux_Cache_bsp//libhal_bsp.a(alt_isatty.o)
 .debug_line    0x000178d9      0x28f ../RawaPro_Linux_Cache_bsp//libhal_bsp.a(alt_kill.o)
 .debug_line    0x00017b68      0x239 ../RawaPro_Linux_Cache_bsp//libhal_bsp.a(alt_load.o)
 .debug_line    0x00017da1      0x2c3 ../RawaPro_Linux_Cache_bsp//libhal_bsp.a(alt_lseek.o)
 .debug_line    0x00018064      0x2ec ../RawaPro_Linux_Cache_bsp//libhal_bsp.a(alt_main.o)
 .debug_line    0x00018350      0x242 ../RawaPro_Linux_Cache_bsp//libhal_bsp.a(alt_malloc_lock.o)
 .debug_line    0x00018592      0x2ea ../RawaPro_Linux_Cache_bsp//libhal_bsp.a(alt_read.o)
 .debug_line    0x0001887c       0xed ../RawaPro_Linux_Cache_bsp//libhal_bsp.a(alt_release_fd.o)
 .debug_line    0x00018969      0x1e5 ../RawaPro_Linux_Cache_bsp//libhal_bsp.a(alt_remap_uncached.o)
 .debug_line    0x00018b4e      0x283 ../RawaPro_Linux_Cache_bsp//libhal_bsp.a(alt_sbrk.o)
 .debug_line    0x00018dd1      0x2fe ../RawaPro_Linux_Cache_bsp//libhal_bsp.a(alt_tick.o)
 .debug_line    0x000190cf      0x1ee ../RawaPro_Linux_Cache_bsp//libhal_bsp.a(alt_uncached_malloc.o)
 .debug_line    0x000192bd      0x235 ../RawaPro_Linux_Cache_bsp//libhal_bsp.a(alt_usleep.o)
 .debug_line    0x000194f2      0x2eb ../RawaPro_Linux_Cache_bsp//libhal_bsp.a(alt_write.o)
 .debug_line    0x000197dd      0x2f1 ../RawaPro_Linux_Cache_bsp//libhal_bsp.a(alt_sys_init.o)
 .debug_line    0x00019ace      0x228 ../RawaPro_Linux_Cache_bsp//libhal_bsp.a(altera_avalon_jtag_uart_fd.o)
 .debug_line    0x00019cf6      0x4cd ../RawaPro_Linux_Cache_bsp//libhal_bsp.a(altera_avalon_jtag_uart_init.o)
 .debug_line    0x0001a1c3      0x339 ../RawaPro_Linux_Cache_bsp//libhal_bsp.a(altera_avalon_jtag_uart_ioctl.o)
 .debug_line    0x0001a4fc      0x419 ../RawaPro_Linux_Cache_bsp//libhal_bsp.a(altera_avalon_jtag_uart_read.o)
 .debug_line    0x0001a915      0x427 ../RawaPro_Linux_Cache_bsp//libhal_bsp.a(altera_avalon_jtag_uart_write.o)
 .debug_line    0x0001ad3c      0x12d ../RawaPro_Linux_Cache_bsp//libhal_bsp.a(altera_avalon_performance_counter.o)
 .debug_line    0x0001ae69      0x2d5 ../RawaPro_Linux_Cache_bsp//libhal_bsp.a(altera_avalon_timer_sc.o)
 .debug_line    0x0001b13e      0x2fe ../RawaPro_Linux_Cache_bsp//libhal_bsp.a(alt_alarm_start.o)
 .debug_line    0x0001b43c      0x28f ../RawaPro_Linux_Cache_bsp//libhal_bsp.a(alt_busy_sleep.o)
 .debug_line    0x0001b6cb      0x203 ../RawaPro_Linux_Cache_bsp//libhal_bsp.a(alt_dcache_flush.o)
 .debug_line    0x0001b8ce      0x1ef ../RawaPro_Linux_Cache_bsp//libhal_bsp.a(alt_dcache_flush_all.o)
 .debug_line    0x0001babd      0x27c ../RawaPro_Linux_Cache_bsp//libhal_bsp.a(alt_dev_llist_insert.o)
 .debug_line    0x0001bd39       0x83 ../RawaPro_Linux_Cache_bsp//libhal_bsp.a(alt_do_ctors.o)
 .debug_line    0x0001bdbc       0x83 ../RawaPro_Linux_Cache_bsp//libhal_bsp.a(alt_do_dtors.o)
 .debug_line    0x0001be3f       0xab ../RawaPro_Linux_Cache_bsp//libhal_bsp.a(alt_exception_entry.o)
 .debug_line    0x0001beea      0x1df ../RawaPro_Linux_Cache_bsp//libhal_bsp.a(alt_icache_flush_all.o)
 .debug_line    0x0001c0c9      0x2d6 ../RawaPro_Linux_Cache_bsp//libhal_bsp.a(alt_io_redirect.o)
 .debug_line    0x0001c39f      0x321 ../RawaPro_Linux_Cache_bsp//libhal_bsp.a(alt_open.o)
 .debug_line    0x0001c6c0      0x1f0 ../RawaPro_Linux_Cache_bsp//libhal_bsp.a(altera_nios2_qsys_irq.o)
 .debug_line    0x0001c8b0      0x28d ../RawaPro_Linux_Cache_bsp//libhal_bsp.a(alt_find_dev.o)
 .debug_line    0x0001cb3d      0x29e ../RawaPro_Linux_Cache_bsp//libhal_bsp.a(alt_find_file.o)
 .debug_line    0x0001cddb      0x2b9 ../RawaPro_Linux_Cache_bsp//libhal_bsp.a(alt_get_fd.o)
 .debug_line    0x0001d094      0x21b ../RawaPro_Linux_Cache_bsp//libhal_bsp.a(alt_icache_flush.o)
 .debug_line    0x0001d2af      0x200 /home/lordrafa/altera/12.1sp1/nios2eds/bin/gnu/H-i686-pc-linux-gnu/bin/../lib/gcc/nios2-elf/4.1.2/../../../../nios2-elf/lib/libc.a(lib_a-atexit.o)
 .debug_line    0x0001d4af      0x238 /home/lordrafa/altera/12.1sp1/nios2eds/bin/gnu/H-i686-pc-linux-gnu/bin/../lib/gcc/nios2-elf/4.1.2/../../../../nios2-elf/lib/libc.a(lib_a-exit.o)
 .debug_line    0x0001d6e7      0x29f /home/lordrafa/altera/12.1sp1/nios2eds/bin/gnu/H-i686-pc-linux-gnu/bin/../lib/gcc/nios2-elf/4.1.2/../../../../nios2-elf/lib/libc.a(lib_a-memcmp.o)
 .debug_line    0x0001d986      0x313 /home/lordrafa/altera/12.1sp1/nios2eds/bin/gnu/H-i686-pc-linux-gnu/bin/../lib/gcc/nios2-elf/4.1.2/../../../../nios2-elf/lib/libc.a(lib_a-__atexit.o)
 .debug_line    0x0001dc99      0x367 /home/lordrafa/altera/12.1sp1/nios2eds/bin/gnu/H-i686-pc-linux-gnu/bin/../lib/gcc/nios2-elf/4.1.2/../../../../nios2-elf/lib/libc.a(lib_a-__call_atexit.o)

.debug_frame    0x00000000     0x2d6c
 *(.debug_frame)
 .debug_frame   0x00000000       0xd4 obj/default/alt_tpo_lcd/alt_tpo_lcd.o
 .debug_frame   0x000000d4       0x68 obj/default/alt_video_display/alt_video_display.o
 .debug_frame   0x0000013c      0x10c obj/default/audio_tvdecoder/i2c.o
 .debug_frame   0x00000248       0x64 obj/default/audio_tvdecoder/tvdecoder_ctrl.o
 .debug_frame   0x000002ac      0x324 obj/default/graphics_lib/simple_graphics.o
 .debug_frame   0x000005d0       0xd4 obj/default/graphics_lib/simple_text.o
 .debug_frame   0x000006a4       0x48 obj/default/keyhandler/keyhandler.o
 .debug_frame   0x000006ec       0x2c obj/default/main.o
 .debug_frame   0x00000718       0x48 obj/default/sfs/sfs.o
 .debug_frame   0x00000760      0x2c0 obj/default/framereader/vip_wrapper_for_c_func.o
 .debug_frame   0x00000a20      0x114 /home/lordrafa/altera/12.1sp1/nios2eds/bin/gnu/H-i686-pc-linux-gnu/bin/../lib/gcc/nios2-elf/4.1.2/../../../../nios2-elf/lib/libstdc++.a(eh_personality.o)
 .debug_frame   0x00000b34       0x94 /home/lordrafa/altera/12.1sp1/nios2eds/bin/gnu/H-i686-pc-linux-gnu/bin/../lib/gcc/nios2-elf/4.1.2/../../../../nios2-elf/lib/libstdc++.a(eh_terminate.o)
 .debug_frame   0x00000bc8       0x6c /home/lordrafa/altera/12.1sp1/nios2eds/bin/gnu/H-i686-pc-linux-gnu/bin/../lib/gcc/nios2-elf/4.1.2/../../../../nios2-elf/lib/libstdc++.a(eh_catch.o)
 .debug_frame   0x00000c34       0x20 /home/lordrafa/altera/12.1sp1/nios2eds/bin/gnu/H-i686-pc-linux-gnu/bin/../lib/gcc/nios2-elf/4.1.2/../../../../nios2-elf/lib/libstdc++.a(del_op.o)
 .debug_frame   0x00000c54       0x58 /home/lordrafa/altera/12.1sp1/nios2eds/bin/gnu/H-i686-pc-linux-gnu/bin/../lib/gcc/nios2-elf/4.1.2/../../../../nios2-elf/lib/libstdc++.a(eh_throw.o)
 .debug_frame   0x00000cac       0x3c /home/lordrafa/altera/12.1sp1/nios2eds/bin/gnu/H-i686-pc-linux-gnu/bin/../lib/gcc/nios2-elf/4.1.2/../../../../nios2-elf/lib/libstdc++.a(eh_alloc.o)
 .debug_frame   0x00000ce8       0x2c /home/lordrafa/altera/12.1sp1/nios2eds/bin/gnu/H-i686-pc-linux-gnu/bin/../lib/gcc/nios2-elf/4.1.2/../../../../nios2-elf/lib/libstdc++.a(new_op.o)
 .debug_frame   0x00000d14       0x8c /home/lordrafa/altera/12.1sp1/nios2eds/bin/gnu/H-i686-pc-linux-gnu/bin/../lib/gcc/nios2-elf/4.1.2/../../../../nios2-elf/lib/libstdc++.a(eh_exception.o)
 .debug_frame   0x00000da0       0x28 /home/lordrafa/altera/12.1sp1/nios2eds/bin/gnu/H-i686-pc-linux-gnu/bin/../lib/gcc/nios2-elf/4.1.2/../../../../nios2-elf/lib/libstdc++.a(eh_call.o)
 .debug_frame   0x00000dc8       0x5c /home/lordrafa/altera/12.1sp1/nios2eds/bin/gnu/H-i686-pc-linux-gnu/bin/../lib/gcc/nios2-elf/4.1.2/../../../../nios2-elf/lib/libstdc++.a(new_handler.o)
 .debug_frame   0x00000e24       0x30 /home/lordrafa/altera/12.1sp1/nios2eds/bin/gnu/H-i686-pc-linux-gnu/bin/../lib/gcc/nios2-elf/4.1.2/../../../../nios2-elf/lib/libstdc++.a(eh_globals.o)
 .debug_frame   0x00000e54       0xb0 /home/lordrafa/altera/12.1sp1/nios2eds/bin/gnu/H-i686-pc-linux-gnu/bin/../lib/gcc/nios2-elf/4.1.2/../../../../nios2-elf/lib/libstdc++.a(class_type_info.o)
 .debug_frame   0x00000f04       0x94 /home/lordrafa/altera/12.1sp1/nios2eds/bin/gnu/H-i686-pc-linux-gnu/bin/../lib/gcc/nios2-elf/4.1.2/../../../../nios2-elf/lib/libstdc++.a(si_class_type_info.o)
 .debug_frame   0x00000f98       0x80 /home/lordrafa/altera/12.1sp1/nios2eds/bin/gnu/H-i686-pc-linux-gnu/bin/../lib/gcc/nios2-elf/4.1.2/../../../../nios2-elf/lib/libstdc++.a(tinfo.o)
 .debug_frame   0x00001018       0x70 /home/lordrafa/altera/12.1sp1/nios2eds/bin/gnu/H-i686-pc-linux-gnu/bin/../lib/gcc/nios2-elf/4.1.2/libgcc.a(lib2-divmod.o)
 .debug_frame   0x00001088      0x1d8 /home/lordrafa/altera/12.1sp1/nios2eds/bin/gnu/H-i686-pc-linux-gnu/bin/../lib/gcc/nios2-elf/4.1.2/libgcc.a(unwind-sjlj.o)
 .debug_frame   0x00001260       0x28 /home/lordrafa/altera/12.1sp1/nios2eds/bin/gnu/H-i686-pc-linux-gnu/bin/../lib/gcc/nios2-elf/4.1.2/../../../../nios2-elf/lib/libc.a(lib_a-abort.o)
 .debug_frame   0x00001288       0x30 /home/lordrafa/altera/12.1sp1/nios2eds/bin/gnu/H-i686-pc-linux-gnu/bin/../lib/gcc/nios2-elf/4.1.2/../../../../nios2-elf/lib/libc.a(lib_a-malloc.o)
 .debug_frame   0x000012b8       0x38 /home/lordrafa/altera/12.1sp1/nios2eds/bin/gnu/H-i686-pc-linux-gnu/bin/../lib/gcc/nios2-elf/4.1.2/../../../../nios2-elf/lib/libc.a(lib_a-mallocr.o)
 .debug_frame   0x000012f0       0x20 /home/lordrafa/altera/12.1sp1/nios2eds/bin/gnu/H-i686-pc-linux-gnu/bin/../lib/gcc/nios2-elf/4.1.2/../../../../nios2-elf/lib/libc.a(lib_a-memcpy.o)
 .debug_frame   0x00001310       0x20 /home/lordrafa/altera/12.1sp1/nios2eds/bin/gnu/H-i686-pc-linux-gnu/bin/../lib/gcc/nios2-elf/4.1.2/../../../../nios2-elf/lib/libc.a(lib_a-memset.o)
 .debug_frame   0x00001330       0x40 /home/lordrafa/altera/12.1sp1/nios2eds/bin/gnu/H-i686-pc-linux-gnu/bin/../lib/gcc/nios2-elf/4.1.2/../../../../nios2-elf/lib/libc.a(lib_a-printf.o)
 .debug_frame   0x00001370       0x3c /home/lordrafa/altera/12.1sp1/nios2eds/bin/gnu/H-i686-pc-linux-gnu/bin/../lib/gcc/nios2-elf/4.1.2/../../../../nios2-elf/lib/libc.a(lib_a-puts.o)
 .debug_frame   0x000013ac       0x2c /home/lordrafa/altera/12.1sp1/nios2eds/bin/gnu/H-i686-pc-linux-gnu/bin/../lib/gcc/nios2-elf/4.1.2/../../../../nios2-elf/lib/libc.a(lib_a-sbrkr.o)
 .debug_frame   0x000013d8       0xb8 /home/lordrafa/altera/12.1sp1/nios2eds/bin/gnu/H-i686-pc-linux-gnu/bin/../lib/gcc/nios2-elf/4.1.2/../../../../nios2-elf/lib/libc.a(lib_a-signal.o)
 .debug_frame   0x00001490       0x3c /home/lordrafa/altera/12.1sp1/nios2eds/bin/gnu/H-i686-pc-linux-gnu/bin/../lib/gcc/nios2-elf/4.1.2/../../../../nios2-elf/lib/libc.a(lib_a-signalr.o)
 .debug_frame   0x000014cc       0x48 /home/lordrafa/altera/12.1sp1/nios2eds/bin/gnu/H-i686-pc-linux-gnu/bin/../lib/gcc/nios2-elf/4.1.2/../../../../nios2-elf/lib/libc.a(lib_a-snprintf.o)
 .debug_frame   0x00001514       0x20 /home/lordrafa/altera/12.1sp1/nios2eds/bin/gnu/H-i686-pc-linux-gnu/bin/../lib/gcc/nios2-elf/4.1.2/../../../../nios2-elf/lib/libc.a(lib_a-strcpy.o)
 .debug_frame   0x00001534       0x20 /home/lordrafa/altera/12.1sp1/nios2eds/bin/gnu/H-i686-pc-linux-gnu/bin/../lib/gcc/nios2-elf/4.1.2/../../../../nios2-elf/lib/libc.a(lib_a-strlen.o)
 .debug_frame   0x00001554       0x64 /home/lordrafa/altera/12.1sp1/nios2eds/bin/gnu/H-i686-pc-linux-gnu/bin/../lib/gcc/nios2-elf/4.1.2/../../../../nios2-elf/lib/libc.a(lib_a-vfprintf.o)
 .debug_frame   0x000015b8       0x2c /home/lordrafa/altera/12.1sp1/nios2eds/bin/gnu/H-i686-pc-linux-gnu/bin/../lib/gcc/nios2-elf/4.1.2/../../../../nios2-elf/lib/libc.a(lib_a-wsetup.o)
 .debug_frame   0x000015e4       0x64 /home/lordrafa/altera/12.1sp1/nios2eds/bin/gnu/H-i686-pc-linux-gnu/bin/../lib/gcc/nios2-elf/4.1.2/../../../../nios2-elf/lib/libc.a(lib_a-dtoa.o)
 .debug_frame   0x00001648       0x40 /home/lordrafa/altera/12.1sp1/nios2eds/bin/gnu/H-i686-pc-linux-gnu/bin/../lib/gcc/nios2-elf/4.1.2/../../../../nios2-elf/lib/libc.a(lib_a-fflush.o)
 .debug_frame   0x00001688      0x118 /home/lordrafa/altera/12.1sp1/nios2eds/bin/gnu/H-i686-pc-linux-gnu/bin/../lib/gcc/nios2-elf/4.1.2/../../../../nios2-elf/lib/libc.a(lib_a-findfp.o)
 .debug_frame   0x000017a0       0x4c /home/lordrafa/altera/12.1sp1/nios2eds/bin/gnu/H-i686-pc-linux-gnu/bin/../lib/gcc/nios2-elf/4.1.2/../../../../nios2-elf/lib/libc.a(lib_a-freer.o)
 .debug_frame   0x000017ec       0x38 /home/lordrafa/altera/12.1sp1/nios2eds/bin/gnu/H-i686-pc-linux-gnu/bin/../lib/gcc/nios2-elf/4.1.2/../../../../nios2-elf/lib/libc.a(lib_a-fvwrite.o)
 .debug_frame   0x00001824       0x60 /home/lordrafa/altera/12.1sp1/nios2eds/bin/gnu/H-i686-pc-linux-gnu/bin/../lib/gcc/nios2-elf/4.1.2/../../../../nios2-elf/lib/libc.a(lib_a-fwalk.o)
 .debug_frame   0x00001884       0x70 /home/lordrafa/altera/12.1sp1/nios2eds/bin/gnu/H-i686-pc-linux-gnu/bin/../lib/gcc/nios2-elf/4.1.2/../../../../nios2-elf/lib/libc.a(lib_a-locale.o)
 .debug_frame   0x000018f4       0x2c /home/lordrafa/altera/12.1sp1/nios2eds/bin/gnu/H-i686-pc-linux-gnu/bin/../lib/gcc/nios2-elf/4.1.2/../../../../nios2-elf/lib/libc.a(lib_a-makebuf.o)
 .debug_frame   0x00001920       0x20 /home/lordrafa/altera/12.1sp1/nios2eds/bin/gnu/H-i686-pc-linux-gnu/bin/../lib/gcc/nios2-elf/4.1.2/../../../../nios2-elf/lib/libc.a(lib_a-memchr.o)
 .debug_frame   0x00001940       0x20 /home/lordrafa/altera/12.1sp1/nios2eds/bin/gnu/H-i686-pc-linux-gnu/bin/../lib/gcc/nios2-elf/4.1.2/../../../../nios2-elf/lib/libc.a(lib_a-memmove.o)
 .debug_frame   0x00001960      0x218 /home/lordrafa/altera/12.1sp1/nios2eds/bin/gnu/H-i686-pc-linux-gnu/bin/../lib/gcc/nios2-elf/4.1.2/../../../../nios2-elf/lib/libc.a(lib_a-mprec.o)
 .debug_frame   0x00001b78       0x38 /home/lordrafa/altera/12.1sp1/nios2eds/bin/gnu/H-i686-pc-linux-gnu/bin/../lib/gcc/nios2-elf/4.1.2/../../../../nios2-elf/lib/libc.a(lib_a-reallocr.o)
 .debug_frame   0x00001bb0       0x20 /home/lordrafa/altera/12.1sp1/nios2eds/bin/gnu/H-i686-pc-linux-gnu/bin/../lib/gcc/nios2-elf/4.1.2/../../../../nios2-elf/lib/libc.a(lib_a-s_isinfd.o)
 .debug_frame   0x00001bd0       0x20 /home/lordrafa/altera/12.1sp1/nios2eds/bin/gnu/H-i686-pc-linux-gnu/bin/../lib/gcc/nios2-elf/4.1.2/../../../../nios2-elf/lib/libc.a(lib_a-s_isnand.o)
 .debug_frame   0x00001bf0       0x78 /home/lordrafa/altera/12.1sp1/nios2eds/bin/gnu/H-i686-pc-linux-gnu/bin/../lib/gcc/nios2-elf/4.1.2/../../../../nios2-elf/lib/libc.a(lib_a-stdio.o)
 .debug_frame   0x00001c68       0x20 /home/lordrafa/altera/12.1sp1/nios2eds/bin/gnu/H-i686-pc-linux-gnu/bin/../lib/gcc/nios2-elf/4.1.2/../../../../nios2-elf/lib/libc.a(lib_a-strcmp.o)
 .debug_frame   0x00001c88       0x2c /home/lordrafa/altera/12.1sp1/nios2eds/bin/gnu/H-i686-pc-linux-gnu/bin/../lib/gcc/nios2-elf/4.1.2/../../../../nios2-elf/lib/libc.a(lib_a-writer.o)
 .debug_frame   0x00001cb4       0x28 /home/lordrafa/altera/12.1sp1/nios2eds/bin/gnu/H-i686-pc-linux-gnu/bin/../lib/gcc/nios2-elf/4.1.2/../../../../nios2-elf/lib/libc.a(lib_a-callocr.o)
 .debug_frame   0x00001cdc       0x2c /home/lordrafa/altera/12.1sp1/nios2eds/bin/gnu/H-i686-pc-linux-gnu/bin/../lib/gcc/nios2-elf/4.1.2/../../../../nios2-elf/lib/libc.a(lib_a-closer.o)
 .debug_frame   0x00001d08       0x3c /home/lordrafa/altera/12.1sp1/nios2eds/bin/gnu/H-i686-pc-linux-gnu/bin/../lib/gcc/nios2-elf/4.1.2/../../../../nios2-elf/lib/libc.a(lib_a-fclose.o)
 .debug_frame   0x00001d44       0x2c /home/lordrafa/altera/12.1sp1/nios2eds/bin/gnu/H-i686-pc-linux-gnu/bin/../lib/gcc/nios2-elf/4.1.2/../../../../nios2-elf/lib/libc.a(lib_a-fstatr.o)
 .debug_frame   0x00001d70       0x2c /home/lordrafa/altera/12.1sp1/nios2eds/bin/gnu/H-i686-pc-linux-gnu/bin/../lib/gcc/nios2-elf/4.1.2/../../../../nios2-elf/lib/libc.a(lib_a-isattyr.o)
 .debug_frame   0x00001d9c       0x2c /home/lordrafa/altera/12.1sp1/nios2eds/bin/gnu/H-i686-pc-linux-gnu/bin/../lib/gcc/nios2-elf/4.1.2/../../../../nios2-elf/lib/libc.a(lib_a-lseekr.o)
 .debug_frame   0x00001dc8       0x2c /home/lordrafa/altera/12.1sp1/nios2eds/bin/gnu/H-i686-pc-linux-gnu/bin/../lib/gcc/nios2-elf/4.1.2/../../../../nios2-elf/lib/libc.a(lib_a-readr.o)
 .debug_frame   0x00001df4       0x38 /home/lordrafa/altera/12.1sp1/nios2eds/bin/gnu/H-i686-pc-linux-gnu/bin/../lib/gcc/nios2-elf/4.1.2/libgcc.a(_udivdi3.o)
 .debug_frame   0x00001e2c       0x38 /home/lordrafa/altera/12.1sp1/nios2eds/bin/gnu/H-i686-pc-linux-gnu/bin/../lib/gcc/nios2-elf/4.1.2/libgcc.a(_umoddi3.o)
 .debug_frame   0x00001e64       0x70 /home/lordrafa/altera/12.1sp1/nios2eds/bin/gnu/H-i686-pc-linux-gnu/bin/../lib/gcc/nios2-elf/4.1.2/libgcc.a(_addsub_df.o)
 .debug_frame   0x00001ed4       0x3c /home/lordrafa/altera/12.1sp1/nios2eds/bin/gnu/H-i686-pc-linux-gnu/bin/../lib/gcc/nios2-elf/4.1.2/libgcc.a(_mul_df.o)
 .debug_frame   0x00001f10       0x30 /home/lordrafa/altera/12.1sp1/nios2eds/bin/gnu/H-i686-pc-linux-gnu/bin/../lib/gcc/nios2-elf/4.1.2/libgcc.a(_div_df.o)
 .debug_frame   0x00001f40       0x2c /home/lordrafa/altera/12.1sp1/nios2eds/bin/gnu/H-i686-pc-linux-gnu/bin/../lib/gcc/nios2-elf/4.1.2/libgcc.a(_eq_df.o)
 .debug_frame   0x00001f6c       0x2c /home/lordrafa/altera/12.1sp1/nios2eds/bin/gnu/H-i686-pc-linux-gnu/bin/../lib/gcc/nios2-elf/4.1.2/libgcc.a(_ne_df.o)
 .debug_frame   0x00001f98       0x2c /home/lordrafa/altera/12.1sp1/nios2eds/bin/gnu/H-i686-pc-linux-gnu/bin/../lib/gcc/nios2-elf/4.1.2/libgcc.a(_gt_df.o)
 .debug_frame   0x00001fc4       0x2c /home/lordrafa/altera/12.1sp1/nios2eds/bin/gnu/H-i686-pc-linux-gnu/bin/../lib/gcc/nios2-elf/4.1.2/libgcc.a(_ge_df.o)
 .debug_frame   0x00001ff0       0x2c /home/lordrafa/altera/12.1sp1/nios2eds/bin/gnu/H-i686-pc-linux-gnu/bin/../lib/gcc/nios2-elf/4.1.2/libgcc.a(_lt_df.o)
 .debug_frame   0x0000201c       0x30 /home/lordrafa/altera/12.1sp1/nios2eds/bin/gnu/H-i686-pc-linux-gnu/bin/../lib/gcc/nios2-elf/4.1.2/libgcc.a(_si_to_df.o)
 .debug_frame   0x0000204c       0x28 /home/lordrafa/altera/12.1sp1/nios2eds/bin/gnu/H-i686-pc-linux-gnu/bin/../lib/gcc/nios2-elf/4.1.2/libgcc.a(_df_to_si.o)
 .debug_frame   0x00002074       0x38 /home/lordrafa/altera/12.1sp1/nios2eds/bin/gnu/H-i686-pc-linux-gnu/bin/../lib/gcc/nios2-elf/4.1.2/libgcc.a(_usi_to_df.o)
 .debug_frame   0x000020ac       0x2c /home/lordrafa/altera/12.1sp1/nios2eds/bin/gnu/H-i686-pc-linux-gnu/bin/../lib/gcc/nios2-elf/4.1.2/libgcc.a(_muldi3.o)
 .debug_frame   0x000020d8       0x20 /home/lordrafa/altera/12.1sp1/nios2eds/bin/gnu/H-i686-pc-linux-gnu/bin/../lib/gcc/nios2-elf/4.1.2/libgcc.a(_clzsi2.o)
 .debug_frame   0x000020f8       0x2c /home/lordrafa/altera/12.1sp1/nios2eds/bin/gnu/H-i686-pc-linux-gnu/bin/../lib/gcc/nios2-elf/4.1.2/libgcc.a(_pack_df.o)
 .debug_frame   0x00002124       0x20 /home/lordrafa/altera/12.1sp1/nios2eds/bin/gnu/H-i686-pc-linux-gnu/bin/../lib/gcc/nios2-elf/4.1.2/libgcc.a(_unpack_df.o)
 .debug_frame   0x00002144       0x20 /home/lordrafa/altera/12.1sp1/nios2eds/bin/gnu/H-i686-pc-linux-gnu/bin/../lib/gcc/nios2-elf/4.1.2/libgcc.a(_fpcmp_parts_df.o)
 .debug_frame   0x00002164       0x48 ../RawaPro_Linux_Cache_bsp//libhal_bsp.a(alt_close.o)
 .debug_frame   0x000021ac       0x2c ../RawaPro_Linux_Cache_bsp//libhal_bsp.a(alt_dev.o)
 .debug_frame   0x000021d8       0x48 ../RawaPro_Linux_Cache_bsp//libhal_bsp.a(alt_exit.o)
 .debug_frame   0x00002220       0x48 ../RawaPro_Linux_Cache_bsp//libhal_bsp.a(alt_fstat.o)
 .debug_frame   0x00002268       0x2c ../RawaPro_Linux_Cache_bsp//libhal_bsp.a(alt_getpid.o)
 .debug_frame   0x00002294       0x80 ../RawaPro_Linux_Cache_bsp//libhal_bsp.a(alt_iic.o)
 .debug_frame   0x00002314       0x2c ../RawaPro_Linux_Cache_bsp//libhal_bsp.a(alt_iic_isr_register.o)
 .debug_frame   0x00002340       0x2c ../RawaPro_Linux_Cache_bsp//libhal_bsp.a(alt_irq_handler.o)
 .debug_frame   0x0000236c       0x48 ../RawaPro_Linux_Cache_bsp//libhal_bsp.a(alt_isatty.o)
 .debug_frame   0x000023b4       0x48 ../RawaPro_Linux_Cache_bsp//libhal_bsp.a(alt_kill.o)
 .debug_frame   0x000023fc       0x48 ../RawaPro_Linux_Cache_bsp//libhal_bsp.a(alt_load.o)
 .debug_frame   0x00002444       0x48 ../RawaPro_Linux_Cache_bsp//libhal_bsp.a(alt_lseek.o)
 .debug_frame   0x0000248c       0x2c ../RawaPro_Linux_Cache_bsp//libhal_bsp.a(alt_main.o)
 .debug_frame   0x000024b8       0x48 ../RawaPro_Linux_Cache_bsp//libhal_bsp.a(alt_malloc_lock.o)
 .debug_frame   0x00002500       0x48 ../RawaPro_Linux_Cache_bsp//libhal_bsp.a(alt_read.o)
 .debug_frame   0x00002548       0x2c ../RawaPro_Linux_Cache_bsp//libhal_bsp.a(alt_release_fd.o)
 .debug_frame   0x00002574       0x2c ../RawaPro_Linux_Cache_bsp//libhal_bsp.a(alt_remap_uncached.o)
 .debug_frame   0x000025a0       0x2c ../RawaPro_Linux_Cache_bsp//libhal_bsp.a(alt_sbrk.o)
 .debug_frame   0x000025cc       0x48 ../RawaPro_Linux_Cache_bsp//libhal_bsp.a(alt_tick.o)
 .debug_frame   0x00002614       0x2c ../RawaPro_Linux_Cache_bsp//libhal_bsp.a(alt_uncached_malloc.o)
 .debug_frame   0x00002640       0x2c ../RawaPro_Linux_Cache_bsp//libhal_bsp.a(alt_usleep.o)
 .debug_frame   0x0000266c       0x48 ../RawaPro_Linux_Cache_bsp//libhal_bsp.a(alt_write.o)
 .debug_frame   0x000026b4       0x64 ../RawaPro_Linux_Cache_bsp//libhal_bsp.a(alt_sys_init.o)
 .debug_frame   0x00002718       0x80 ../RawaPro_Linux_Cache_bsp//libhal_bsp.a(altera_avalon_jtag_uart_fd.o)
 .debug_frame   0x00002798       0x80 ../RawaPro_Linux_Cache_bsp//libhal_bsp.a(altera_avalon_jtag_uart_init.o)
 .debug_frame   0x00002818       0x2c ../RawaPro_Linux_Cache_bsp//libhal_bsp.a(altera_avalon_jtag_uart_ioctl.o)
 .debug_frame   0x00002844       0x2c ../RawaPro_Linux_Cache_bsp//libhal_bsp.a(altera_avalon_jtag_uart_read.o)
 .debug_frame   0x00002870       0x2c ../RawaPro_Linux_Cache_bsp//libhal_bsp.a(altera_avalon_jtag_uart_write.o)
 .debug_frame   0x0000289c       0x9c ../RawaPro_Linux_Cache_bsp//libhal_bsp.a(altera_avalon_performance_counter.o)
 .debug_frame   0x00002938       0x48 ../RawaPro_Linux_Cache_bsp//libhal_bsp.a(altera_avalon_timer_sc.o)
 .debug_frame   0x00002980       0x2c ../RawaPro_Linux_Cache_bsp//libhal_bsp.a(alt_alarm_start.o)
 .debug_frame   0x000029ac       0x2c ../RawaPro_Linux_Cache_bsp//libhal_bsp.a(alt_busy_sleep.o)
 .debug_frame   0x000029d8       0x2c ../RawaPro_Linux_Cache_bsp//libhal_bsp.a(alt_dcache_flush.o)
 .debug_frame   0x00002a04       0x2c ../RawaPro_Linux_Cache_bsp//libhal_bsp.a(alt_dcache_flush_all.o)
 .debug_frame   0x00002a30       0x48 ../RawaPro_Linux_Cache_bsp//libhal_bsp.a(alt_dev_llist_insert.o)
 .debug_frame   0x00002a78       0x2c ../RawaPro_Linux_Cache_bsp//libhal_bsp.a(alt_do_ctors.o)
 .debug_frame   0x00002aa4       0x2c ../RawaPro_Linux_Cache_bsp//libhal_bsp.a(alt_do_dtors.o)
 .debug_frame   0x00002ad0       0x2c ../RawaPro_Linux_Cache_bsp//libhal_bsp.a(alt_icache_flush_all.o)
 .debug_frame   0x00002afc       0x48 ../RawaPro_Linux_Cache_bsp//libhal_bsp.a(alt_io_redirect.o)
 .debug_frame   0x00002b44       0x64 ../RawaPro_Linux_Cache_bsp//libhal_bsp.a(alt_open.o)
 .debug_frame   0x00002ba8       0x2c ../RawaPro_Linux_Cache_bsp//libhal_bsp.a(altera_nios2_qsys_irq.o)
 .debug_frame   0x00002bd4       0x2c ../RawaPro_Linux_Cache_bsp//libhal_bsp.a(alt_find_dev.o)
 .debug_frame   0x00002c00       0x2c ../RawaPro_Linux_Cache_bsp//libhal_bsp.a(alt_find_file.o)
 .debug_frame   0x00002c2c       0x2c ../RawaPro_Linux_Cache_bsp//libhal_bsp.a(alt_get_fd.o)
 .debug_frame   0x00002c58       0x2c ../RawaPro_Linux_Cache_bsp//libhal_bsp.a(alt_icache_flush.o)
 .debug_frame   0x00002c84       0x20 /home/lordrafa/altera/12.1sp1/nios2eds/bin/gnu/H-i686-pc-linux-gnu/bin/../lib/gcc/nios2-elf/4.1.2/../../../../nios2-elf/lib/libc.a(lib_a-atexit.o)
 .debug_frame   0x00002ca4       0x28 /home/lordrafa/altera/12.1sp1/nios2eds/bin/gnu/H-i686-pc-linux-gnu/bin/../lib/gcc/nios2-elf/4.1.2/../../../../nios2-elf/lib/libc.a(lib_a-exit.o)
 .debug_frame   0x00002ccc       0x20 /home/lordrafa/altera/12.1sp1/nios2eds/bin/gnu/H-i686-pc-linux-gnu/bin/../lib/gcc/nios2-elf/4.1.2/../../../../nios2-elf/lib/libc.a(lib_a-memcmp.o)
 .debug_frame   0x00002cec       0x34 /home/lordrafa/altera/12.1sp1/nios2eds/bin/gnu/H-i686-pc-linux-gnu/bin/../lib/gcc/nios2-elf/4.1.2/../../../../nios2-elf/lib/libc.a(lib_a-__atexit.o)
 .debug_frame   0x00002d20       0x4c /home/lordrafa/altera/12.1sp1/nios2eds/bin/gnu/H-i686-pc-linux-gnu/bin/../lib/gcc/nios2-elf/4.1.2/../../../../nios2-elf/lib/libc.a(lib_a-__call_atexit.o)

.debug_str      0x00000000     0x464d
 *(.debug_str)
 .debug_str     0x00000000       0x32 obj/default/alt_tpo_lcd/alt_tpo_lcd.o
 .debug_str     0x00000032       0x78 obj/default/alt_video_display/alt_video_display.o
 .debug_str     0x000000aa       0x41 obj/default/audio_tvdecoder/i2c.o
 .debug_str     0x000000eb       0x12 obj/default/audio_tvdecoder/tvdecoder_ctrl.o
 .debug_str     0x000000fd       0x12 obj/default/fonts/tahomabold_20.o
 .debug_str     0x0000010f       0x12 obj/default/fonts/tahomabold_32.o
 .debug_str     0x00000121      0x142 obj/default/graphics_lib/simple_graphics.o
 .debug_str     0x00000263       0x74 obj/default/graphics_lib/simple_text.o
 .debug_str     0x000002d7       0x1c obj/default/keyhandler/keyhandler.o
 .debug_str     0x000002f3       0x1e obj/default/main.o
 .debug_str     0x00000311       0x12 obj/default/sfs/sfs.o
 .debug_str     0x00000323      0x4c4 obj/default/framereader/vip_wrapper_for_c_func.o
 .debug_str     0x000007e7      0xa2d /home/lordrafa/altera/12.1sp1/nios2eds/bin/gnu/H-i686-pc-linux-gnu/bin/../lib/gcc/nios2-elf/4.1.2/../../../../nios2-elf/lib/libstdc++.a(eh_personality.o)
                                0xb6e (size before relaxing)
 .debug_str     0x00001214      0x187 /home/lordrafa/altera/12.1sp1/nios2eds/bin/gnu/H-i686-pc-linux-gnu/bin/../lib/gcc/nios2-elf/4.1.2/../../../../nios2-elf/lib/libstdc++.a(eh_terminate.o)
                                0x7c2 (size before relaxing)
 .debug_str     0x0000139b       0x42 /home/lordrafa/altera/12.1sp1/nios2eds/bin/gnu/H-i686-pc-linux-gnu/bin/../lib/gcc/nios2-elf/4.1.2/../../../../nios2-elf/lib/libstdc++.a(eh_term_handler.o)
                                0x5cf (size before relaxing)
 .debug_str     0x000013dd       0xd3 /home/lordrafa/altera/12.1sp1/nios2eds/bin/gnu/H-i686-pc-linux-gnu/bin/../lib/gcc/nios2-elf/4.1.2/../../../../nios2-elf/lib/libstdc++.a(eh_catch.o)
                                0x779 (size before relaxing)
 .debug_str     0x000014b0       0x50 /home/lordrafa/altera/12.1sp1/nios2eds/bin/gnu/H-i686-pc-linux-gnu/bin/../lib/gcc/nios2-elf/4.1.2/../../../../nios2-elf/lib/libstdc++.a(del_op.o)
                                0x235 (size before relaxing)
 .debug_str     0x00001500       0x98 /home/lordrafa/altera/12.1sp1/nios2eds/bin/gnu/H-i686-pc-linux-gnu/bin/../lib/gcc/nios2-elf/4.1.2/../../../../nios2-elf/lib/libstdc++.a(eh_throw.o)
                                0x6e2 (size before relaxing)
 .debug_str     0x00001598       0xdb /home/lordrafa/altera/12.1sp1/nios2eds/bin/gnu/H-i686-pc-linux-gnu/bin/../lib/gcc/nios2-elf/4.1.2/../../../../nios2-elf/lib/libstdc++.a(eh_alloc.o)
                                0x744 (size before relaxing)
 .debug_str     0x00001673       0x65 /home/lordrafa/altera/12.1sp1/nios2eds/bin/gnu/H-i686-pc-linux-gnu/bin/../lib/gcc/nios2-elf/4.1.2/../../../../nios2-elf/lib/libstdc++.a(new_op.o)
                                0x2b6 (size before relaxing)
 .debug_str     0x000016d8       0x3f /home/lordrafa/altera/12.1sp1/nios2eds/bin/gnu/H-i686-pc-linux-gnu/bin/../lib/gcc/nios2-elf/4.1.2/../../../../nios2-elf/lib/libstdc++.a(eh_exception.o)
                                0x3bc (size before relaxing)
 .debug_str     0x00001717       0x4f /home/lordrafa/altera/12.1sp1/nios2eds/bin/gnu/H-i686-pc-linux-gnu/bin/../lib/gcc/nios2-elf/4.1.2/../../../../nios2-elf/lib/libstdc++.a(eh_call.o)
                                0x6aa (size before relaxing)
 .debug_str     0x00001766       0x8d /home/lordrafa/altera/12.1sp1/nios2eds/bin/gnu/H-i686-pc-linux-gnu/bin/../lib/gcc/nios2-elf/4.1.2/../../../../nios2-elf/lib/libstdc++.a(new_handler.o)
                                0x1ee (size before relaxing)
 .debug_str     0x000017f3      0x332 /home/lordrafa/altera/12.1sp1/nios2eds/bin/gnu/H-i686-pc-linux-gnu/bin/../lib/gcc/nios2-elf/4.1.2/../../../../nios2-elf/lib/libstdc++.a(eh_globals.o)
                                0x992 (size before relaxing)
 .debug_str     0x00001b25      0x139 /home/lordrafa/altera/12.1sp1/nios2eds/bin/gnu/H-i686-pc-linux-gnu/bin/../lib/gcc/nios2-elf/4.1.2/../../../../nios2-elf/lib/libstdc++.a(class_type_info.o)
                                0x6e1 (size before relaxing)
 .debug_str     0x00001c5e       0x42 /home/lordrafa/altera/12.1sp1/nios2eds/bin/gnu/H-i686-pc-linux-gnu/bin/../lib/gcc/nios2-elf/4.1.2/../../../../nios2-elf/lib/libstdc++.a(eh_unex_handler.o)
                                0x5b5 (size before relaxing)
 .debug_str     0x00001ca0      0x1f8 /home/lordrafa/altera/12.1sp1/nios2eds/bin/gnu/H-i686-pc-linux-gnu/bin/../lib/gcc/nios2-elf/4.1.2/../../../../nios2-elf/lib/libstdc++.a(si_class_type_info.o)
                                0x88e (size before relaxing)
 .debug_str     0x00001e98       0x38 /home/lordrafa/altera/12.1sp1/nios2eds/bin/gnu/H-i686-pc-linux-gnu/bin/../lib/gcc/nios2-elf/4.1.2/../../../../nios2-elf/lib/libstdc++.a(tinfo.o)
                                0x69d (size before relaxing)
 .debug_str     0x00001ed0      0x11c /home/lordrafa/altera/12.1sp1/nios2eds/bin/gnu/H-i686-pc-linux-gnu/bin/../lib/gcc/nios2-elf/4.1.2/libgcc.a(lib2-divmod.o)
                                0x1b9 (size before relaxing)
 .debug_str     0x00001fec      0x396 /home/lordrafa/altera/12.1sp1/nios2eds/bin/gnu/H-i686-pc-linux-gnu/bin/../lib/gcc/nios2-elf/4.1.2/libgcc.a(unwind-sjlj.o)
                                0x60b (size before relaxing)
 .debug_str     0x00002382       0xd1 /home/lordrafa/altera/12.1sp1/nios2eds/bin/gnu/H-i686-pc-linux-gnu/bin/../lib/gcc/nios2-elf/4.1.2/../../../../nios2-elf/lib/libc.a(lib_a-abort.o)
                                0x166 (size before relaxing)
 .debug_str     0x00002453      0x3a0 /home/lordrafa/altera/12.1sp1/nios2eds/bin/gnu/H-i686-pc-linux-gnu/bin/../lib/gcc/nios2-elf/4.1.2/../../../../nios2-elf/lib/libc.a(lib_a-malloc.o)
                                0x521 (size before relaxing)
 .debug_str     0x000027f3      0x208 /home/lordrafa/altera/12.1sp1/nios2eds/bin/gnu/H-i686-pc-linux-gnu/bin/../lib/gcc/nios2-elf/4.1.2/../../../../nios2-elf/lib/libc.a(lib_a-mallocr.o)
                                0x6f6 (size before relaxing)
 .debug_str     0x000029fb       0xf3 /home/lordrafa/altera/12.1sp1/nios2eds/bin/gnu/H-i686-pc-linux-gnu/bin/../lib/gcc/nios2-elf/4.1.2/../../../../nios2-elf/lib/libc.a(lib_a-memcpy.o)
                                0x12d (size before relaxing)
 .debug_str     0x00002aee       0x4f /home/lordrafa/altera/12.1sp1/nios2eds/bin/gnu/H-i686-pc-linux-gnu/bin/../lib/gcc/nios2-elf/4.1.2/../../../../nios2-elf/lib/libc.a(lib_a-memset.o)
                                0x183 (size before relaxing)
 .debug_str     0x00002b3d       0xe3 /home/lordrafa/altera/12.1sp1/nios2eds/bin/gnu/H-i686-pc-linux-gnu/bin/../lib/gcc/nios2-elf/4.1.2/../../../../nios2-elf/lib/libc.a(lib_a-printf.o)
                                0x528 (size before relaxing)
 .debug_str     0x00002c20       0x81 /home/lordrafa/altera/12.1sp1/nios2eds/bin/gnu/H-i686-pc-linux-gnu/bin/../lib/gcc/nios2-elf/4.1.2/../../../../nios2-elf/lib/libc.a(lib_a-puts.o)
                                0x54e (size before relaxing)
 .debug_str     0x00002ca1       0xd6 /home/lordrafa/altera/12.1sp1/nios2eds/bin/gnu/H-i686-pc-linux-gnu/bin/../lib/gcc/nios2-elf/4.1.2/../../../../nios2-elf/lib/libc.a(lib_a-sbrkr.o)
                                0x510 (size before relaxing)
 .debug_str     0x00002d77      0x126 /home/lordrafa/altera/12.1sp1/nios2eds/bin/gnu/H-i686-pc-linux-gnu/bin/../lib/gcc/nios2-elf/4.1.2/../../../../nios2-elf/lib/libc.a(lib_a-signal.o)
                                0x572 (size before relaxing)
 .debug_str     0x00002e9d       0x4d /home/lordrafa/altera/12.1sp1/nios2eds/bin/gnu/H-i686-pc-linux-gnu/bin/../lib/gcc/nios2-elf/4.1.2/../../../../nios2-elf/lib/libc.a(lib_a-signalr.o)
                                0x50d (size before relaxing)
 .debug_str     0x00002eea       0x51 /home/lordrafa/altera/12.1sp1/nios2eds/bin/gnu/H-i686-pc-linux-gnu/bin/../lib/gcc/nios2-elf/4.1.2/../../../../nios2-elf/lib/libc.a(lib_a-snprintf.o)
                                0x53f (size before relaxing)
 .debug_str     0x00002f3b       0x42 /home/lordrafa/altera/12.1sp1/nios2eds/bin/gnu/H-i686-pc-linux-gnu/bin/../lib/gcc/nios2-elf/4.1.2/../../../../nios2-elf/lib/libc.a(lib_a-strcpy.o)
                                0x18a (size before relaxing)
 .debug_str     0x00002f7d       0x42 /home/lordrafa/altera/12.1sp1/nios2eds/bin/gnu/H-i686-pc-linux-gnu/bin/../lib/gcc/nios2-elf/4.1.2/../../../../nios2-elf/lib/libc.a(lib_a-strlen.o)
                                0x182 (size before relaxing)
 .debug_str     0x00002fbf      0x17f /home/lordrafa/altera/12.1sp1/nios2eds/bin/gnu/H-i686-pc-linux-gnu/bin/../lib/gcc/nios2-elf/4.1.2/../../../../nios2-elf/lib/libc.a(lib_a-vfprintf.o)
                                0x6fd (size before relaxing)
 .debug_str     0x0000313e       0x46 /home/lordrafa/altera/12.1sp1/nios2eds/bin/gnu/H-i686-pc-linux-gnu/bin/../lib/gcc/nios2-elf/4.1.2/../../../../nios2-elf/lib/libc.a(lib_a-wsetup.o)
                                0x511 (size before relaxing)
 .debug_str     0x00003184      0x102 /home/lordrafa/altera/12.1sp1/nios2eds/bin/gnu/H-i686-pc-linux-gnu/bin/../lib/gcc/nios2-elf/4.1.2/../../../../nios2-elf/lib/libc.a(lib_a-dtoa.o)
                                0x606 (size before relaxing)
 .debug_str     0x00003286       0x65 /home/lordrafa/altera/12.1sp1/nios2eds/bin/gnu/H-i686-pc-linux-gnu/bin/../lib/gcc/nios2-elf/4.1.2/../../../../nios2-elf/lib/libc.a(lib_a-fflush.o)
                                0x537 (size before relaxing)
 .debug_str     0x000032eb      0x102 /home/lordrafa/altera/12.1sp1/nios2eds/bin/gnu/H-i686-pc-linux-gnu/bin/../lib/gcc/nios2-elf/4.1.2/../../../../nios2-elf/lib/libc.a(lib_a-findfp.o)
                                0x5f9 (size before relaxing)
 .debug_str     0x000033ed       0x3c /home/lordrafa/altera/12.1sp1/nios2eds/bin/gnu/H-i686-pc-linux-gnu/bin/../lib/gcc/nios2-elf/4.1.2/../../../../nios2-elf/lib/libc.a(lib_a-freer.o)
                                0x648 (size before relaxing)
 .debug_str     0x00003429       0x66 /home/lordrafa/altera/12.1sp1/nios2eds/bin/gnu/H-i686-pc-linux-gnu/bin/../lib/gcc/nios2-elf/4.1.2/../../../../nios2-elf/lib/libc.a(lib_a-fvwrite.o)
                                0x568 (size before relaxing)
 .debug_str     0x0000348f       0x5e /home/lordrafa/altera/12.1sp1/nios2eds/bin/gnu/H-i686-pc-linux-gnu/bin/../lib/gcc/nios2-elf/4.1.2/../../../../nios2-elf/lib/libc.a(lib_a-fwalk.o)
                                0x53a (size before relaxing)
 .debug_str     0x000034ed       0x46 /home/lordrafa/altera/12.1sp1/nios2eds/bin/gnu/H-i686-pc-linux-gnu/bin/../lib/gcc/nios2-elf/4.1.2/../../../../nios2-elf/lib/libc.a(lib_a-impure.o)
                                0x51f (size before relaxing)
 .debug_str     0x00003533       0x3d /home/lordrafa/altera/12.1sp1/nios2eds/bin/gnu/H-i686-pc-linux-gnu/bin/../lib/gcc/nios2-elf/4.1.2/../../../../nios2-elf/lib/libc.a(lib_a-int_errno.o)
                                0x168 (size before relaxing)
 .debug_str     0x00003570      0x22a /home/lordrafa/altera/12.1sp1/nios2eds/bin/gnu/H-i686-pc-linux-gnu/bin/../lib/gcc/nios2-elf/4.1.2/../../../../nios2-elf/lib/libc.a(lib_a-locale.o)
                                0x6ae (size before relaxing)
 .debug_str     0x0000379a      0x123 /home/lordrafa/altera/12.1sp1/nios2eds/bin/gnu/H-i686-pc-linux-gnu/bin/../lib/gcc/nios2-elf/4.1.2/../../../../nios2-elf/lib/libc.a(lib_a-makebuf.o)
                                0x60b (size before relaxing)
 .debug_str     0x000038bd       0x49 /home/lordrafa/altera/12.1sp1/nios2eds/bin/gnu/H-i686-pc-linux-gnu/bin/../lib/gcc/nios2-elf/4.1.2/../../../../nios2-elf/lib/libc.a(lib_a-memchr.o)
                                0x190 (size before relaxing)
 .debug_str     0x00003906       0x4d /home/lordrafa/altera/12.1sp1/nios2eds/bin/gnu/H-i686-pc-linux-gnu/bin/../lib/gcc/nios2-elf/4.1.2/../../../../nios2-elf/lib/libc.a(lib_a-memmove.o)
                                0x1a2 (size before relaxing)
 .debug_str     0x00003953       0xf8 /home/lordrafa/altera/12.1sp1/nios2eds/bin/gnu/H-i686-pc-linux-gnu/bin/../lib/gcc/nios2-elf/4.1.2/../../../../nios2-elf/lib/libc.a(lib_a-mprec.o)
                                0x613 (size before relaxing)
 .debug_str     0x00003a4b       0x54 /home/lordrafa/altera/12.1sp1/nios2eds/bin/gnu/H-i686-pc-linux-gnu/bin/../lib/gcc/nios2-elf/4.1.2/../../../../nios2-elf/lib/libc.a(lib_a-reallocr.o)
                                0x5c8 (size before relaxing)
 .debug_str     0x00003a9f       0xe1 /home/lordrafa/altera/12.1sp1/nios2eds/bin/gnu/H-i686-pc-linux-gnu/bin/../lib/gcc/nios2-elf/4.1.2/../../../../nios2-elf/lib/libc.a(lib_a-s_isinfd.o)
                                0x18f (size before relaxing)
 .debug_str     0x00003b80       0x46 /home/lordrafa/altera/12.1sp1/nios2eds/bin/gnu/H-i686-pc-linux-gnu/bin/../lib/gcc/nios2-elf/4.1.2/../../../../nios2-elf/lib/libc.a(lib_a-s_isnand.o)
                                0x18f (size before relaxing)
 .debug_str     0x00003bc6       0x62 /home/lordrafa/altera/12.1sp1/nios2eds/bin/gnu/H-i686-pc-linux-gnu/bin/../lib/gcc/nios2-elf/4.1.2/../../../../nios2-elf/lib/libc.a(lib_a-stdio.o)
                                0x536 (size before relaxing)
 .debug_str     0x00003c28       0x42 /home/lordrafa/altera/12.1sp1/nios2eds/bin/gnu/H-i686-pc-linux-gnu/bin/../lib/gcc/nios2-elf/4.1.2/../../../../nios2-elf/lib/libc.a(lib_a-strcmp.o)
                                0x168 (size before relaxing)
 .debug_str     0x00003c6a       0x4c /home/lordrafa/altera/12.1sp1/nios2eds/bin/gnu/H-i686-pc-linux-gnu/bin/../lib/gcc/nios2-elf/4.1.2/../../../../nios2-elf/lib/libc.a(lib_a-writer.o)
                                0x513 (size before relaxing)
 .debug_str     0x00003cb6       0x19 /home/lordrafa/altera/12.1sp1/nios2eds/bin/gnu/H-i686-pc-linux-gnu/bin/../lib/gcc/nios2-elf/4.1.2/../../../../nios2-elf/lib/libc.a(lib_a-callocr.o)
                                0x547 (size before relaxing)
 .debug_str     0x00003ccf       0x43 /home/lordrafa/altera/12.1sp1/nios2eds/bin/gnu/H-i686-pc-linux-gnu/bin/../lib/gcc/nios2-elf/4.1.2/../../../../nios2-elf/lib/libc.a(lib_a-closer.o)
                                0x503 (size before relaxing)
 .debug_str     0x00003d12       0x4b /home/lordrafa/altera/12.1sp1/nios2eds/bin/gnu/H-i686-pc-linux-gnu/bin/../lib/gcc/nios2-elf/4.1.2/../../../../nios2-elf/lib/libc.a(lib_a-fclose.o)
                                0x51b (size before relaxing)
 .debug_str     0x00003d5d       0x49 /home/lordrafa/altera/12.1sp1/nios2eds/bin/gnu/H-i686-pc-linux-gnu/bin/../lib/gcc/nios2-elf/4.1.2/../../../../nios2-elf/lib/libc.a(lib_a-fstatr.o)
                                0x5f6 (size before relaxing)
 .debug_str     0x00003da6       0x45 /home/lordrafa/altera/12.1sp1/nios2eds/bin/gnu/H-i686-pc-linux-gnu/bin/../lib/gcc/nios2-elf/4.1.2/../../../../nios2-elf/lib/libc.a(lib_a-isattyr.o)
                                0x505 (size before relaxing)
 .debug_str     0x00003deb       0x43 /home/lordrafa/altera/12.1sp1/nios2eds/bin/gnu/H-i686-pc-linux-gnu/bin/../lib/gcc/nios2-elf/4.1.2/../../../../nios2-elf/lib/libc.a(lib_a-lseekr.o)
                                0x511 (size before relaxing)
 .debug_str     0x00003e2e       0x41 /home/lordrafa/altera/12.1sp1/nios2eds/bin/gnu/H-i686-pc-linux-gnu/bin/../lib/gcc/nios2-elf/4.1.2/../../../../nios2-elf/lib/libc.a(lib_a-readr.o)
                                0x511 (size before relaxing)
 .debug_str     0x00003e6f       0xb2 /home/lordrafa/altera/12.1sp1/nios2eds/bin/gnu/H-i686-pc-linux-gnu/bin/../lib/gcc/nios2-elf/4.1.2/libgcc.a(_udivdi3.o)
                                0x1fc (size before relaxing)
 .debug_str     0x00003f21        0xa /home/lordrafa/altera/12.1sp1/nios2eds/bin/gnu/H-i686-pc-linux-gnu/bin/../lib/gcc/nios2-elf/4.1.2/libgcc.a(_umoddi3.o)
                                0x1fc (size before relaxing)
 .debug_str     0x00003f2b      0x131 /home/lordrafa/altera/12.1sp1/nios2eds/bin/gnu/H-i686-pc-linux-gnu/bin/../lib/gcc/nios2-elf/4.1.2/libgcc.a(_addsub_df.o)
                                0x274 (size before relaxing)
 .debug_str     0x0000405c       0x40 /home/lordrafa/altera/12.1sp1/nios2eds/bin/gnu/H-i686-pc-linux-gnu/bin/../lib/gcc/nios2-elf/4.1.2/libgcc.a(_mul_df.o)
                                0x246 (size before relaxing)
 .debug_str     0x0000409c       0x35 /home/lordrafa/altera/12.1sp1/nios2eds/bin/gnu/H-i686-pc-linux-gnu/bin/../lib/gcc/nios2-elf/4.1.2/libgcc.a(_div_df.o)
                                0x236 (size before relaxing)
 .debug_str     0x000040d1        0x8 /home/lordrafa/altera/12.1sp1/nios2eds/bin/gnu/H-i686-pc-linux-gnu/bin/../lib/gcc/nios2-elf/4.1.2/libgcc.a(_eq_df.o)
                                0x203 (size before relaxing)
 .debug_str     0x000040d9        0x8 /home/lordrafa/altera/12.1sp1/nios2eds/bin/gnu/H-i686-pc-linux-gnu/bin/../lib/gcc/nios2-elf/4.1.2/libgcc.a(_ne_df.o)
                                0x203 (size before relaxing)
 .debug_str     0x000040e1        0x8 /home/lordrafa/altera/12.1sp1/nios2eds/bin/gnu/H-i686-pc-linux-gnu/bin/../lib/gcc/nios2-elf/4.1.2/libgcc.a(_gt_df.o)
                                0x203 (size before relaxing)
 .debug_str     0x000040e9        0x8 /home/lordrafa/altera/12.1sp1/nios2eds/bin/gnu/H-i686-pc-linux-gnu/bin/../lib/gcc/nios2-elf/4.1.2/libgcc.a(_ge_df.o)
                                0x203 (size before relaxing)
 .debug_str     0x000040f1        0x8 /home/lordrafa/altera/12.1sp1/nios2eds/bin/gnu/H-i686-pc-linux-gnu/bin/../lib/gcc/nios2-elf/4.1.2/libgcc.a(_lt_df.o)
                                0x203 (size before relaxing)
 .debug_str     0x000040f9       0x18 /home/lordrafa/altera/12.1sp1/nios2eds/bin/gnu/H-i686-pc-linux-gnu/bin/../lib/gcc/nios2-elf/4.1.2/libgcc.a(_si_to_df.o)
                                0x1e3 (size before relaxing)
 .debug_str     0x00004111        0xa /home/lordrafa/altera/12.1sp1/nios2eds/bin/gnu/H-i686-pc-linux-gnu/bin/../lib/gcc/nios2-elf/4.1.2/libgcc.a(_df_to_si.o)
                                0x20c (size before relaxing)
 .debug_str     0x00000000      0x1a8 /home/lordrafa/altera/12.1sp1/nios2eds/bin/gnu/H-i686-pc-linux-gnu/bin/../lib/gcc/nios2-elf/4.1.2/libgcc.a(_thenan_df.o)
 .debug_str     0x0000411b       0x14 /home/lordrafa/altera/12.1sp1/nios2eds/bin/gnu/H-i686-pc-linux-gnu/bin/../lib/gcc/nios2-elf/4.1.2/libgcc.a(_usi_to_df.o)
                                0x1df (size before relaxing)
 .debug_str     0x0000412f        0x9 /home/lordrafa/altera/12.1sp1/nios2eds/bin/gnu/H-i686-pc-linux-gnu/bin/../lib/gcc/nios2-elf/4.1.2/libgcc.a(_muldi3.o)
                                0x1b1 (size before relaxing)
 .debug_str     0x00000000      0x166 /home/lordrafa/altera/12.1sp1/nios2eds/bin/gnu/H-i686-pc-linux-gnu/bin/../lib/gcc/nios2-elf/4.1.2/libgcc.a(_clz.o)
 .debug_str     0x00004138        0x9 /home/lordrafa/altera/12.1sp1/nios2eds/bin/gnu/H-i686-pc-linux-gnu/bin/../lib/gcc/nios2-elf/4.1.2/libgcc.a(_clzsi2.o)
                                0x183 (size before relaxing)
 .debug_str     0x00004141       0x10 /home/lordrafa/altera/12.1sp1/nios2eds/bin/gnu/H-i686-pc-linux-gnu/bin/../lib/gcc/nios2-elf/4.1.2/libgcc.a(_pack_df.o)
                                0x20b (size before relaxing)
 .debug_str     0x00004151        0xb /home/lordrafa/altera/12.1sp1/nios2eds/bin/gnu/H-i686-pc-linux-gnu/bin/../lib/gcc/nios2-elf/4.1.2/libgcc.a(_unpack_df.o)
                                0x1ed (size before relaxing)
 .debug_str     0x0000415c       0x10 /home/lordrafa/altera/12.1sp1/nios2eds/bin/gnu/H-i686-pc-linux-gnu/bin/../lib/gcc/nios2-elf/4.1.2/libgcc.a(_fpcmp_parts_df.o)
                                0x1cb (size before relaxing)
 .debug_str     0x0000416c       0x12 ../RawaPro_Linux_Cache_bsp//libhal_bsp.a(alt_close.o)
 .debug_str     0x0000417e       0x12 ../RawaPro_Linux_Cache_bsp//libhal_bsp.a(alt_dev.o)
 .debug_str     0x00004190       0x12 ../RawaPro_Linux_Cache_bsp//libhal_bsp.a(alt_errno.o)
 .debug_str     0x000041a2       0x1c ../RawaPro_Linux_Cache_bsp//libhal_bsp.a(alt_exit.o)
 .debug_str     0x000041be       0x12 ../RawaPro_Linux_Cache_bsp//libhal_bsp.a(alt_fstat.o)
 .debug_str     0x000041d0       0x18 ../RawaPro_Linux_Cache_bsp//libhal_bsp.a(alt_iic.o)
 .debug_str     0x000041e8       0x1a ../RawaPro_Linux_Cache_bsp//libhal_bsp.a(alt_iic_isr_register.o)
 .debug_str     0x00004202       0x12 ../RawaPro_Linux_Cache_bsp//libhal_bsp.a(alt_irq_handler.o)
 .debug_str     0x00004214       0x12 ../RawaPro_Linux_Cache_bsp//libhal_bsp.a(alt_isatty.o)
 .debug_str     0x00004226       0x12 ../RawaPro_Linux_Cache_bsp//libhal_bsp.a(alt_kill.o)
 .debug_str     0x00004238       0x12 ../RawaPro_Linux_Cache_bsp//libhal_bsp.a(alt_load.o)
 .debug_str     0x0000424a       0x12 ../RawaPro_Linux_Cache_bsp//libhal_bsp.a(alt_lseek.o)
 .debug_str     0x0000425c       0x12 ../RawaPro_Linux_Cache_bsp//libhal_bsp.a(alt_main.o)
 .debug_str     0x0000426e       0x20 ../RawaPro_Linux_Cache_bsp//libhal_bsp.a(alt_malloc_lock.o)
 .debug_str     0x0000428e       0x12 ../RawaPro_Linux_Cache_bsp//libhal_bsp.a(alt_read.o)
 .debug_str     0x000042a0       0x12 ../RawaPro_Linux_Cache_bsp//libhal_bsp.a(alt_remap_uncached.o)
 .debug_str     0x000042b2       0x1a ../RawaPro_Linux_Cache_bsp//libhal_bsp.a(alt_sbrk.o)
 .debug_str     0x000042cc       0x1a ../RawaPro_Linux_Cache_bsp//libhal_bsp.a(alt_tick.o)
 .debug_str     0x000042e6       0x12 ../RawaPro_Linux_Cache_bsp//libhal_bsp.a(alt_uncached_malloc.o)
 .debug_str     0x000042f8       0x12 ../RawaPro_Linux_Cache_bsp//libhal_bsp.a(alt_usleep.o)
 .debug_str     0x0000430a       0x12 ../RawaPro_Linux_Cache_bsp//libhal_bsp.a(alt_write.o)
 .debug_str     0x0000431c       0x12 ../RawaPro_Linux_Cache_bsp//libhal_bsp.a(alt_sys_init.o)
 .debug_str     0x0000432e       0x12 ../RawaPro_Linux_Cache_bsp//libhal_bsp.a(altera_avalon_jtag_uart_fd.o)
 .debug_str     0x00004340       0x1a ../RawaPro_Linux_Cache_bsp//libhal_bsp.a(altera_avalon_jtag_uart_init.o)
 .debug_str     0x0000435a       0x12 ../RawaPro_Linux_Cache_bsp//libhal_bsp.a(altera_avalon_jtag_uart_ioctl.o)
 .debug_str     0x0000436c       0x1a ../RawaPro_Linux_Cache_bsp//libhal_bsp.a(altera_avalon_jtag_uart_read.o)
 .debug_str     0x00004386       0x1a ../RawaPro_Linux_Cache_bsp//libhal_bsp.a(altera_avalon_jtag_uart_write.o)
 .debug_str     0x000043a0       0x1e ../RawaPro_Linux_Cache_bsp//libhal_bsp.a(altera_avalon_performance_counter.o)
 .debug_str     0x000043be       0x12 ../RawaPro_Linux_Cache_bsp//libhal_bsp.a(altera_avalon_timer_sc.o)
 .debug_str     0x000043d0       0x23 ../RawaPro_Linux_Cache_bsp//libhal_bsp.a(alt_alarm_start.o)
 .debug_str     0x000043f3       0x12 ../RawaPro_Linux_Cache_bsp//libhal_bsp.a(alt_busy_sleep.o)
 .debug_str     0x00004405       0x12 ../RawaPro_Linux_Cache_bsp//libhal_bsp.a(alt_dcache_flush.o)
 .debug_str     0x00004417       0x12 ../RawaPro_Linux_Cache_bsp//libhal_bsp.a(alt_dcache_flush_all.o)
 .debug_str     0x00004429       0x12 ../RawaPro_Linux_Cache_bsp//libhal_bsp.a(alt_dev_llist_insert.o)
 .debug_str     0x0000443b       0x12 ../RawaPro_Linux_Cache_bsp//libhal_bsp.a(alt_icache_flush_all.o)
 .debug_str     0x0000444d       0x12 ../RawaPro_Linux_Cache_bsp//libhal_bsp.a(alt_io_redirect.o)
 .debug_str     0x0000445f       0x12 ../RawaPro_Linux_Cache_bsp//libhal_bsp.a(alt_open.o)
 .debug_str     0x00004471       0x12 ../RawaPro_Linux_Cache_bsp//libhal_bsp.a(altera_nios2_qsys_irq.o)
 .debug_str     0x00004483       0x12 ../RawaPro_Linux_Cache_bsp//libhal_bsp.a(alt_find_dev.o)
 .debug_str     0x00004495       0x12 ../RawaPro_Linux_Cache_bsp//libhal_bsp.a(alt_find_file.o)
 .debug_str     0x000044a7       0x12 ../RawaPro_Linux_Cache_bsp//libhal_bsp.a(alt_get_fd.o)
 .debug_str     0x000044b9       0x12 ../RawaPro_Linux_Cache_bsp//libhal_bsp.a(alt_icache_flush.o)
 .debug_str     0x000044cb       0x3b /home/lordrafa/altera/12.1sp1/nios2eds/bin/gnu/H-i686-pc-linux-gnu/bin/../lib/gcc/nios2-elf/4.1.2/../../../../nios2-elf/lib/libc.a(lib_a-atexit.o)
                                0x1c4 (size before relaxing)
 .debug_str     0x00004506       0x39 /home/lordrafa/altera/12.1sp1/nios2eds/bin/gnu/H-i686-pc-linux-gnu/bin/../lib/gcc/nios2-elf/4.1.2/../../../../nios2-elf/lib/libc.a(lib_a-exit.o)
                                0x511 (size before relaxing)
 .debug_str     0x0000453f       0x42 /home/lordrafa/altera/12.1sp1/nios2eds/bin/gnu/H-i686-pc-linux-gnu/bin/../lib/gcc/nios2-elf/4.1.2/../../../../nios2-elf/lib/libc.a(lib_a-memcmp.o)
                                0x16f (size before relaxing)
 .debug_str     0x00004581       0x51 /home/lordrafa/altera/12.1sp1/nios2eds/bin/gnu/H-i686-pc-linux-gnu/bin/../lib/gcc/nios2-elf/4.1.2/../../../../nios2-elf/lib/libc.a(lib_a-__atexit.o)
                                0x529 (size before relaxing)
 .debug_str     0x000045d2       0x7b /home/lordrafa/altera/12.1sp1/nios2eds/bin/gnu/H-i686-pc-linux-gnu/bin/../lib/gcc/nios2-elf/4.1.2/../../../../nios2-elf/lib/libc.a(lib_a-__call_atexit.o)
                                0x553 (size before relaxing)

.debug_loc      0x00000000     0xf3f0
 *(.debug_loc)
 .debug_loc     0x00000000      0x12d obj/default/alt_tpo_lcd/alt_tpo_lcd.o
 .debug_loc     0x0000012d       0x81 obj/default/alt_video_display/alt_video_display.o
 .debug_loc     0x000001ae      0x183 obj/default/audio_tvdecoder/i2c.o
 .debug_loc     0x00000331       0x81 obj/default/audio_tvdecoder/tvdecoder_ctrl.o
 .debug_loc     0x000003b2      0x4ba obj/default/graphics_lib/simple_graphics.o
 .debug_loc     0x0000086c      0x12f obj/default/graphics_lib/simple_text.o
 .debug_loc     0x0000099b       0x56 obj/default/keyhandler/keyhandler.o
 .debug_loc     0x000009f1       0x2b obj/default/main.o
 .debug_loc     0x00000a1c       0x57 obj/default/sfs/sfs.o
 .debug_loc     0x00000a73      0x409 obj/default/framereader/vip_wrapper_for_c_func.o
 .debug_loc     0x00000e7c      0xd34 /home/lordrafa/altera/12.1sp1/nios2eds/bin/gnu/H-i686-pc-linux-gnu/bin/../lib/gcc/nios2-elf/4.1.2/../../../../nios2-elf/lib/libstdc++.a(eh_personality.o)
 .debug_loc     0x00001bb0       0xd5 /home/lordrafa/altera/12.1sp1/nios2eds/bin/gnu/H-i686-pc-linux-gnu/bin/../lib/gcc/nios2-elf/4.1.2/../../../../nios2-elf/lib/libstdc++.a(eh_terminate.o)
 .debug_loc     0x00001c85      0x1f3 /home/lordrafa/altera/12.1sp1/nios2eds/bin/gnu/H-i686-pc-linux-gnu/bin/../lib/gcc/nios2-elf/4.1.2/../../../../nios2-elf/lib/libstdc++.a(eh_catch.o)
 .debug_loc     0x00001e78       0x1e /home/lordrafa/altera/12.1sp1/nios2eds/bin/gnu/H-i686-pc-linux-gnu/bin/../lib/gcc/nios2-elf/4.1.2/../../../../nios2-elf/lib/libstdc++.a(del_op.o)
 .debug_loc     0x00001e96      0x16b /home/lordrafa/altera/12.1sp1/nios2eds/bin/gnu/H-i686-pc-linux-gnu/bin/../lib/gcc/nios2-elf/4.1.2/../../../../nios2-elf/lib/libstdc++.a(eh_throw.o)
 .debug_loc     0x00002001       0xd5 /home/lordrafa/altera/12.1sp1/nios2eds/bin/gnu/H-i686-pc-linux-gnu/bin/../lib/gcc/nios2-elf/4.1.2/../../../../nios2-elf/lib/libstdc++.a(eh_alloc.o)
 .debug_loc     0x000020d6       0x5d /home/lordrafa/altera/12.1sp1/nios2eds/bin/gnu/H-i686-pc-linux-gnu/bin/../lib/gcc/nios2-elf/4.1.2/../../../../nios2-elf/lib/libstdc++.a(new_op.o)
 .debug_loc     0x00002133       0x81 /home/lordrafa/altera/12.1sp1/nios2eds/bin/gnu/H-i686-pc-linux-gnu/bin/../lib/gcc/nios2-elf/4.1.2/../../../../nios2-elf/lib/libstdc++.a(eh_exception.o)
 .debug_loc     0x000021b4       0x3d /home/lordrafa/altera/12.1sp1/nios2eds/bin/gnu/H-i686-pc-linux-gnu/bin/../lib/gcc/nios2-elf/4.1.2/../../../../nios2-elf/lib/libstdc++.a(eh_call.o)
 .debug_loc     0x000021f1       0x81 /home/lordrafa/altera/12.1sp1/nios2eds/bin/gnu/H-i686-pc-linux-gnu/bin/../lib/gcc/nios2-elf/4.1.2/../../../../nios2-elf/lib/libstdc++.a(new_handler.o)
 .debug_loc     0x00002272      0x26f /home/lordrafa/altera/12.1sp1/nios2eds/bin/gnu/H-i686-pc-linux-gnu/bin/../lib/gcc/nios2-elf/4.1.2/../../../../nios2-elf/lib/libstdc++.a(class_type_info.o)
 .debug_loc     0x000024e1      0x390 /home/lordrafa/altera/12.1sp1/nios2eds/bin/gnu/H-i686-pc-linux-gnu/bin/../lib/gcc/nios2-elf/4.1.2/../../../../nios2-elf/lib/libstdc++.a(si_class_type_info.o)
 .debug_loc     0x00002871       0x13 /home/lordrafa/altera/12.1sp1/nios2eds/bin/gnu/H-i686-pc-linux-gnu/bin/../lib/gcc/nios2-elf/4.1.2/../../../../nios2-elf/lib/libstdc++.a(tinfo.o)
 .debug_loc     0x00002884      0x1d2 /home/lordrafa/altera/12.1sp1/nios2eds/bin/gnu/H-i686-pc-linux-gnu/bin/../lib/gcc/nios2-elf/4.1.2/libgcc.a(lib2-divmod.o)
 .debug_loc     0x00002a56      0x4c8 /home/lordrafa/altera/12.1sp1/nios2eds/bin/gnu/H-i686-pc-linux-gnu/bin/../lib/gcc/nios2-elf/4.1.2/libgcc.a(unwind-sjlj.o)
 .debug_loc     0x00002f1e       0x1f /home/lordrafa/altera/12.1sp1/nios2eds/bin/gnu/H-i686-pc-linux-gnu/bin/../lib/gcc/nios2-elf/4.1.2/../../../../nios2-elf/lib/libc.a(lib_a-abort.o)
 .debug_loc     0x00002f3d       0x3c /home/lordrafa/altera/12.1sp1/nios2eds/bin/gnu/H-i686-pc-linux-gnu/bin/../lib/gcc/nios2-elf/4.1.2/../../../../nios2-elf/lib/libc.a(lib_a-malloc.o)
 .debug_loc     0x00002f79      0xaeb /home/lordrafa/altera/12.1sp1/nios2eds/bin/gnu/H-i686-pc-linux-gnu/bin/../lib/gcc/nios2-elf/4.1.2/../../../../nios2-elf/lib/libc.a(lib_a-mallocr.o)
 .debug_loc     0x00003a64       0xca /home/lordrafa/altera/12.1sp1/nios2eds/bin/gnu/H-i686-pc-linux-gnu/bin/../lib/gcc/nios2-elf/4.1.2/../../../../nios2-elf/lib/libc.a(lib_a-memcpy.o)
 .debug_loc     0x00003b2e       0xa1 /home/lordrafa/altera/12.1sp1/nios2eds/bin/gnu/H-i686-pc-linux-gnu/bin/../lib/gcc/nios2-elf/4.1.2/../../../../nios2-elf/lib/libc.a(lib_a-memset.o)
 .debug_loc     0x00003bcf       0xcb /home/lordrafa/altera/12.1sp1/nios2eds/bin/gnu/H-i686-pc-linux-gnu/bin/../lib/gcc/nios2-elf/4.1.2/../../../../nios2-elf/lib/libc.a(lib_a-printf.o)
 .debug_loc     0x00003c9a       0xa2 /home/lordrafa/altera/12.1sp1/nios2eds/bin/gnu/H-i686-pc-linux-gnu/bin/../lib/gcc/nios2-elf/4.1.2/../../../../nios2-elf/lib/libc.a(lib_a-puts.o)
 .debug_loc     0x00003d3c       0x5b /home/lordrafa/altera/12.1sp1/nios2eds/bin/gnu/H-i686-pc-linux-gnu/bin/../lib/gcc/nios2-elf/4.1.2/../../../../nios2-elf/lib/libc.a(lib_a-sbrkr.o)
 .debug_loc     0x00003d97      0x3b4 /home/lordrafa/altera/12.1sp1/nios2eds/bin/gnu/H-i686-pc-linux-gnu/bin/../lib/gcc/nios2-elf/4.1.2/../../../../nios2-elf/lib/libc.a(lib_a-signal.o)
 .debug_loc     0x0000414b       0x8c /home/lordrafa/altera/12.1sp1/nios2eds/bin/gnu/H-i686-pc-linux-gnu/bin/../lib/gcc/nios2-elf/4.1.2/../../../../nios2-elf/lib/libc.a(lib_a-signalr.o)
 .debug_loc     0x000041d7      0x23b /home/lordrafa/altera/12.1sp1/nios2eds/bin/gnu/H-i686-pc-linux-gnu/bin/../lib/gcc/nios2-elf/4.1.2/../../../../nios2-elf/lib/libc.a(lib_a-snprintf.o)
 .debug_loc     0x00004412       0x8b /home/lordrafa/altera/12.1sp1/nios2eds/bin/gnu/H-i686-pc-linux-gnu/bin/../lib/gcc/nios2-elf/4.1.2/../../../../nios2-elf/lib/libc.a(lib_a-strcpy.o)
 .debug_loc     0x0000449d       0x3c /home/lordrafa/altera/12.1sp1/nios2eds/bin/gnu/H-i686-pc-linux-gnu/bin/../lib/gcc/nios2-elf/4.1.2/../../../../nios2-elf/lib/libc.a(lib_a-strlen.o)
 .debug_loc     0x000044d9     0x1e0d /home/lordrafa/altera/12.1sp1/nios2eds/bin/gnu/H-i686-pc-linux-gnu/bin/../lib/gcc/nios2-elf/4.1.2/../../../../nios2-elf/lib/libc.a(lib_a-vfprintf.o)
 .debug_loc     0x000062e6       0x7c /home/lordrafa/altera/12.1sp1/nios2eds/bin/gnu/H-i686-pc-linux-gnu/bin/../lib/gcc/nios2-elf/4.1.2/../../../../nios2-elf/lib/libc.a(lib_a-wsetup.o)
 .debug_loc     0x00006362     0x1dfa /home/lordrafa/altera/12.1sp1/nios2eds/bin/gnu/H-i686-pc-linux-gnu/bin/../lib/gcc/nios2-elf/4.1.2/../../../../nios2-elf/lib/libc.a(lib_a-dtoa.o)
 .debug_loc     0x0000815c      0x1f6 /home/lordrafa/altera/12.1sp1/nios2eds/bin/gnu/H-i686-pc-linux-gnu/bin/../lib/gcc/nios2-elf/4.1.2/../../../../nios2-elf/lib/libc.a(lib_a-fflush.o)
 .debug_loc     0x00008352      0x19f /home/lordrafa/altera/12.1sp1/nios2eds/bin/gnu/H-i686-pc-linux-gnu/bin/../lib/gcc/nios2-elf/4.1.2/../../../../nios2-elf/lib/libc.a(lib_a-findfp.o)
 .debug_loc     0x000084f1      0x4a7 /home/lordrafa/altera/12.1sp1/nios2eds/bin/gnu/H-i686-pc-linux-gnu/bin/../lib/gcc/nios2-elf/4.1.2/../../../../nios2-elf/lib/libc.a(lib_a-freer.o)
 .debug_loc     0x00008998      0x4e4 /home/lordrafa/altera/12.1sp1/nios2eds/bin/gnu/H-i686-pc-linux-gnu/bin/../lib/gcc/nios2-elf/4.1.2/../../../../nios2-elf/lib/libc.a(lib_a-fvwrite.o)
 .debug_loc     0x00008e7c      0x1d2 /home/lordrafa/altera/12.1sp1/nios2eds/bin/gnu/H-i686-pc-linux-gnu/bin/../lib/gcc/nios2-elf/4.1.2/../../../../nios2-elf/lib/libc.a(lib_a-fwalk.o)
 .debug_loc     0x0000904e       0xe1 /home/lordrafa/altera/12.1sp1/nios2eds/bin/gnu/H-i686-pc-linux-gnu/bin/../lib/gcc/nios2-elf/4.1.2/../../../../nios2-elf/lib/libc.a(lib_a-locale.o)
 .debug_loc     0x0000912f      0x11c /home/lordrafa/altera/12.1sp1/nios2eds/bin/gnu/H-i686-pc-linux-gnu/bin/../lib/gcc/nios2-elf/4.1.2/../../../../nios2-elf/lib/libc.a(lib_a-makebuf.o)
 .debug_loc     0x0000924b      0x106 /home/lordrafa/altera/12.1sp1/nios2eds/bin/gnu/H-i686-pc-linux-gnu/bin/../lib/gcc/nios2-elf/4.1.2/../../../../nios2-elf/lib/libc.a(lib_a-memchr.o)
 .debug_loc     0x00009351      0x117 /home/lordrafa/altera/12.1sp1/nios2eds/bin/gnu/H-i686-pc-linux-gnu/bin/../lib/gcc/nios2-elf/4.1.2/../../../../nios2-elf/lib/libc.a(lib_a-memmove.o)
 .debug_loc     0x00009468     0x14d6 /home/lordrafa/altera/12.1sp1/nios2eds/bin/gnu/H-i686-pc-linux-gnu/bin/../lib/gcc/nios2-elf/4.1.2/../../../../nios2-elf/lib/libc.a(lib_a-mprec.o)
 .debug_loc     0x0000a93e      0x8c0 /home/lordrafa/altera/12.1sp1/nios2eds/bin/gnu/H-i686-pc-linux-gnu/bin/../lib/gcc/nios2-elf/4.1.2/../../../../nios2-elf/lib/libc.a(lib_a-reallocr.o)
 .debug_loc     0x0000b1fe       0x36 /home/lordrafa/altera/12.1sp1/nios2eds/bin/gnu/H-i686-pc-linux-gnu/bin/../lib/gcc/nios2-elf/4.1.2/../../../../nios2-elf/lib/libc.a(lib_a-s_isinfd.o)
 .debug_loc     0x0000b234       0x18 /home/lordrafa/altera/12.1sp1/nios2eds/bin/gnu/H-i686-pc-linux-gnu/bin/../lib/gcc/nios2-elf/4.1.2/../../../../nios2-elf/lib/libc.a(lib_a-s_isnand.o)
 .debug_loc     0x0000b24c      0x21f /home/lordrafa/altera/12.1sp1/nios2eds/bin/gnu/H-i686-pc-linux-gnu/bin/../lib/gcc/nios2-elf/4.1.2/../../../../nios2-elf/lib/libc.a(lib_a-stdio.o)
 .debug_loc     0x0000b46b       0x65 /home/lordrafa/altera/12.1sp1/nios2eds/bin/gnu/H-i686-pc-linux-gnu/bin/../lib/gcc/nios2-elf/4.1.2/../../../../nios2-elf/lib/libc.a(lib_a-strcmp.o)
 .debug_loc     0x0000b4d0       0x97 /home/lordrafa/altera/12.1sp1/nios2eds/bin/gnu/H-i686-pc-linux-gnu/bin/../lib/gcc/nios2-elf/4.1.2/../../../../nios2-elf/lib/libc.a(lib_a-writer.o)
 .debug_loc     0x0000b567       0xe9 /home/lordrafa/altera/12.1sp1/nios2eds/bin/gnu/H-i686-pc-linux-gnu/bin/../lib/gcc/nios2-elf/4.1.2/../../../../nios2-elf/lib/libc.a(lib_a-callocr.o)
 .debug_loc     0x0000b650       0x5b /home/lordrafa/altera/12.1sp1/nios2eds/bin/gnu/H-i686-pc-linux-gnu/bin/../lib/gcc/nios2-elf/4.1.2/../../../../nios2-elf/lib/libc.a(lib_a-closer.o)
 .debug_loc     0x0000b6ab       0xe4 /home/lordrafa/altera/12.1sp1/nios2eds/bin/gnu/H-i686-pc-linux-gnu/bin/../lib/gcc/nios2-elf/4.1.2/../../../../nios2-elf/lib/libc.a(lib_a-fclose.o)
 .debug_loc     0x0000b78f       0x79 /home/lordrafa/altera/12.1sp1/nios2eds/bin/gnu/H-i686-pc-linux-gnu/bin/../lib/gcc/nios2-elf/4.1.2/../../../../nios2-elf/lib/libc.a(lib_a-fstatr.o)
 .debug_loc     0x0000b808       0x5b /home/lordrafa/altera/12.1sp1/nios2eds/bin/gnu/H-i686-pc-linux-gnu/bin/../lib/gcc/nios2-elf/4.1.2/../../../../nios2-elf/lib/libc.a(lib_a-isattyr.o)
 .debug_loc     0x0000b863       0x97 /home/lordrafa/altera/12.1sp1/nios2eds/bin/gnu/H-i686-pc-linux-gnu/bin/../lib/gcc/nios2-elf/4.1.2/../../../../nios2-elf/lib/libc.a(lib_a-lseekr.o)
 .debug_loc     0x0000b8fa       0x97 /home/lordrafa/altera/12.1sp1/nios2eds/bin/gnu/H-i686-pc-linux-gnu/bin/../lib/gcc/nios2-elf/4.1.2/../../../../nios2-elf/lib/libc.a(lib_a-readr.o)
 .debug_loc     0x0000b991      0xc12 /home/lordrafa/altera/12.1sp1/nios2eds/bin/gnu/H-i686-pc-linux-gnu/bin/../lib/gcc/nios2-elf/4.1.2/libgcc.a(_udivdi3.o)
 .debug_loc     0x0000c5a3      0xc26 /home/lordrafa/altera/12.1sp1/nios2eds/bin/gnu/H-i686-pc-linux-gnu/bin/../lib/gcc/nios2-elf/4.1.2/libgcc.a(_umoddi3.o)
 .debug_loc     0x0000d1c9      0x47a /home/lordrafa/altera/12.1sp1/nios2eds/bin/gnu/H-i686-pc-linux-gnu/bin/../lib/gcc/nios2-elf/4.1.2/libgcc.a(_addsub_df.o)
 .debug_loc     0x0000d643      0x3b4 /home/lordrafa/altera/12.1sp1/nios2eds/bin/gnu/H-i686-pc-linux-gnu/bin/../lib/gcc/nios2-elf/4.1.2/libgcc.a(_mul_df.o)
 .debug_loc     0x0000d9f7      0x1df /home/lordrafa/altera/12.1sp1/nios2eds/bin/gnu/H-i686-pc-linux-gnu/bin/../lib/gcc/nios2-elf/4.1.2/libgcc.a(_div_df.o)
 .debug_loc     0x0000dbd6       0x70 /home/lordrafa/altera/12.1sp1/nios2eds/bin/gnu/H-i686-pc-linux-gnu/bin/../lib/gcc/nios2-elf/4.1.2/libgcc.a(_eq_df.o)
 .debug_loc     0x0000dc46       0x70 /home/lordrafa/altera/12.1sp1/nios2eds/bin/gnu/H-i686-pc-linux-gnu/bin/../lib/gcc/nios2-elf/4.1.2/libgcc.a(_ne_df.o)
 .debug_loc     0x0000dcb6       0x70 /home/lordrafa/altera/12.1sp1/nios2eds/bin/gnu/H-i686-pc-linux-gnu/bin/../lib/gcc/nios2-elf/4.1.2/libgcc.a(_gt_df.o)
 .debug_loc     0x0000dd26       0x70 /home/lordrafa/altera/12.1sp1/nios2eds/bin/gnu/H-i686-pc-linux-gnu/bin/../lib/gcc/nios2-elf/4.1.2/libgcc.a(_ge_df.o)
 .debug_loc     0x0000dd96       0x70 /home/lordrafa/altera/12.1sp1/nios2eds/bin/gnu/H-i686-pc-linux-gnu/bin/../lib/gcc/nios2-elf/4.1.2/libgcc.a(_lt_df.o)
 .debug_loc     0x0000de06       0x9a /home/lordrafa/altera/12.1sp1/nios2eds/bin/gnu/H-i686-pc-linux-gnu/bin/../lib/gcc/nios2-elf/4.1.2/libgcc.a(_si_to_df.o)
 .debug_loc     0x0000dea0       0x8b /home/lordrafa/altera/12.1sp1/nios2eds/bin/gnu/H-i686-pc-linux-gnu/bin/../lib/gcc/nios2-elf/4.1.2/libgcc.a(_df_to_si.o)
 .debug_loc     0x0000df2b       0x5b /home/lordrafa/altera/12.1sp1/nios2eds/bin/gnu/H-i686-pc-linux-gnu/bin/../lib/gcc/nios2-elf/4.1.2/libgcc.a(_usi_to_df.o)
 .debug_loc     0x0000df86       0xc4 /home/lordrafa/altera/12.1sp1/nios2eds/bin/gnu/H-i686-pc-linux-gnu/bin/../lib/gcc/nios2-elf/4.1.2/libgcc.a(_muldi3.o)
 .debug_loc     0x0000e04a       0x1e /home/lordrafa/altera/12.1sp1/nios2eds/bin/gnu/H-i686-pc-linux-gnu/bin/../lib/gcc/nios2-elf/4.1.2/libgcc.a(_clzsi2.o)
 .debug_loc     0x0000e068      0x184 /home/lordrafa/altera/12.1sp1/nios2eds/bin/gnu/H-i686-pc-linux-gnu/bin/../lib/gcc/nios2-elf/4.1.2/libgcc.a(_pack_df.o)
 .debug_loc     0x0000e1ec       0xe5 /home/lordrafa/altera/12.1sp1/nios2eds/bin/gnu/H-i686-pc-linux-gnu/bin/../lib/gcc/nios2-elf/4.1.2/libgcc.a(_unpack_df.o)
 .debug_loc     0x0000e2d1       0x56 ../RawaPro_Linux_Cache_bsp//libhal_bsp.a(alt_close.o)
 .debug_loc     0x0000e327       0x2b ../RawaPro_Linux_Cache_bsp//libhal_bsp.a(alt_dev.o)
 .debug_loc     0x0000e352       0x56 ../RawaPro_Linux_Cache_bsp//libhal_bsp.a(alt_exit.o)
 .debug_loc     0x0000e3a8       0x56 ../RawaPro_Linux_Cache_bsp//libhal_bsp.a(alt_fstat.o)
 .debug_loc     0x0000e3fe       0x2b ../RawaPro_Linux_Cache_bsp//libhal_bsp.a(alt_getpid.o)
 .debug_loc     0x0000e429       0xac ../RawaPro_Linux_Cache_bsp//libhal_bsp.a(alt_iic.o)
 .debug_loc     0x0000e4d5       0x2b ../RawaPro_Linux_Cache_bsp//libhal_bsp.a(alt_iic_isr_register.o)
 .debug_loc     0x0000e500       0x2b ../RawaPro_Linux_Cache_bsp//libhal_bsp.a(alt_irq_handler.o)
 .debug_loc     0x0000e52b       0x57 ../RawaPro_Linux_Cache_bsp//libhal_bsp.a(alt_isatty.o)
 .debug_loc     0x0000e582       0x56 ../RawaPro_Linux_Cache_bsp//libhal_bsp.a(alt_kill.o)
 .debug_loc     0x0000e5d8       0x56 ../RawaPro_Linux_Cache_bsp//libhal_bsp.a(alt_load.o)
 .debug_loc     0x0000e62e       0x56 ../RawaPro_Linux_Cache_bsp//libhal_bsp.a(alt_lseek.o)
 .debug_loc     0x0000e684       0x2b ../RawaPro_Linux_Cache_bsp//libhal_bsp.a(alt_main.o)
 .debug_loc     0x0000e6af       0x56 ../RawaPro_Linux_Cache_bsp//libhal_bsp.a(alt_malloc_lock.o)
 .debug_loc     0x0000e705       0x56 ../RawaPro_Linux_Cache_bsp//libhal_bsp.a(alt_read.o)
 .debug_loc     0x0000e75b       0x2b ../RawaPro_Linux_Cache_bsp//libhal_bsp.a(alt_release_fd.o)
 .debug_loc     0x0000e786       0x2b ../RawaPro_Linux_Cache_bsp//libhal_bsp.a(alt_remap_uncached.o)
 .debug_loc     0x0000e7b1       0x2b ../RawaPro_Linux_Cache_bsp//libhal_bsp.a(alt_sbrk.o)
 .debug_loc     0x0000e7dc       0x56 ../RawaPro_Linux_Cache_bsp//libhal_bsp.a(alt_tick.o)
 .debug_loc     0x0000e832       0x2b ../RawaPro_Linux_Cache_bsp//libhal_bsp.a(alt_uncached_malloc.o)
 .debug_loc     0x0000e85d       0x2b ../RawaPro_Linux_Cache_bsp//libhal_bsp.a(alt_usleep.o)
 .debug_loc     0x0000e888       0x56 ../RawaPro_Linux_Cache_bsp//libhal_bsp.a(alt_write.o)
 .debug_loc     0x0000e8de       0x81 ../RawaPro_Linux_Cache_bsp//libhal_bsp.a(alt_sys_init.o)
 .debug_loc     0x0000e95f       0xac ../RawaPro_Linux_Cache_bsp//libhal_bsp.a(altera_avalon_jtag_uart_fd.o)
 .debug_loc     0x0000ea0b       0xac ../RawaPro_Linux_Cache_bsp//libhal_bsp.a(altera_avalon_jtag_uart_init.o)
 .debug_loc     0x0000eab7       0x2b ../RawaPro_Linux_Cache_bsp//libhal_bsp.a(altera_avalon_jtag_uart_ioctl.o)
 .debug_loc     0x0000eae2       0x2b ../RawaPro_Linux_Cache_bsp//libhal_bsp.a(altera_avalon_jtag_uart_read.o)
 .debug_loc     0x0000eb0d       0x2b ../RawaPro_Linux_Cache_bsp//libhal_bsp.a(altera_avalon_jtag_uart_write.o)
 .debug_loc     0x0000eb38       0xd7 ../RawaPro_Linux_Cache_bsp//libhal_bsp.a(altera_avalon_performance_counter.o)
 .debug_loc     0x0000ec0f       0x56 ../RawaPro_Linux_Cache_bsp//libhal_bsp.a(altera_avalon_timer_sc.o)
 .debug_loc     0x0000ec65       0x2b ../RawaPro_Linux_Cache_bsp//libhal_bsp.a(alt_alarm_start.o)
 .debug_loc     0x0000ec90       0x2b ../RawaPro_Linux_Cache_bsp//libhal_bsp.a(alt_busy_sleep.o)
 .debug_loc     0x0000ecbb       0x2b ../RawaPro_Linux_Cache_bsp//libhal_bsp.a(alt_dcache_flush.o)
 .debug_loc     0x0000ece6       0x2b ../RawaPro_Linux_Cache_bsp//libhal_bsp.a(alt_dcache_flush_all.o)
 .debug_loc     0x0000ed11       0x56 ../RawaPro_Linux_Cache_bsp//libhal_bsp.a(alt_dev_llist_insert.o)
 .debug_loc     0x0000ed67       0x2b ../RawaPro_Linux_Cache_bsp//libhal_bsp.a(alt_do_ctors.o)
 .debug_loc     0x0000ed92       0x2b ../RawaPro_Linux_Cache_bsp//libhal_bsp.a(alt_do_dtors.o)
 .debug_loc     0x0000edbd       0x2b ../RawaPro_Linux_Cache_bsp//libhal_bsp.a(alt_icache_flush_all.o)
 .debug_loc     0x0000ede8       0x56 ../RawaPro_Linux_Cache_bsp//libhal_bsp.a(alt_io_redirect.o)
 .debug_loc     0x0000ee3e       0x81 ../RawaPro_Linux_Cache_bsp//libhal_bsp.a(alt_open.o)
 .debug_loc     0x0000eebf       0x2b ../RawaPro_Linux_Cache_bsp//libhal_bsp.a(altera_nios2_qsys_irq.o)
 .debug_loc     0x0000eeea       0x2b ../RawaPro_Linux_Cache_bsp//libhal_bsp.a(alt_find_dev.o)
 .debug_loc     0x0000ef15       0x2b ../RawaPro_Linux_Cache_bsp//libhal_bsp.a(alt_find_file.o)
 .debug_loc     0x0000ef40       0x2b ../RawaPro_Linux_Cache_bsp//libhal_bsp.a(alt_get_fd.o)
 .debug_loc     0x0000ef6b       0x2b ../RawaPro_Linux_Cache_bsp//libhal_bsp.a(alt_icache_flush.o)
 .debug_loc     0x0000ef96       0x1e /home/lordrafa/altera/12.1sp1/nios2eds/bin/gnu/H-i686-pc-linux-gnu/bin/../lib/gcc/nios2-elf/4.1.2/../../../../nios2-elf/lib/libc.a(lib_a-atexit.o)
 .debug_loc     0x0000efb4       0x3d /home/lordrafa/altera/12.1sp1/nios2eds/bin/gnu/H-i686-pc-linux-gnu/bin/../lib/gcc/nios2-elf/4.1.2/../../../../nios2-elf/lib/libc.a(lib_a-exit.o)
 .debug_loc     0x0000eff1      0x114 /home/lordrafa/altera/12.1sp1/nios2eds/bin/gnu/H-i686-pc-linux-gnu/bin/../lib/gcc/nios2-elf/4.1.2/../../../../nios2-elf/lib/libc.a(lib_a-memcmp.o)
 .debug_loc     0x0000f105      0x120 /home/lordrafa/altera/12.1sp1/nios2eds/bin/gnu/H-i686-pc-linux-gnu/bin/../lib/gcc/nios2-elf/4.1.2/../../../../nios2-elf/lib/libc.a(lib_a-__atexit.o)
 .debug_loc     0x0000f225      0x1cb /home/lordrafa/altera/12.1sp1/nios2eds/bin/gnu/H-i686-pc-linux-gnu/bin/../lib/gcc/nios2-elf/4.1.2/../../../../nios2-elf/lib/libc.a(lib_a-__call_atexit.o)

.debug_macinfo
 *(.debug_macinfo)

.debug_weaknames
 *(.debug_weaknames)

.debug_funcnames
 *(.debug_funcnames)

.debug_typenames
 *(.debug_typenames)

.debug_varnames
 *(.debug_varnames)

.debug_alt_sim_info
                0x00000000       0x60
 *(.debug_alt_sim_info)
 .debug_alt_sim_info
                0x00000000       0x30 ../RawaPro_Linux_Cache_bsp//obj/HAL/src/crt0.o
 .debug_alt_sim_info
                0x00000030       0x30 ../RawaPro_Linux_Cache_bsp//libhal_bsp.a(alt_busy_sleep.o)
                0x01d00000                __alt_data_end = 0x1d00000
                0x01d00000                PROVIDE (__alt_stack_pointer, __alt_data_end)
                0x00036ef8                PROVIDE (__alt_stack_limit, __alt_stack_base)
                0x00036ef8                PROVIDE (__alt_heap_start, end)
                0x01d00000                PROVIDE (__alt_heap_limit, 0x1d00000)
OUTPUT(RawaPro_Linux_Cache.elf elf32-littlenios2)

.debug_ranges   0x00000000      0xbf0
 .debug_ranges  0x00000000       0x20 ../RawaPro_Linux_Cache_bsp//obj/HAL/src/crt0.o
 .debug_ranges  0x00000020       0x80 /home/lordrafa/altera/12.1sp1/nios2eds/bin/gnu/H-i686-pc-linux-gnu/bin/../lib/gcc/nios2-elf/4.1.2/../../../../nios2-elf/lib/libstdc++.a(eh_personality.o)
 .debug_ranges  0x000000a0       0x18 /home/lordrafa/altera/12.1sp1/nios2eds/bin/gnu/H-i686-pc-linux-gnu/bin/../lib/gcc/nios2-elf/4.1.2/../../../../nios2-elf/lib/libstdc++.a(eh_catch.o)
 .debug_ranges  0x000000b8       0x30 /home/lordrafa/altera/12.1sp1/nios2eds/bin/gnu/H-i686-pc-linux-gnu/bin/../lib/gcc/nios2-elf/4.1.2/../../../../nios2-elf/lib/libstdc++.a(eh_alloc.o)
 .debug_ranges  0x000000e8       0x18 /home/lordrafa/altera/12.1sp1/nios2eds/bin/gnu/H-i686-pc-linux-gnu/bin/../lib/gcc/nios2-elf/4.1.2/../../../../nios2-elf/lib/libstdc++.a(new_op.o)
 .debug_ranges  0x00000100       0x18 /home/lordrafa/altera/12.1sp1/nios2eds/bin/gnu/H-i686-pc-linux-gnu/bin/../lib/gcc/nios2-elf/4.1.2/../../../../nios2-elf/lib/libstdc++.a(class_type_info.o)
 .debug_ranges  0x00000118      0x168 /home/lordrafa/altera/12.1sp1/nios2eds/bin/gnu/H-i686-pc-linux-gnu/bin/../lib/gcc/nios2-elf/4.1.2/libgcc.a(unwind-sjlj.o)
 .debug_ranges  0x00000280       0x70 /home/lordrafa/altera/12.1sp1/nios2eds/bin/gnu/H-i686-pc-linux-gnu/bin/../lib/gcc/nios2-elf/4.1.2/../../../../nios2-elf/lib/libc.a(lib_a-mallocr.o)
 .debug_ranges  0x000002f0      0x168 /home/lordrafa/altera/12.1sp1/nios2eds/bin/gnu/H-i686-pc-linux-gnu/bin/../lib/gcc/nios2-elf/4.1.2/../../../../nios2-elf/lib/libc.a(lib_a-vfprintf.o)
 .debug_ranges  0x00000458       0x20 /home/lordrafa/altera/12.1sp1/nios2eds/bin/gnu/H-i686-pc-linux-gnu/bin/../lib/gcc/nios2-elf/4.1.2/../../../../nios2-elf/lib/libc.a(lib_a-fflush.o)
 .debug_ranges  0x00000478       0x28 /home/lordrafa/altera/12.1sp1/nios2eds/bin/gnu/H-i686-pc-linux-gnu/bin/../lib/gcc/nios2-elf/4.1.2/../../../../nios2-elf/lib/libc.a(lib_a-fvwrite.o)
 .debug_ranges  0x000004a0       0xa0 /home/lordrafa/altera/12.1sp1/nios2eds/bin/gnu/H-i686-pc-linux-gnu/bin/../lib/gcc/nios2-elf/4.1.2/../../../../nios2-elf/lib/libc.a(lib_a-fwalk.o)
 .debug_ranges  0x00000540      0x110 /home/lordrafa/altera/12.1sp1/nios2eds/bin/gnu/H-i686-pc-linux-gnu/bin/../lib/gcc/nios2-elf/4.1.2/../../../../nios2-elf/lib/libc.a(lib_a-reallocr.o)
 .debug_ranges  0x00000650       0x38 /home/lordrafa/altera/12.1sp1/nios2eds/bin/gnu/H-i686-pc-linux-gnu/bin/../lib/gcc/nios2-elf/4.1.2/../../../../nios2-elf/lib/libc.a(lib_a-callocr.o)
 .debug_ranges  0x00000688      0x188 /home/lordrafa/altera/12.1sp1/nios2eds/bin/gnu/H-i686-pc-linux-gnu/bin/../lib/gcc/nios2-elf/4.1.2/libgcc.a(_udivdi3.o)
 .debug_ranges  0x00000810      0x198 /home/lordrafa/altera/12.1sp1/nios2eds/bin/gnu/H-i686-pc-linux-gnu/bin/../lib/gcc/nios2-elf/4.1.2/libgcc.a(_umoddi3.o)
 .debug_ranges  0x000009a8       0x30 /home/lordrafa/altera/12.1sp1/nios2eds/bin/gnu/H-i686-pc-linux-gnu/bin/../lib/gcc/nios2-elf/4.1.2/libgcc.a(_addsub_df.o)
 .debug_ranges  0x000009d8       0x88 /home/lordrafa/altera/12.1sp1/nios2eds/bin/gnu/H-i686-pc-linux-gnu/bin/../lib/gcc/nios2-elf/4.1.2/libgcc.a(_mul_df.o)
 .debug_ranges  0x00000a60       0x50 /home/lordrafa/altera/12.1sp1/nios2eds/bin/gnu/H-i686-pc-linux-gnu/bin/../lib/gcc/nios2-elf/4.1.2/libgcc.a(_div_df.o)
 .debug_ranges  0x00000ab0       0x18 /home/lordrafa/altera/12.1sp1/nios2eds/bin/gnu/H-i686-pc-linux-gnu/bin/../lib/gcc/nios2-elf/4.1.2/libgcc.a(_usi_to_df.o)
 .debug_ranges  0x00000ac8       0x68 /home/lordrafa/altera/12.1sp1/nios2eds/bin/gnu/H-i686-pc-linux-gnu/bin/../lib/gcc/nios2-elf/4.1.2/libgcc.a(_muldi3.o)
 .debug_ranges  0x00000b30       0x28 /home/lordrafa/altera/12.1sp1/nios2eds/bin/gnu/H-i686-pc-linux-gnu/bin/../lib/gcc/nios2-elf/4.1.2/libgcc.a(_clzsi2.o)
 .debug_ranges  0x00000b58       0x28 /home/lordrafa/altera/12.1sp1/nios2eds/bin/gnu/H-i686-pc-linux-gnu/bin/../lib/gcc/nios2-elf/4.1.2/libgcc.a(_pack_df.o)
 .debug_ranges  0x00000b80       0x28 ../RawaPro_Linux_Cache_bsp//libhal_bsp.a(alt_irq_entry.o)
 .debug_ranges  0x00000ba8       0x30 ../RawaPro_Linux_Cache_bsp//libhal_bsp.a(alt_exception_entry.o)
 .debug_ranges  0x00000bd8       0x18 /home/lordrafa/altera/12.1sp1/nios2eds/bin/gnu/H-i686-pc-linux-gnu/bin/../lib/gcc/nios2-elf/4.1.2/../../../../nios2-elf/lib/libc.a(lib_a-__call_atexit.o)
