
RawaFirm.elf:     file format elf32-littlenios2
RawaFirm.elf
architecture: nios2, flags 0x00000112:
EXEC_P, HAS_SYMS, D_PAGED
start address 0x000001b4

Program Header:
    LOAD off    0x00001000 vaddr 0x00000000 paddr 0x00000000 align 2**12
         filesz 0x00000020 memsz 0x00000020 flags r-x
    LOAD off    0x00001020 vaddr 0x00000020 paddr 0x00000020 align 2**12
         filesz 0x0002f798 memsz 0x0002f798 flags r-x
    LOAD off    0x000307b8 vaddr 0x0002f7b8 paddr 0x00032de8 align 2**12
         filesz 0x00003630 memsz 0x00003630 flags rw-
    LOAD off    0x00034418 vaddr 0x00036418 paddr 0x00036418 align 2**12
         filesz 0x00000000 memsz 0x00000b0c flags rw-

Sections:
Idx Name          Size      VMA       LMA       File off  Algn
  0 .entry        00000020  00000000  00000000  00001000  2**5
                  CONTENTS, ALLOC, LOAD, READONLY, CODE
  1 .exceptions   00000194  00000020  00000020  00001020  2**2
                  CONTENTS, ALLOC, LOAD, READONLY, CODE
  2 .text         00015074  000001b4  000001b4  000011b4  2**2
                  CONTENTS, ALLOC, LOAD, READONLY, CODE
  3 .rodata       0001a590  00015228  00015228  00016228  2**2
                  CONTENTS, ALLOC, LOAD, READONLY, DATA
  4 .rwdata       00003630  0002f7b8  00032de8  000307b8  2**2
                  CONTENTS, ALLOC, LOAD, DATA, SMALL_DATA
  5 .bss          00000b0c  00036418  00036418  00034418  2**2
                  ALLOC, SMALL_DATA
  6 .comment      00000026  00000000  00000000  00033de8  2**0
                  CONTENTS, READONLY
  7 .debug_aranges 000011b0  00000000  00000000  00033e10  2**3
                  CONTENTS, READONLY, DEBUGGING
  8 .debug_pubnames 00002943  00000000  00000000  00034fc0  2**0
                  CONTENTS, READONLY, DEBUGGING
  9 .debug_info   000354c3  00000000  00000000  00037903  2**0
                  CONTENTS, READONLY, DEBUGGING
 10 .debug_abbrev 0000c148  00000000  00000000  0006cdc6  2**0
                  CONTENTS, READONLY, DEBUGGING
 11 .debug_line   0001d634  00000000  00000000  00078f0e  2**0
                  CONTENTS, READONLY, DEBUGGING
 12 .debug_frame  00002d6c  00000000  00000000  00096544  2**2
                  CONTENTS, READONLY, DEBUGGING
 13 .debug_str    00004620  00000000  00000000  000992b0  2**0
                  CONTENTS, READONLY, DEBUGGING
 14 .debug_loc    0000f3f0  00000000  00000000  0009d8d0  2**0
                  CONTENTS, READONLY, DEBUGGING
 15 .debug_alt_sim_info 00000060  00000000  00000000  000accc0  2**2
                  CONTENTS, READONLY, DEBUGGING
 16 .debug_ranges 00000bf0  00000000  00000000  000acd20  2**3
                  CONTENTS, READONLY, DEBUGGING
 17 .thread_model 00000003  00000000  00000000  000b49bf  2**0
                  CONTENTS, READONLY
 18 .cpu          00000003  00000000  00000000  000b49c2  2**0
                  CONTENTS, READONLY
 19 .qsys         00000001  00000000  00000000  000b49c5  2**0
                  CONTENTS, READONLY
 20 .simulation_enabled 00000001  00000000  00000000  000b49c6  2**0
                  CONTENTS, READONLY
 21 .sysid_hash   00000004  00000000  00000000  000b49c7  2**0
                  CONTENTS, READONLY
 22 .sysid_base   00000004  00000000  00000000  000b49cb  2**0
                  CONTENTS, READONLY
 23 .sysid_time   00000004  00000000  00000000  000b49cf  2**0
                  CONTENTS, READONLY
 24 .stderr_dev   00000009  00000000  00000000  000b49d3  2**0
                  CONTENTS, READONLY
 25 .stdin_dev    00000009  00000000  00000000  000b49dc  2**0
                  CONTENTS, READONLY
 26 .stdout_dev   00000009  00000000  00000000  000b49e5  2**0
                  CONTENTS, READONLY
 27 .sopc_system_name 00000010  00000000  00000000  000b49ee  2**0
                  CONTENTS, READONLY
 28 .quartus_project_dir 0000000e  00000000  00000000  000b49fe  2**0
                  CONTENTS, READONLY
 29 .jdi          00005d3c  00000000  00000000  000b4a0c  2**0
                  CONTENTS, READONLY
 30 .sopcinfo     000c9072  00000000  00000000  000ba748  2**0
                  CONTENTS, READONLY
SYMBOL TABLE:
00000000 l    d  .entry	00000000 .entry
00000020 l    d  .exceptions	00000000 .exceptions
000001b4 l    d  .text	00000000 .text
00015228 l    d  .rodata	00000000 .rodata
0002f7b8 l    d  .rwdata	00000000 .rwdata
00036418 l    d  .bss	00000000 .bss
00000000 l    d  .comment	00000000 .comment
00000000 l    d  .debug_aranges	00000000 .debug_aranges
00000000 l    d  .debug_pubnames	00000000 .debug_pubnames
00000000 l    d  .debug_info	00000000 .debug_info
00000000 l    d  .debug_abbrev	00000000 .debug_abbrev
00000000 l    d  .debug_line	00000000 .debug_line
00000000 l    d  .debug_frame	00000000 .debug_frame
00000000 l    d  .debug_str	00000000 .debug_str
00000000 l    d  .debug_loc	00000000 .debug_loc
00000000 l    d  .debug_alt_sim_info	00000000 .debug_alt_sim_info
00000000 l    d  .debug_ranges	00000000 .debug_ranges
000001fc l       .text	00000000 alt_after_alt_main
00000000 l    df *ABS*	00000000 alt_irq_handler.c
00000000 l    df *ABS*	00000000 alt_tpo_lcd.c
00000000 l    df *ABS*	00000000 alt_video_display.c
00000000 l    df *ABS*	00000000 i2c.c
00000d74 l     F .text	000000d0 i2c_setup_hw
00000e44 l     F .text	00000090 i2c_start
00000ed4 l     F .text	0000009c i2c_bit_write
00000f70 l     F .text	0000007c i2c_stop
00000fec l     F .text	00000084 i2c_ack_sense
00036418 l     O .bss	00000008 I2C_PIO
00000000 l    df *ABS*	00000000 tvdecoder_ctrl.c
0002f7b8 l     O .rwdata	00000018 adv7180_setting
00000000 l    df *ABS*	00000000 tahomabold_20.c
000153d8 l     O .rodata	000000b6 tahomabold_20_33
0001548e l     O .rodata	00000104 tahomabold_20_34
00015592 l     O .rodata	000001a0 tahomabold_20_35
00015732 l     O .rodata	00000152 tahomabold_20_36
00015884 l     O .rodata	00000270 tahomabold_20_37
00015af4 l     O .rodata	000001ba tahomabold_20_38
00015cae l     O .rodata	0000009c tahomabold_20_39
00015d4a l     O .rodata	000000ea tahomabold_20_40
00015e34 l     O .rodata	000000ea tahomabold_20_41
00015f1e l     O .rodata	00000152 tahomabold_20_42
00016070 l     O .rodata	000001a0 tahomabold_20_43
00016210 l     O .rodata	0000009c tahomabold_20_44
000162ac l     O .rodata	000000ea tahomabold_20_45
00016396 l     O .rodata	0000009c tahomabold_20_46
00016432 l     O .rodata	00000138 tahomabold_20_47
0001656a l     O .rodata	00000152 tahomabold_20_48
000166bc l     O .rodata	00000152 tahomabold_20_49
0001680e l     O .rodata	00000152 tahomabold_20_50
00016960 l     O .rodata	00000152 tahomabold_20_51
00016ab2 l     O .rodata	00000152 tahomabold_20_52
00016c04 l     O .rodata	00000152 tahomabold_20_53
00016d56 l     O .rodata	00000152 tahomabold_20_54
00016ea8 l     O .rodata	00000152 tahomabold_20_55
00016ffa l     O .rodata	00000152 tahomabold_20_56
0001714c l     O .rodata	00000152 tahomabold_20_57
0001729e l     O .rodata	000000b6 tahomabold_20_58
00017354 l     O .rodata	000000b6 tahomabold_20_59
0001740a l     O .rodata	000001a0 tahomabold_20_60
000175aa l     O .rodata	000001a0 tahomabold_20_61
0001774a l     O .rodata	000001a0 tahomabold_20_62
000178ea l     O .rodata	0000011e tahomabold_20_63
00017a08 l     O .rodata	000001d4 tahomabold_20_64
00017bdc l     O .rodata	0000016c tahomabold_20_65
00017d48 l     O .rodata	0000016c tahomabold_20_66
00017eb4 l     O .rodata	00000152 tahomabold_20_67
00018006 l     O .rodata	00000186 tahomabold_20_68
0001818c l     O .rodata	00000138 tahomabold_20_69
000182c4 l     O .rodata	00000138 tahomabold_20_70
000183fc l     O .rodata	00000186 tahomabold_20_71
00018582 l     O .rodata	00000186 tahomabold_20_72
00018708 l     O .rodata	00000104 tahomabold_20_73
0001880c l     O .rodata	00000104 tahomabold_20_74
00018910 l     O .rodata	0000016c tahomabold_20_75
00018a7c l     O .rodata	0000011e tahomabold_20_76
00018b9a l     O .rodata	000001d4 tahomabold_20_77
00018d6e l     O .rodata	00000186 tahomabold_20_78
00018ef4 l     O .rodata	00000186 tahomabold_20_79
0001907a l     O .rodata	00000152 tahomabold_20_80
000191cc l     O .rodata	00000186 tahomabold_20_81
00019352 l     O .rodata	00000186 tahomabold_20_82
000194d8 l     O .rodata	00000152 tahomabold_20_83
0001962a l     O .rodata	00000138 tahomabold_20_84
00019762 l     O .rodata	00000186 tahomabold_20_85
000198e8 l     O .rodata	0000016c tahomabold_20_86
00019a54 l     O .rodata	00000222 tahomabold_20_87
00019c76 l     O .rodata	0000016c tahomabold_20_88
00019de2 l     O .rodata	0000016c tahomabold_20_89
00019f4e l     O .rodata	00000138 tahomabold_20_90
0001a086 l     O .rodata	000000ea tahomabold_20_91
0001a170 l     O .rodata	00000138 tahomabold_20_92
0001a2a8 l     O .rodata	000000ea tahomabold_20_93
0001a392 l     O .rodata	000001a0 tahomabold_20_94
0001a532 l     O .rodata	00000152 tahomabold_20_95
0001a684 l     O .rodata	0000011e tahomabold_20_96
0001a7a2 l     O .rodata	00000138 tahomabold_20_97
0001a8da l     O .rodata	00000152 tahomabold_20_98
0001aa2c l     O .rodata	0000011e tahomabold_20_99
0001ab4a l     O .rodata	00000152 tahomabold_20_100
0001ac9c l     O .rodata	00000138 tahomabold_20_101
0001add4 l     O .rodata	000000d0 tahomabold_20_102
0001aea4 l     O .rodata	00000152 tahomabold_20_103
0001aff6 l     O .rodata	00000152 tahomabold_20_104
0001b148 l     O .rodata	0000009c tahomabold_20_105
0001b1e4 l     O .rodata	000000ea tahomabold_20_106
0001b2ce l     O .rodata	00000138 tahomabold_20_107
0001b406 l     O .rodata	0000009c tahomabold_20_108
0001b4a2 l     O .rodata	000001ee tahomabold_20_109
0001b690 l     O .rodata	00000152 tahomabold_20_110
0001b7e2 l     O .rodata	00000138 tahomabold_20_111
0001b91a l     O .rodata	00000152 tahomabold_20_112
0001ba6c l     O .rodata	00000152 tahomabold_20_113
0001bbbe l     O .rodata	000000ea tahomabold_20_114
0001bca8 l     O .rodata	00000104 tahomabold_20_115
0001bdac l     O .rodata	000000d0 tahomabold_20_116
0001be7c l     O .rodata	00000152 tahomabold_20_117
0001bfce l     O .rodata	00000138 tahomabold_20_118
0001c106 l     O .rodata	000001d4 tahomabold_20_119
0001c2da l     O .rodata	00000138 tahomabold_20_120
0001c412 l     O .rodata	00000138 tahomabold_20_121
0001c54a l     O .rodata	0000011e tahomabold_20_122
0001c668 l     O .rodata	00000138 tahomabold_20_123
0001c7a0 l     O .rodata	00000152 tahomabold_20_124
0001c8f2 l     O .rodata	00000138 tahomabold_20_125
0001ca2a l     O .rodata	000001a0 tahomabold_20_126
00000000 l    df *ABS*	00000000 tahomabold_32.c
0001cbca l     O .rodata	000001b8 tahomabold_32_33
0001cd82 l     O .rodata	00000280 tahomabold_32_34
0001d002 l     O .rodata	00000410 tahomabold_32_35
0001d412 l     O .rodata	00000320 tahomabold_32_36
0001d732 l     O .rodata	000005f0 tahomabold_32_37
0001dd22 l     O .rodata	00000410 tahomabold_32_38
0001e132 l     O .rodata	00000168 tahomabold_32_39
0001e29a l     O .rodata	00000258 tahomabold_32_40
0001e4f2 l     O .rodata	00000258 tahomabold_32_41
0001e74a l     O .rodata	00000320 tahomabold_32_42
0001ea6a l     O .rodata	00000410 tahomabold_32_43
0001ee7a l     O .rodata	00000190 tahomabold_32_44
0001f00a l     O .rodata	00000230 tahomabold_32_45
0001f23a l     O .rodata	00000190 tahomabold_32_46
0001f3ca l     O .rodata	000002d0 tahomabold_32_47
0001f69a l     O .rodata	00000320 tahomabold_32_48
0001f9ba l     O .rodata	00000320 tahomabold_32_49
0001fcda l     O .rodata	00000320 tahomabold_32_50
0001fffa l     O .rodata	00000320 tahomabold_32_51
0002031a l     O .rodata	00000320 tahomabold_32_52
0002063a l     O .rodata	00000320 tahomabold_32_53
0002095a l     O .rodata	00000320 tahomabold_32_54
00020c7a l     O .rodata	00000320 tahomabold_32_55
00020f9a l     O .rodata	00000320 tahomabold_32_56
000212ba l     O .rodata	00000320 tahomabold_32_57
000215da l     O .rodata	000001e0 tahomabold_32_58
000217ba l     O .rodata	000001e0 tahomabold_32_59
0002199a l     O .rodata	00000410 tahomabold_32_60
00021daa l     O .rodata	00000410 tahomabold_32_61
000221ba l     O .rodata	00000410 tahomabold_32_62
000225ca l     O .rodata	000002d0 tahomabold_32_63
0002289a l     O .rodata	00000488 tahomabold_32_64
00022d22 l     O .rodata	00000370 tahomabold_32_65
00023092 l     O .rodata	00000370 tahomabold_32_66
00023402 l     O .rodata	00000348 tahomabold_32_67
0002374a l     O .rodata	000003c0 tahomabold_32_68
00023b0a l     O .rodata	00000320 tahomabold_32_69
00023e2a l     O .rodata	000002f8 tahomabold_32_70
00024122 l     O .rodata	000003c0 tahomabold_32_71
000244e2 l     O .rodata	000003c0 tahomabold_32_72
000248a2 l     O .rodata	00000258 tahomabold_32_73
00024afa l     O .rodata	00000280 tahomabold_32_74
00024d7a l     O .rodata	00000398 tahomabold_32_75
00025112 l     O .rodata	000002d0 tahomabold_32_76
000253e2 l     O .rodata	00000488 tahomabold_32_77
0002586a l     O .rodata	000003e8 tahomabold_32_78
00025c52 l     O .rodata	000003e8 tahomabold_32_79
0002603a l     O .rodata	00000348 tahomabold_32_80
00026382 l     O .rodata	000003e8 tahomabold_32_81
0002676a l     O .rodata	000003c0 tahomabold_32_82
00026b2a l     O .rodata	00000320 tahomabold_32_83
00026e4a l     O .rodata	00000320 tahomabold_32_84
0002716a l     O .rodata	000003c0 tahomabold_32_85
0002752a l     O .rodata	00000370 tahomabold_32_86
0002789a l     O .rodata	00000528 tahomabold_32_87
00027dc2 l     O .rodata	00000370 tahomabold_32_88
00028132 l     O .rodata	00000370 tahomabold_32_89
000284a2 l     O .rodata	00000320 tahomabold_32_90
000287c2 l     O .rodata	00000258 tahomabold_32_91
00028a1a l     O .rodata	000002d0 tahomabold_32_92
00028cea l     O .rodata	00000258 tahomabold_32_93
00028f42 l     O .rodata	00000410 tahomabold_32_94
00029352 l     O .rodata	00000320 tahomabold_32_95
00029672 l     O .rodata	000002a8 tahomabold_32_96
0002991a l     O .rodata	000002f8 tahomabold_32_97
00029c12 l     O .rodata	00000320 tahomabold_32_98
00029f32 l     O .rodata	000002a8 tahomabold_32_99
0002a1da l     O .rodata	00000320 tahomabold_32_100
0002a4fa l     O .rodata	000002f8 tahomabold_32_101
0002a7f2 l     O .rodata	00000230 tahomabold_32_102
0002aa22 l     O .rodata	00000320 tahomabold_32_103
0002ad42 l     O .rodata	00000320 tahomabold_32_104
0002b062 l     O .rodata	00000190 tahomabold_32_105
0002b1f2 l     O .rodata	00000208 tahomabold_32_106
0002b3fa l     O .rodata	000002f8 tahomabold_32_107
0002b6f2 l     O .rodata	00000190 tahomabold_32_108
0002b882 l     O .rodata	000004d8 tahomabold_32_109
0002bd5a l     O .rodata	00000320 tahomabold_32_110
0002c07a l     O .rodata	00000320 tahomabold_32_111
0002c39a l     O .rodata	00000320 tahomabold_32_112
0002c6ba l     O .rodata	00000320 tahomabold_32_113
0002c9da l     O .rodata	00000230 tahomabold_32_114
0002cc0a l     O .rodata	00000280 tahomabold_32_115
0002ce8a l     O .rodata	00000208 tahomabold_32_116
0002d092 l     O .rodata	00000320 tahomabold_32_117
0002d3b2 l     O .rodata	000002f8 tahomabold_32_118
0002d6aa l     O .rodata	00000460 tahomabold_32_119
0002db0a l     O .rodata	000002f8 tahomabold_32_120
0002de02 l     O .rodata	000002d0 tahomabold_32_121
0002e0d2 l     O .rodata	000002a8 tahomabold_32_122
0002e37a l     O .rodata	00000320 tahomabold_32_123
0002e69a l     O .rodata	00000320 tahomabold_32_124
0002e9ba l     O .rodata	00000320 tahomabold_32_125
0002ecda l     O .rodata	00000410 tahomabold_32_126
00000000 l    df *ABS*	00000000 simple_graphics.c
00000000 l    df *ABS*	00000000 simple_text.c
00000000 l    df *ABS*	00000000 keyhandler.c
00000000 l    df *ABS*	00000000 main.c
00000000 l    df *ABS*	00000000 sfs.c
00000000 l    df *ABS*	00000000 vip_wrapper_for_c_func.cpp
00000000 l    df *ABS*	00000000 eh_personality.cc
00006758 l     F .text	00000030 _Z12read_uleb128PKhPj
00006788 l     F .text	00000054 _Z12read_sleb128PKhPi
000067dc l     F .text	0000009c _Z16get_adjusted_ptrPKSt9type_infoS1_PPv
00006878 l     F .text	000001d4 _Z28read_encoded_value_with_basehjPKhPj
00006a4c l     F .text	00000090 _Z21base_of_encoded_valuehP15_Unwind_Context
00006adc l     F .text	00000100 _Z17parse_lsda_headerP15_Unwind_ContextPKhP16lsda_header_info
00006bdc l     F .text	00000084 _Z15get_ttype_entryP16lsda_header_infoj
00006c60 l     F .text	00000084 _Z20check_exception_specP16lsda_header_infoPKSt9type_infoPvi
00000000 l    df *ABS*	00000000 eh_terminate.cc
00000000 l    df *ABS*	00000000 eh_term_handler.cc
00000000 l    df *ABS*	00000000 eh_catch.cc
00000000 l    df *ABS*	00000000 del_op.cc
00000000 l    df *ABS*	00000000 eh_throw.cc
00007728 l     F .text	00000060 _Z23__gxx_exception_cleanup19_Unwind_Reason_CodeP17_Unwind_Exception
00000000 l    df *ABS*	00000000 eh_alloc.cc
0003646c l     O .bss	00000800 emergency_buffer
00036424 l     O .bss	00000004 emergency_used
00000000 l    df *ABS*	00000000 new_op.cc
00000000 l    df *ABS*	00000000 eh_exception.cc
00000000 l    df *ABS*	00000000 eh_call.cc
00000000 l    df *ABS*	00000000 new_handler.cc
00000000 l    df *ABS*	00000000 eh_globals.cc
0003642c l     O .bss	00000008 eh_globals
00000000 l    df *ABS*	00000000 class_type_info.cc
00000000 l    df *ABS*	00000000 eh_unex_handler.cc
00000000 l    df *ABS*	00000000 si_class_type_info.cc
00000000 l    df *ABS*	00000000 tinfo.cc
00000000 l    df *ABS*	00000000 lib2-divmod.c
00007f20 l     F .text	0000007c udivmodsi4
00000000 l    df *ABS*	00000000 unwind-sjlj.c
00036434 l     O .bss	00000004 fc_static
0000812c l     F .text	00000100 _Unwind_ForcedUnwind_Phase2
00008244 l     F .text	000000cc _Unwind_RaiseException_Phase2
00008310 l     F .text	00000028 uw_install_context
00000000 l    df *ABS*	00000000 abort.c
00000000 l    df *ABS*	00000000 malloc.c
00000000 l    df *ABS*	00000000 mallocr.c
00000000 l    df *ABS*	00000000 memcpy.c
00000000 l    df *ABS*	00000000 memset.c
00000000 l    df *ABS*	00000000 printf.c
00000000 l    df *ABS*	00000000 puts.c
00000000 l    df *ABS*	00000000 sbrkr.c
00000000 l    df *ABS*	00000000 signal.c
00000000 l    df *ABS*	00000000 signalr.c
00000000 l    df *ABS*	00000000 snprintf.c
00000000 l    df *ABS*	00000000 strcpy.c
00000000 l    df *ABS*	00000000 strlen.c
00000000 l    df *ABS*	00000000 vfprintf.c
000095c8 l     F .text	00000058 __sprint_r
0002f4ee l     O .rodata	00000010 blanks.3452
0002f4de l     O .rodata	00000010 zeroes.3453
00000000 l    df *ABS*	00000000 wsetup.c
00000000 l    df *ABS*	00000000 dtoa.c
0000b62c l     F .text	00000218 quorem
00000000 l    df *ABS*	00000000 fflush.c
00000000 l    df *ABS*	00000000 findfp.c
0000d028 l     F .text	00000058 std
0000d134 l     F .text	00000008 __fp_lock
0000d13c l     F .text	00000008 __fp_unlock
00000000 l    df *ABS*	00000000 mallocr.c
00000000 l    df *ABS*	00000000 fvwrite.c
00000000 l    df *ABS*	00000000 fwalk.c
00000000 l    df *ABS*	00000000 impure.c
00031770 l     O .rwdata	00000400 impure_data
00000000 l    df *ABS*	00000000 int_errno.c
00000000 l    df *ABS*	00000000 locale.c
00032dbc l     O .rwdata	00000004 charset
0002f524 l     O .rodata	00000030 lconv
00000000 l    df *ABS*	00000000 makebuf.c
00000000 l    df *ABS*	00000000 memchr.c
00000000 l    df *ABS*	00000000 memmove.c
00000000 l    df *ABS*	00000000 mprec.c
0002f66c l     O .rodata	0000000c p05.2458
00000000 l    df *ABS*	00000000 mallocr.c
00000000 l    df *ABS*	00000000 s_isinfd.c
00000000 l    df *ABS*	00000000 s_isnand.c
00000000 l    df *ABS*	00000000 stdio.c
00000000 l    df *ABS*	00000000 strcmp.c
00000000 l    df *ABS*	00000000 writer.c
00000000 l    df *ABS*	00000000 mallocr.c
00000000 l    df *ABS*	00000000 closer.c
00000000 l    df *ABS*	00000000 fclose.c
00000000 l    df *ABS*	00000000 fstatr.c
00000000 l    df *ABS*	00000000 isattyr.c
00000000 l    df *ABS*	00000000 lseekr.c
00000000 l    df *ABS*	00000000 readr.c
00000000 l    df *ABS*	00000000 libgcc2.c
00000000 l    df *ABS*	00000000 libgcc2.c
00000000 l    df *ABS*	00000000 dp-bit.c
000109e0 l     F .text	00000410 _fpadd_parts
00000000 l    df *ABS*	00000000 dp-bit.c
00000000 l    df *ABS*	00000000 dp-bit.c
00000000 l    df *ABS*	00000000 dp-bit.c
00000000 l    df *ABS*	00000000 dp-bit.c
00000000 l    df *ABS*	00000000 dp-bit.c
00000000 l    df *ABS*	00000000 dp-bit.c
00000000 l    df *ABS*	00000000 dp-bit.c
00000000 l    df *ABS*	00000000 dp-bit.c
00000000 l    df *ABS*	00000000 dp-bit.c
00000000 l    df *ABS*	00000000 dp-bit.c
00000000 l    df *ABS*	00000000 dp-bit.c
00000000 l    df *ABS*	00000000 libgcc2.c
00000000 l    df *ABS*	00000000 libgcc2.c
00000000 l    df *ABS*	00000000 libgcc2.c
00000000 l    df *ABS*	00000000 dp-bit.c
00000000 l    df *ABS*	00000000 dp-bit.c
00000000 l    df *ABS*	00000000 dp-bit.c
00000000 l    df *ABS*	00000000 alt_close.c
00012234 l     F .text	00000060 alt_get_errno
00000000 l    df *ABS*	00000000 alt_dev.c
00012294 l     F .text	0000002c alt_dev_null_write
00000000 l    df *ABS*	00000000 alt_errno.c
00000000 l    df *ABS*	00000000 alt_exit.c
000122c0 l     F .text	00000040 alt_sim_halt
00000000 l    df *ABS*	00000000 alt_fstat.c
000123f4 l     F .text	00000060 alt_get_errno
00000000 l    df *ABS*	00000000 alt_getpid.c
00000000 l    df *ABS*	00000000 alt_iic.c
00000000 l    df *ABS*	00000000 alt_iic_isr_register.c
00000000 l    df *ABS*	00000000 alt_irq_vars.c
00000000 l    df *ABS*	00000000 alt_isatty.c
00012800 l     F .text	00000060 alt_get_errno
00000000 l    df *ABS*	00000000 alt_kill.c
000129a0 l     F .text	00000060 alt_get_errno
00000000 l    df *ABS*	00000000 alt_load.c
00012a80 l     F .text	0000006c alt_load_section
00000000 l    df *ABS*	00000000 alt_lseek.c
00012bdc l     F .text	00000060 alt_get_errno
00000000 l    df *ABS*	00000000 alt_main.c
00000000 l    df *ABS*	00000000 alt_malloc_lock.c
00000000 l    df *ABS*	00000000 alt_read.c
00012e08 l     F .text	00000060 alt_get_errno
00000000 l    df *ABS*	00000000 alt_release_fd.c
00000000 l    df *ABS*	00000000 alt_remap_uncached.c
00000000 l    df *ABS*	00000000 alt_sbrk.c
00032ddc l     O .rwdata	00000004 heap_end
00000000 l    df *ABS*	00000000 alt_tick.c
00000000 l    df *ABS*	00000000 alt_uncached_malloc.c
00000000 l    df *ABS*	00000000 alt_usleep.c
00000000 l    df *ABS*	00000000 alt_write.c
0001331c l     F .text	00000060 alt_get_errno
00000000 l    df *ABS*	00000000 alt_sys_init.c
00031d24 l     O .rwdata	00001060 jtag_uart
00013420 l     F .text	00000038 alt_dev_reg
00000000 l    df *ABS*	00000000 altera_avalon_jtag_uart_fd.c
00000000 l    df *ABS*	00000000 altera_avalon_jtag_uart_init.c
00013660 l     F .text	00000228 altera_avalon_jtag_uart_irq
00013888 l     F .text	000000b0 altera_avalon_jtag_uart_timeout
00000000 l    df *ABS*	00000000 altera_avalon_jtag_uart_ioctl.c
00000000 l    df *ABS*	00000000 altera_avalon_jtag_uart_read.c
00000000 l    df *ABS*	00000000 altera_avalon_jtag_uart_write.c
00000000 l    df *ABS*	00000000 altera_avalon_performance_counter.c
00000000 l    df *ABS*	00000000 altera_avalon_timer_sc.c
0001408c l     F .text	00000070 alt_avalon_timer_sc_irq
00000000 l    df *ABS*	00000000 alt_alarm_start.c
00000000 l    df *ABS*	00000000 alt_busy_sleep.c
00000000 l    df *ABS*	00000000 alt_dcache_flush.c
00000000 l    df *ABS*	00000000 alt_dcache_flush_all.c
00000000 l    df *ABS*	00000000 alt_dev_llist_insert.c
0001459c l     F .text	00000060 alt_get_errno
00000000 l    df *ABS*	00000000 alt_do_ctors.c
00000000 l    df *ABS*	00000000 alt_do_dtors.c
00000000 l    df *ABS*	00000000 alt_icache_flush_all.c
00000000 l    df *ABS*	00000000 alt_io_redirect.c
000146f4 l     F .text	000000c4 alt_open_fd
00000000 l    df *ABS*	00000000 alt_open.c
00014830 l     F .text	000000dc alt_file_locked
00014a94 l     F .text	00000060 alt_get_errno
00000000 l    df *ABS*	00000000 altera_nios2_qsys_irq.c
00000000 l    df *ABS*	00000000 alt_find_dev.c
00000000 l    df *ABS*	00000000 alt_find_file.c
00000000 l    df *ABS*	00000000 alt_get_fd.c
00000000 l    df *ABS*	00000000 alt_icache_flush.c
00000000 l    df *ABS*	00000000 atexit.c
00000000 l    df *ABS*	00000000 exit.c
00000000 l    df *ABS*	00000000 memcmp.c
00000000 l    df *ABS*	00000000 __atexit.c
00000000 l    df *ABS*	00000000 __call_atexit.c
00015004 l     F .text	00000004 register_fini
00007788 g     F .text	00000040 __cxa_free_exception
00002558 g     F .text	0000032c vid_draw_horiz_line
00007ed0 g     F .text	00000008 _ZNKSt9type_info15__is_function_pEv
0000e56c g     F .text	00000094 _mprec_log10
00007438 g     F .text	00000018 _ZSt10unexpectedv
0000e658 g     F .text	00000088 __any_on
0000fcf4 g     F .text	00000070 _isatty_r
0002f644 g     O .rodata	00000028 __mprec_tinytens
00012c3c g     F .text	0000006c alt_main
000094c8 g     F .text	0000008c strcpy
00008ee4 g     F .text	000000a0 _puts_r
00036c94 g     O .bss	00000100 alt_irq
0000fd64 g     F .text	00000078 _lseek_r
00002970 g     F .text	00000068 vid_color_convert16_24
000080dc g     F .text	00000014 _Unwind_GetIPInfo
00032de8 g       *ABS*	00000000 __flash_rwdata_start
00011500 g     F .text	00000088 __eqdf2
00007640 g     F .text	00000074 __cxa_rethrow
0000807c g     F .text	0000000c _Unwind_SjLj_Unregister
00007358 g     F .text	00000014 _ZSt14set_unexpectedPFvvE
000080cc g     F .text	00000010 _Unwind_GetIP
00036f24 g       *ABS*	00000000 __alt_heap_start
000092e4 g     F .text	00000074 _kill_r
00007b24 g     F .text	00000010 _ZNSt9bad_allocD2Ev
00008e6c g     F .text	00000044 printf
00007dcc g     F .text	00000034 _ZNK10__cxxabiv120__si_class_type_info20__do_find_public_srcElPKvPKNS_17__class_type_infoES2_
00009224 g     F .text	000000a0 _signal_r
0000f7c0 g     F .text	00000068 __sseek
0000d090 g     F .text	000000a4 __sinit
00014068 g     F .text	00000024 alt_get_cpu_freq
00007dbc g     F .text	00000010 _ZN10__cxxabiv120__si_class_type_infoD2Ev
0000dd68 g     F .text	00000084 _setlocale_r
0002f418  w    O .rodata	00000025 _ZTSN10__cxxabiv120__si_class_type_infoE
0000d190 g     F .text	00000068 __sfmoreglue
00012cc8 g     F .text	00000020 __malloc_unlock
00005a34 g     F .text	00000188 AGrises
00001df8 g     F .text	0000013c vid_draw_box
00007458 g     F .text	00000020 _ZSt18uncaught_exceptionv
00000554 g     F .text	000000a0 alt_tpo_lcd_write_config_register
000044b4 g     F .text	00000278 vid_print_string_alpha
00005f4c g     F .text	0000002c Frame_Reader_switch_to_pb1
00005fa4 g     F .text	00000060 Frame_Reader_set_frame_1_properties
0000e080 g     F .text	000000e0 memmove
00007a2c g     F .text	00000010 _ZNSt9exceptionD2Ev
0000d180 g     F .text	00000010 _cleanup
00009358 g     F .text	000000bc snprintf
0000e6e0 g     F .text	000000bc _Balloc
00006004 g     F .text	00000060 Frame_Reader_set_frame_0_properties
00030f50 g     O .rwdata	00000415 cour10_font_array
000062b4  w    F .text	00000064 _ZN7Vipcore16enable_interruptEi
000002e4 g     F .text	000000a0 alt_tpo_lcd_write_serial_bits
00011610 g     F .text	00000088 __gtdf2
0002f308  w    O .rodata	00000014 _ZTVSt13bad_exception
00001bc8 g     F .text	0000011c vid_move_block
00000000  w      *UND*	00000000 __errno
000050ac g     F .text	000000f4 vid_string_pixel_length_alpha
00001214 g     F .text	00000044 i2c_write
00000000 g     F .entry	0000001c __reset
00006264  w    F .text	00000050 _ZN7Vipcore8do_writeEii
0000810c g     F .text	00000008 _Unwind_GetRegionStart
00000020 g       *ABS*	00000000 __flash_exceptions_start
0000fc80 g     F .text	00000074 _fstat_r
000078fc g     F .text	00000100 _Znwm
00036444 g     O .bss	00000004 errno
000084dc g     F .text	00000080 _Unwind_Backtrace
00006718  w    F .text	00000040 _ZN12Frame_ReaderC1El
0003645c g     O .bss	00000004 alt_argv
0003ad84 g       *ABS*	00000000 _gp
000131cc g     F .text	00000030 usleep
00012454 g     F .text	00000020 getpid
00006ce4 g     F .text	00000180 __cxa_call_unexpected
00007450 g     F .text	00000008 __cxa_get_exception_ptr
00013168 g     F .text	00000064 alt_uncached_malloc
0000472c g     F .text	00000160 seperate_color_channels
00031ba4 g     O .rwdata	00000180 alt_fd_list
0000848c g     F .text	00000050 _Unwind_SjLj_ForcedUnwind
000080a0 g     F .text	00000014 _Unwind_GetCFA
00007344 g     F .text	00000014 _ZSt13set_terminatePFvvE
00014b14 g     F .text	00000094 alt_find_dev
00008d34 g     F .text	000000a0 memcpy
0000d174 g     F .text	0000000c _cleanup_r
000117a8 g     F .text	000000f8 __floatsidf
00003464 g     F .text	00000688 vid_round_corner_points
000147b8 g     F .text	00000078 alt_io_redirect
00011720 g     F .text	00000088 __ltdf2
00005314 g     F .text	00000068 init_button_pio
00015228 g       *ABS*	00000000 __DTOR_END__
00007c04 g     F .text	00000010 _ZN10__cxxabiv117__class_type_infoD1Ev
00008f84 g     F .text	00000014 puts
0000e4bc g     F .text	000000b0 __ratio
000016c4 g     F .text	0000014c vid_scroll_string_init
00013aa0 g     F .text	00000224 altera_avalon_jtag_uart_read
000085e0 g     F .text	00000014 malloc
00008eb0 g     F .text	00000034 _printf_r
0000805c g     F .text	00000008 __udivsi3
00012740 g     F .text	000000c0 isatty
00009008 g     F .text	000000cc _raise_r
0002f554 g     O .rodata	000000c8 __mprec_tens
0000dd44 g     F .text	00000008 __locale_charset
0000662c  w    F .text	00000064 _ZN7Vipcore10genericISREPv
00014d80 g     F .text	00000090 alt_icache_flush
00036438 g     O .bss	00000004 __malloc_top_pad
000092e0 g     F .text	00000004 _getpid_r
00014008 g     F .text	00000040 perf_get_num_starts
00032db8 g     O .rwdata	00000004 __mb_cur_max
0000dd4c g     F .text	0000000c _localeconv_r
0000edd8 g     F .text	0000003c __i2b
0000d728 g     F .text	0000049c __sfvwrite_r
00007c24 g     F .text	00000060 _ZNK10__cxxabiv117__class_type_info10__do_catchEPKSt9type_infoPPvj
0000915c g     F .text	000000b4 __sigtramp_r
00008f98 g     F .text	00000070 _sbrk_r
000065d4  w    F .text	00000058 _ZN7Vipcore4stopEb
0002f44c  w    O .rodata	00000020 _ZTVSt9type_info
0000fddc g     F .text	00000078 _read_r
000079fc g     F .text	00000010 _ZNKSt9exception4whatEv
0001442c g     F .text	00000078 alt_dcache_flush
00031b70 g     O .rwdata	0000000c __lc_ctype
00032dd0 g     O .rwdata	00000004 alt_max_fd
00011f38 g     F .text	00000138 __unpack_d
0000fb5c g     F .text	00000110 _fclose_r
0002f384  w    O .rodata	0000000c _ZTISt9bad_alloc
0000cff4 g     F .text	00000034 fflush
0003643c g     O .bss	00000004 __malloc_max_sbrked_mem
00030390 g     O .rwdata	00000bc0 tahomabold_32
00010e70 g     F .text	00000074 __adddf3
00000000 g       *ABS*	00000000 __alt_mem_ddr_sdram
00006098 g     F .text	00000034 Frame_Reader_stop
0002f3ec  w    O .rodata	0000002c _ZTVN10__cxxabiv120__si_class_type_infoE
0000e39c g     F .text	00000120 __b2d
00010430 g     F .text	000005b0 __umoddi3
00012aec g     F .text	000000f0 lseek
00007c84 g     F .text	00000030 _ZNK10__cxxabiv117__class_type_info11__do_upcastEPKS0_PKvRNS0_15__upcast_resultE
00007634 g     F .text	0000000c _ZdlPv
00032db4 g     O .rwdata	00000004 _global_impure_ptr
00002f2c g     F .text	0000016c vid_draw_circle
0000f154 g     F .text	000005f4 _realloc_r
00036f24 g       *ABS*	00000000 __bss_end
00012648 g     F .text	000000f8 alt_iic_isr_register
0001305c g     F .text	0000010c alt_tick
0000806c g     F .text	00000010 _Unwind_SjLj_Register
0000fe54 g     F .text	000005dc __udivdi3
0002f61c g     O .rodata	00000028 __mprec_bigtens
0000f034 g     F .text	00000120 __s2b
000085b4 g     F .text	00000018 abort
00002cb0 g     F .text	0000027c vid_draw_sloped_line
00011978 g     F .text	00000194 __floatunsidf
0000e2bc g     F .text	00000060 __mcmp
00007478 g     F .text	000000a4 __cxa_end_catch
00006598  w    F .text	0000003c _ZN7Vipcore10is_runningEv
0000d15c g     F .text	00000018 __fp_lock_all
00012600 g     F .text	00000048 alt_ic_irq_enabled
00007a80 g     F .text	00000010 _ZNSt13bad_exceptionD2Ev
00003098 g     F .text	000003cc vid_draw_round_corner_box
00012fc4 g     F .text	00000098 alt_alarm_stop
00036454 g     O .bss	00000004 alt_irq_active
00007410 g     F .text	00000018 _ZSt9terminatev
000063bc  w    F .text	00000038 _ZN12Frame_Reader13switch_to_pb1Ev
000000ec g     F .exceptions	000000c8 alt_irq_handler
00031b7c g     O .rwdata	00000028 alt_dev_null
0002f3bc  w    O .rodata	00000022 _ZTSN10__cxxabiv117__class_type_infoE
000144a4 g     F .text	00000044 alt_dcache_flush_all
0000e188 g     F .text	00000070 __hi0bits
00032d90  w    O .rwdata	00000008 _ZTISt9exception
000118a0 g     F .text	000000d8 __fixdfsi
000060cc g     F .text	00000114 Frame_Reader_init
00032de8 g       *ABS*	00000000 __ram_rwdata_end
00003f64 g     F .text	00000348 vid_draw_triangle
00007f00 g     F .text	00000010 _ZNSt9type_infoD1Ev
00032dc8 g     O .rwdata	00000008 alt_dev_list
00036428 g     O .bss	00000004 __new_handler
000131fc g     F .text	00000120 write
00007ef0 g     F .text	00000010 _ZNSt9type_infoD0Ev
00004388 g     F .text	0000012c CropImage16
0002f7b8 g       *ABS*	00000000 __ram_rodata_end
00012320 g     F .text	000000d4 fstat
00012860 g     F .text	00000140 kill
00001810 g     F .text	000003b8 vid_scroll_string
0000ef14 g     F .text	00000120 __pow5mult
00036448 g     O .bss	00000004 __nlocale_changed
00008064 g     F .text	00000008 __umodsi3
00007ee8 g     F .text	00000008 _ZNKSt9type_info11__do_upcastEPKN10__cxxabiv117__class_type_infoEPPv
000042ac g     F .text	000000dc CopyImage16
00036f24 g       *ABS*	00000000 end
0000822c g     F .text	00000018 _Unwind_DeleteException
000135a0 g     F .text	000000c0 altera_avalon_jtag_uart_init
00001f34 g     F .text	000000e8 vid_print_char
00005ee8 g     F .text	00000034 Frame_Reader_enable_interrupt
00000384 g     F .text	00000144 alt_tpo_lcd_read_serial_byte
00015224 g       *ABS*	00000000 __CTOR_LIST__
02000000 g       *ABS*	00000000 __alt_stack_pointer
000140fc g     F .text	00000090 alt_avalon_timer_sc_init
00011ba4 g     F .text	00000080 __clzsi2
00009414 g     F .text	000000b4 _snprintf_r
000014ac g     F .text	00000044 tv_decoder_write
00007b44 g     F .text	0000006c _ZNK10__cxxabiv117__class_type_info11__do_upcastEPKS0_PPv
00013cc4 g     F .text	00000240 altera_avalon_jtag_uart_write
00003b40 g     F .text	00000054 min3
000015cc g     F .text	000000bc vid_draw_line
0000d080 g     F .text	00000004 __sfp_lock_acquire
0002f330  w    O .rodata	00000012 _ZTSSt13bad_exception
0000df9c g     F .text	000000e4 memchr
00009620 g     F .text	00001eac ___vfprintf_internal_r
0000d414 g     F .text	00000314 _free_r
00001528 g     F .text	000000a4 tv_decoder_init
00015008 g     F .text	000001b0 __call_exitprocs
0003644c g     O .bss	00000004 __mlocale_changed
00001070 g     F .text	000001a4 i2c_write_with_err_chk
00032dac g     O .rwdata	00000004 __malloc_sbrk_base
000001b4 g     F .text	0000004c _start
00036464 g     O .bss	00000004 _alt_tick_rate
0002f46c  w    O .rodata	0000000d _ZTSSt9type_info
0000eaa4 g     F .text	0000014c __lshift
0002f360  w    O .rodata	00000014 _ZTVSt9bad_alloc
00036468 g     O .bss	00000004 _alt_nticks
000092c4 g     F .text	0000001c signal
00003bf8 g     F .text	0000010c vid_put_pixel_in_span_map
00012ce8 g     F .text	00000120 read
000133b0 g     F .text	00000070 alt_sys_init
00014ed0 g     F .text	00000134 __register_exitproc
0002f374  w    O .rodata	0000000d _ZTSSt9bad_alloc
00036420 g     O .bss	00000004 the_frame_reader
00012ec8 g     F .text	00000040 alt_remap_uncached
0000ebf0 g     F .text	000001e8 __multiply
000022cc g     F .text	0000028c vid_paint_block
00013938 g     F .text	00000074 altera_avalon_jtag_uart_close
0002f7b8 g       *ABS*	00000000 __ram_rwdata_start
00008394 g     F .text	000000f8 _Unwind_SjLj_RaiseException
00015228 g       *ABS*	00000000 __ram_rodata_start
00036c6c g     O .bss	00000028 __malloc_current_mallinfo
00008338 g     F .text	0000005c _Unwind_SjLj_Resume
0000e79c g     F .text	0000017c __d2b
00007f10 g     F .text	00000010 _ZNSt9type_infoD2Ev
000028d0 g     F .text	000000a0 vid_color_convert24_16
00007d00 g     F .text	00000078 _ZNK10__cxxabiv120__si_class_type_info11__do_upcastEPKNS_17__class_type_infoEPKvRNS1_15__upcast_resultE
00013458 g     F .text	00000058 altera_avalon_jtag_uart_read_fd
00014cc8 g     F .text	000000b8 alt_get_fd
000142e0 g     F .text	0000014c alt_busy_sleep
00012070 g     F .text	000000c8 __fpcmp_parts_d
0000faec g     F .text	00000070 _close_r
00004c3c g     F .text	000002c4 alpha_blending
00013f04 g     F .text	000000b0 perf_get_section_time
00014e5c g     F .text	00000074 memcmp
00013508 g     F .text	00000048 altera_avalon_jtag_uart_close_fd
000014f0 g     F .text	00000038 tv_decoder_read
00036f24 g       *ABS*	00000000 __alt_stack_base
00013550 g     F .text	00000050 altera_avalon_jtag_uart_ioctl_fd
00000200 g     F .text	0000007c alt_tpo_lcd_prepare_serial_bus
00007ae0 g     F .text	00000034 _ZNSt9bad_allocD0Ev
00007dac g     F .text	00000010 _ZN10__cxxabiv120__si_class_type_infoD1Ev
00000b90 g     F .text	00000064 alt_video_display_clear_screen
0000b4f0 g     F .text	0000013c __swsetup_r
0000855c g     F .text	00000058 _Unwind_SjLj_Resume_or_Rethrow
000112a8 g     F .text	00000258 __divdf3
0000d1f8 g     F .text	000000f0 __sfp
0000e600 g     F .text	00000058 __copybits
00007ec8 g     F .text	00000008 _ZNKSt9type_info14__is_pointer_pEv
00013fb4 g     F .text	00000054 perf_get_total_time
00031368 g     O .rwdata	00000408 __malloc_av_
0000d08c g     F .text	00000004 __sinit_lock_release
00006554  w    F .text	00000044 _ZN7Vipcore7do_readEi
00010ee4 g     F .text	000003c4 __muldf3
0000f8a4 g     F .text	00000060 __sread
0002f31c  w    O .rodata	00000014 _ZTVSt9exception
00014ba8 g     F .text	00000120 alt_find_file
00007bb0 g     F .text	00000020 _ZNK10__cxxabiv117__class_type_info20__do_find_public_srcElPKvPKS0_S2_
000144e8 g     F .text	000000b4 alt_dev_llist_insert
00012ca8 g     F .text	00000020 __malloc_lock
000029d8 g     F .text	000002d8 vid_copy_line_to_frame_buffer
00012f08 g     F .text	000000bc sbrk
0002f390  w    O .rodata	0000002c _ZTVN10__cxxabiv117__class_type_infoE
000076b4 g     F .text	00000074 __cxa_throw
0000cdf8 g     F .text	000001fc _fflush_r
000080f0 g     F .text	00000010 _Unwind_SetIP
0000fa38 g     F .text	000000b4 _calloc_r
0000636c  w    F .text	00000050 _ZN7Vipcore5startEv
00036418 g       *ABS*	00000000 __bss_start
00008dd4 g     F .text	00000098 memset
0000537c g     F .text	000006b8 main
00036460 g     O .bss	00000004 alt_envp
00036440 g     O .bss	00000004 __malloc_max_total_mem
000134b0 g     F .text	00000058 altera_avalon_jtag_uart_write_fd
00001258 g     F .text	00000218 i2c_read
00007b34 g     F .text	00000008 __cxa_get_globals_fast
0002f7d0 g     O .rwdata	00000bc0 tahomabold_20
0000027c g     F .text	00000068 alt_tpo_lcd_cleanup_serial_bus
00000bf4 g     F .text	00000180 alt_video_display_allocate_buffers_only_frame
0000f7b8 g     F .text	00000008 __sclose
02000000 g       *ABS*	00000000 __alt_heap_limit
00004f00 g     F .text	000001ac vid_print_char_alpha
0000fc6c g     F .text	00000014 fclose
00032d84 g     O .rwdata	00000004 cour10_font
00036d94 g     O .bss	00000190 _atexit0
0000b844 g     F .text	000015b4 _dtoa_r
000085f4 g     F .text	00000740 _malloc_r
00032dd4 g     O .rwdata	00000004 alt_errno
000005f4 g     F .text	00000410 alt_tpo_lcd_init
00006064 g     F .text	00000034 Frame_Reader_is_running
0000914c g     F .text	00000010 _init_signal
0002f3e0  w    O .rodata	0000000c _ZTIN10__cxxabiv117__class_type_infoE
0000dc8c g     F .text	000000b8 _fwalk
00007a70 g     F .text	00000010 _ZNSt13bad_exceptionD1Ev
00007f9c g     F .text	00000060 __divsi3
0002f678 g     O .rodata	00000014 __thenan_df
0000d2e8 g     F .text	0000012c _malloc_trim_r
00015228 g       *ABS*	00000000 __CTOR_END__
0000f904 g     F .text	000000bc strcmp
000049c4 g     F .text	00000278 read_from_frame
000004c8 g     F .text	0000008c alt_tpo_lcd_read_config_register
00015228 g       *ABS*	00000000 __flash_rodata_start
00015228 g       *ABS*	00000000 __DTOR_LIST__
00002244 g     F .text	00000088 vid_get_pixel
00011588 g     F .text	00000088 __nedf2
0001337c g     F .text	00000034 alt_irq_init
00012e68 g     F .text	00000060 alt_release_fd
00007d78 g     F .text	00000034 _ZN10__cxxabiv120__si_class_type_infoD0Ev
0002f68c g     O .rodata	00000100 __clz_tab
00036450 g     O .bss	00000004 _PathLocale
00014e10 g     F .text	00000014 atexit
0000f9c0 g     F .text	00000078 _write_r
0000ddec g     F .text	0000001c setlocale
00000a04 g     F .text	0000018c alt_video_display_only_frame_init
00008124 g     F .text	00000008 _Unwind_GetTextRelBase
00007a90 g     F .text	00000044 __cxa_call_terminate
00032db0 g     O .rwdata	00000004 _impure_ptr
00036458 g     O .bss	00000004 alt_argc
00014660 g     F .text	00000064 _do_dtors
00005f78 g     F .text	0000002c Frame_Reader_switch_to_pb0
00000020 g       .exceptions	00000000 alt_irq_entry
0000e31c g     F .text	00000080 __ulp
0000f748 g     F .text	00000040 __isinfd
00008114 g     F .text	00000008 _Unwind_FindEnclosingFunction
0000d144 g     F .text	00000018 __fp_unlock_all
00006318  w    F .text	00000054 _ZN7Vipcore4stopEv
00005bbc g     F .text	0000032c Sobel
00032dc0 g     O .rwdata	00000008 alt_fs_list
00001ce4 g     F .text	00000114 vid_print_string
00008100 g     F .text	0000000c _Unwind_GetLanguageSpecificData
0000751c g     F .text	00000118 __cxa_begin_catch
00007c14 g     F .text	00000010 _ZN10__cxxabiv117__class_type_infoD2Ev
00007428 g     F .text	00000010 _ZN10__cxxabiv112__unexpectedEPFvvE
00000020 g       *ABS*	00000000 __ram_exceptions_start
0000dd58 g     F .text	00000010 localeconv
00007a3c g     F .text	00000034 _ZNSt13bad_exceptionD0Ev
00032d8c g     O .rwdata	00000004 _ZN10__cxxabiv119__terminate_handlerE
00012474 g     F .text	00000050 alt_ic_isr_register
000077c8 g     F .text	00000134 __cxa_allocate_exception
0002f440  w    O .rodata	0000000c _ZTIN10__cxxabiv120__si_class_type_infoE
0000642c  w    F .text	00000094 _ZN12Frame_Reader22set_frame_1_propertiesEiiiiii
000063f4  w    F .text	00000038 _ZN12Frame_Reader13switch_to_pb0Ev
00007ad4 g     F .text	0000000c _ZSt15set_new_handlerPFvvE
00032de8 g       *ABS*	00000000 _edata
00036f24 g       *ABS*	00000000 _end
00032d98 g     O .rwdata	00000001 _ZSt7nothrow
00006e64 g     F .text	000004e0 __gxx_personality_sj0
00003aec g     F .text	00000054 max3
000001b4 g       *ABS*	00000000 __ram_exceptions_end
000139ac g     F .text	000000f4 altera_avalon_jtag_uart_ioctl
00007cb4 g     F .text	0000004c _ZNK10__cxxabiv117__class_type_info12__do_dyncastElNS0_10__sub_kindEPKS0_PKvS3_S5_RNS0_16__dyncast_resultE
00007a1c g     F .text	00000010 _ZNSt9exceptionD1Ev
00012560 g     F .text	000000a0 alt_ic_irq_disable
00002884 g     F .text	0000004c vid_merge_colors
0000f828 g     F .text	0000007c __swrite
00032da8 g     O .rwdata	00000004 __malloc_trim_threshold
00014048 g     F .text	00000020 alt_get_performance_counter_base
00014af4 g     F .text	00000020 altera_nios2_qsys_irq_init
00006690  w    F .text	00000088 _ZN7VipcoreC2EllPV10EventQueue
00014e24 g     F .text	00000038 exit
000080b4 g     F .text	00000018 _Unwind_SetGR
0000dbc4 g     F .text	000000c8 _fwalk_reent
0000e918 g     F .text	0000018c __mdiff
0000736c g     F .text	000000a4 _ZN10__cxxabiv111__terminateEPFvvE
00007ffc g     F .text	00000060 __modsi3
00007b14 g     F .text	00000010 _ZNSt9bad_allocD1Ev
02000000 g       *ABS*	00000000 __alt_data_end
00000020 g     F .exceptions	00000000 alt_exception
0000d084 g     F .text	00000004 __sfp_lock_release
00007e00 g     F .text	000000c8 _ZNK10__cxxabiv120__si_class_type_info12__do_dyncastElNS_17__class_type_info10__sub_kindEPKS1_PKvS4_S6_RNS1_16__dyncast_resultE
0002f344  w    O .rodata	0000000c _ZTISt13bad_exception
0000201c g     F .text	00000228 vid_set_pixel
000064c0  w    F .text	00000094 _ZN12Frame_Reader22set_frame_0_propertiesEiiiiii
0000f788 g     F .text	00000030 __isnand
00012300 g     F .text	00000020 _exit
0001418c g     F .text	00000154 alt_alarm_start
00001688 g     F .text	0000003c vid_scroll_string_quit
00001470 g     F .text	0000003c init_i2c
00011b0c g     F .text	00000098 __muldi3
00008088 g     F .text	00000018 _Unwind_GetGR
00007b3c g     F .text	00000008 __cxa_get_globals
0000de08 g     F .text	00000194 __smakebuf_r
00032d9c g     O .rwdata	00000004 _ZN10__cxxabiv120__unexpected_handlerE
00009554 g     F .text	00000074 strlen
000090e8 g     F .text	00000064 _init_signal_r
00032da0  w    O .rwdata	00000008 _ZTISt9type_info
0001490c g     F .text	00000188 open
00011698 g     F .text	00000088 __gedf2
0002f350  w    O .rodata	0000000d _ZTSSt9exception
00032d88 g     O .rwdata	00000001 fmask
00007a0c g     F .text	00000010 _ZNSt9exceptionD0Ev
000146c4 g     F .text	00000030 alt_icache_flush_all
0000811c g     F .text	00000008 _Unwind_GetDataRelBase
00032dd8 g     O .rwdata	00000004 alt_priority_mask
000124c4 g     F .text	0000009c alt_ic_irq_enable
0000b4cc g     F .text	00000024 __vfprintf_internal
000061e0  w    F .text	00000084 _ZNV10EventQueue4pushEP7Vipcorei
00010df0 g     F .text	00000080 __subdf3
00003d04 g     F .text	00000260 vid_bres_scan_edges
00005f1c g     F .text	00000030 Frame_Reader_start
0000e1f8 g     F .text	000000c4 __lo0bits
00032de0 g     O .rwdata	00000008 alt_alarm_list
00003b94 g     F .text	00000064 max_diff3
000145fc g     F .text	00000064 _do_ctors
00009210 g     F .text	00000014 __sigtramp
000051a0 g     F .text	00000174 handle_button_interrupts
0000488c g     F .text	00000138 merge_color_channels
00012138 g     F .text	000000fc close
00012a00 g     F .text	00000080 alt_load
00011c24 g     F .text	00000314 __pack_d
00007ed8 g     F .text	00000010 _ZNKSt9type_info10__do_catchEPKS_PPvj
000090d4 g     F .text	00000014 raise
000085cc g     F .text	00000014 free
0000d088 g     F .text	00000004 __sinit_lock_acquire
0000ee14 g     F .text	00000100 __multadd
00007bd0 g     F .text	00000034 _ZN10__cxxabiv117__class_type_infoD0Ev
0000e160 g     F .text	00000028 _Bfree



Disassembly of section .entry:

00000000 <__reset>:
#if NIOS2_ICACHE_SIZE > 0 && defined(ALT_ALLOW_CODE_AT_RESET) && !defined(ALT_SIM_OPTIMIZE)
    /* Assume the instruction cache size is always a power of two. */
#if NIOS2_ICACHE_SIZE > 0x8000
    movhi r2, %hi(NIOS2_ICACHE_SIZE)
#else
    movui r2, NIOS2_ICACHE_SIZE
   0:	00840014 	movui	r2,4096
#endif

0:
    initi r2
   4:	1001483a 	initi	r2
    addi r2, r2, -NIOS2_ICACHE_LINE_SIZE
   8:	10bff804 	addi	r2,r2,-32
    bgt r2, zero, 0b
   c:	00bffd16 	blt	zero,r2,4 <__reset+0x4>
 * Jump to the _start entry point in the .text section if reset code
 * is allowed or if optimizing for RTL simulation.
 */
#if defined(ALT_ALLOW_CODE_AT_RESET) || defined(ALT_SIM_OPTIMIZE)
    /* Jump to the _start entry point in the .text section. */
    movhi r1, %hi(_start)
  10:	00400034 	movhi	at,0
    ori r1, r1, %lo(_start)
  14:	08406d14 	ori	at,at,436
    jmp r1
  18:	0800683a 	jmp	at
  1c:	00000000 	call	0 <__reset>

Disassembly of section .exceptions:

00000020 <alt_exception>:
         * Process an exception.  For all exceptions we must preserve all
         * caller saved registers on the stack (See the Nios2 ABI
         * documentation for details).
         */

        addi  sp, sp, -76
  20:	deffed04 	addi	sp,sp,-76

#endif

#endif

        stw   ra,  0(sp)
  24:	dfc00015 	stw	ra,0(sp)
        /*
         * Leave a gap in the stack frame at 4(sp) for the muldiv handler to
         * store zero into.
         */

        stw   r1,   8(sp)
  28:	d8400215 	stw	at,8(sp)
        stw   r2,  12(sp)
  2c:	d8800315 	stw	r2,12(sp)
        stw   r3,  16(sp)
  30:	d8c00415 	stw	r3,16(sp)
        stw   r4,  20(sp)
  34:	d9000515 	stw	r4,20(sp)
        stw   r5,  24(sp)
  38:	d9400615 	stw	r5,24(sp)
        stw   r6,  28(sp)
  3c:	d9800715 	stw	r6,28(sp)
        stw   r7,  32(sp)
  40:	d9c00815 	stw	r7,32(sp)

        rdctl r5, estatus
  44:	000b307a 	rdctl	r5,estatus

        stw   r8,  36(sp)
  48:	da000915 	stw	r8,36(sp)
        stw   r9,  40(sp)
  4c:	da400a15 	stw	r9,40(sp)
        stw   r10, 44(sp)
  50:	da800b15 	stw	r10,44(sp)
        stw   r11, 48(sp)
  54:	dac00c15 	stw	r11,48(sp)
        stw   r12, 52(sp)
  58:	db000d15 	stw	r12,52(sp)
        stw   r13, 56(sp)
  5c:	db400e15 	stw	r13,56(sp)
        stw   r14, 60(sp)
  60:	db800f15 	stw	r14,60(sp)
        stw   r15, 64(sp)
  64:	dbc01015 	stw	r15,64(sp)
        /*
         * ea-4 contains the address of the instruction being executed
         * when the exception occured. For interrupt exceptions, we will
         * will be re-issue the isntruction. Store it in 72(sp)
         */
        stw   r5,  68(sp)  /* estatus */
  68:	d9401115 	stw	r5,68(sp)
        addi  r15, ea, -4  /* instruction that caused exception */
  6c:	ebffff04 	addi	r15,ea,-4
        stw   r15,  72(sp)
  70:	dbc01215 	stw	r15,72(sp)
#else
        /*
         * Test to see if the exception was a software exception or caused 
         * by an external interrupt, and vector accordingly.
         */
        rdctl r4, ipending
  74:	0009313a 	rdctl	r4,ipending
        andi  r2, r5, 1
  78:	2880004c 	andi	r2,r5,1
        beq   r2, zero, .Lnot_irq
  7c:	10000326 	beq	r2,zero,8c <alt_exception+0x6c>
        beq   r4, zero, .Lnot_irq
  80:	20000226 	beq	r4,zero,8c <alt_exception+0x6c>
        /*
         * Now that all necessary registers have been preserved, call 
         * alt_irq_handler() to process the interrupts.
         */

        call alt_irq_handler
  84:	00000ec0 	call	ec <alt_irq_handler>

        .section .exceptions.irqreturn, "xa"

        br    .Lexception_exit
  88:	00000306 	br	98 <alt_exception+0x78>
         * upon completion, so we write ea (address of instruction *after*
         * the one where the exception occured) into 72(sp). The actual
         * instruction that caused the exception is written in r2, which these
         * handlers will utilize.
         */
        stw   ea,  72(sp)  /* Don't re-issue */
  8c:	df401215 	stw	ea,72(sp)
        ldw   r2, -4(ea)   /* Instruction that caused exception */
  90:	e8bfff17 	ldw	r2,-4(ea)
#ifdef NIOS2_HAS_DEBUG_STUB
       /*
        *  Either tell the user now (if there is a debugger attached) or go into
        *  the debug monitor which will loop until a debugger is attached.
        */
        break
  94:	003da03a 	break	0
        /* 
         * Restore the saved registers, so that all general purpose registers 
         * have been restored to their state at the time the interrupt occured.
         */

        ldw   r5,  68(sp)
  98:	d9401117 	ldw	r5,68(sp)
        ldw   ea,  72(sp)  /* This becomes the PC once eret is executed */
  9c:	df401217 	ldw	ea,72(sp)
        ldw   ra,   0(sp)
  a0:	dfc00017 	ldw	ra,0(sp)

        wrctl estatus, r5
  a4:	2801707a 	wrctl	estatus,r5

        ldw   r1,   8(sp)
  a8:	d8400217 	ldw	at,8(sp)
        ldw   r2,  12(sp)
  ac:	d8800317 	ldw	r2,12(sp)
        ldw   r3,  16(sp)
  b0:	d8c00417 	ldw	r3,16(sp)
        ldw   r4,  20(sp)
  b4:	d9000517 	ldw	r4,20(sp)
        ldw   r5,  24(sp)
  b8:	d9400617 	ldw	r5,24(sp)
        ldw   r6,  28(sp)
  bc:	d9800717 	ldw	r6,28(sp)
        ldw   r7,  32(sp)
  c0:	d9c00817 	ldw	r7,32(sp)
#ifdef ALT_STACK_CHECK
        ldw   et, %gprel(alt_exception_old_stack_limit)(gp)
#endif
#endif

        ldw   r8,  36(sp)
  c4:	da000917 	ldw	r8,36(sp)
        ldw   r9,  40(sp)
  c8:	da400a17 	ldw	r9,40(sp)
        ldw   r10, 44(sp)
  cc:	da800b17 	ldw	r10,44(sp)
        ldw   r11, 48(sp)
  d0:	dac00c17 	ldw	r11,48(sp)
        ldw   r12, 52(sp)
  d4:	db000d17 	ldw	r12,52(sp)
        ldw   r13, 56(sp)
  d8:	db400e17 	ldw	r13,56(sp)
        ldw   r14, 60(sp)
  dc:	db800f17 	ldw	r14,60(sp)
        ldw   r15, 64(sp)
  e0:	dbc01017 	ldw	r15,64(sp)
#endif

        ldw   sp,  76(sp)

#else
        addi  sp, sp, 76
  e4:	dec01304 	addi	sp,sp,76

        /*
         * Return to the interrupted instruction.
         */

        eret
  e8:	ef80083a 	eret

000000ec <alt_irq_handler>:
 * instruction is present if the macro ALT_CI_INTERRUPT_VECTOR defined.
 */

void alt_irq_handler (void) __attribute__ ((section (".exceptions")));
void alt_irq_handler (void)
{
  ec:	defff904 	addi	sp,sp,-28
  f0:	dfc00615 	stw	ra,24(sp)
  f4:	df000515 	stw	fp,20(sp)
  f8:	df000504 	addi	fp,sp,20
#ifndef NIOS2_EIC_PRESENT
static ALT_INLINE alt_u32 ALT_ALWAYS_INLINE alt_irq_pending (void)
{
  alt_u32 active;

  NIOS2_READ_IPENDING (active);
  fc:	0005313a 	rdctl	r2,ipending
 100:	e0bffc15 	stw	r2,-16(fp)

  return active;
 104:	e0bffc17 	ldw	r2,-16(fp)
   * Consider the case where the high priority interupt is asserted during
   * the interrupt entry sequence for a lower priority interrupt to see why
   * this is the case.
   */

  active = alt_irq_pending ();
 108:	e0bfff15 	stw	r2,-4(fp)

  do
  {
    i = 0;
 10c:	e03ffd15 	stw	zero,-12(fp)
    mask = 1;
 110:	00800044 	movi	r2,1
 114:	e0bffe15 	stw	r2,-8(fp)
     * called to clear the interrupt condition.
     */

    do
    {
      if (active & mask)
 118:	e0ffff17 	ldw	r3,-4(fp)
 11c:	e0bffe17 	ldw	r2,-8(fp)
 120:	1884703a 	and	r2,r3,r2
 124:	1005003a 	cmpeq	r2,r2,zero
 128:	1000161e 	bne	r2,zero,184 <alt_irq_handler+0x98>
      { 
#ifdef ALT_ENHANCED_INTERRUPT_API_PRESENT
        alt_irq[i].handler(alt_irq[i].context); 
 12c:	e0bffd17 	ldw	r2,-12(fp)
 130:	00c000f4 	movhi	r3,3
 134:	18db2504 	addi	r3,r3,27796
 138:	100490fa 	slli	r2,r2,3
 13c:	10c5883a 	add	r2,r2,r3
 140:	11400017 	ldw	r5,0(r2)
 144:	e0bffd17 	ldw	r2,-12(fp)
 148:	00c000f4 	movhi	r3,3
 14c:	18db2504 	addi	r3,r3,27796
 150:	100490fa 	slli	r2,r2,3
 154:	10c5883a 	add	r2,r2,r3
 158:	10800104 	addi	r2,r2,4
 15c:	11000017 	ldw	r4,0(r2)
 160:	283ee83a 	callr	r5
#ifndef NIOS2_EIC_PRESENT
static ALT_INLINE alt_u32 ALT_ALWAYS_INLINE alt_irq_pending (void)
{
  alt_u32 active;

  NIOS2_READ_IPENDING (active);
 164:	0005313a 	rdctl	r2,ipending
 168:	e0bffb15 	stw	r2,-20(fp)

  return active;
 16c:	e0bffb17 	ldw	r2,-20(fp)
      mask <<= 1;
      i++;

    } while (1);

    active = alt_irq_pending ();
 170:	e0bfff15 	stw	r2,-4(fp)
    
  } while (active);
 174:	e0bfff17 	ldw	r2,-4(fp)
 178:	1004c03a 	cmpne	r2,r2,zero
 17c:	103fe31e 	bne	r2,zero,10c <alt_irq_handler+0x20>
 180:	00000706 	br	1a0 <alt_irq_handler+0xb4>
#else
        alt_irq[i].handler(alt_irq[i].context, i); 
#endif
        break;
      }
      mask <<= 1;
 184:	e0bffe17 	ldw	r2,-8(fp)
 188:	1085883a 	add	r2,r2,r2
 18c:	e0bffe15 	stw	r2,-8(fp)
      i++;
 190:	e0bffd17 	ldw	r2,-12(fp)
 194:	10800044 	addi	r2,r2,1
 198:	e0bffd15 	stw	r2,-12(fp)

    } while (1);
 19c:	003fde06 	br	118 <alt_irq_handler+0x2c>
  /*
   * Notify the operating system that interrupt processing is complete.
   */ 

  ALT_OS_INT_EXIT();
}
 1a0:	e037883a 	mov	sp,fp
 1a4:	dfc00117 	ldw	ra,4(sp)
 1a8:	df000017 	ldw	fp,0(sp)
 1ac:	dec00204 	addi	sp,sp,8
 1b0:	f800283a 	ret

Disassembly of section .text:

000001b4 <_start>:

    /* Assume the data cache size is always a power of two. */
#if NIOS2_DCACHE_SIZE > 0x8000
    movhi r2, %hi(NIOS2_DCACHE_SIZE)
#else
    movui r2, NIOS2_DCACHE_SIZE
     1b4:	00810014 	movui	r2,1024
#endif

0:
    initd 0(r2)
     1b8:	10000033 	initd	0(r2)
    addi r2, r2, -NIOS2_DCACHE_LINE_SIZE
     1bc:	10bff804 	addi	r2,r2,-32
    bgt r2, zero, 0b
     1c0:	00bffd16 	blt	zero,r2,1b8 <_start+0x4>
#if (NIOS2_NUM_OF_SHADOW_REG_SETS == 0)    
    /*
     * Now that the caches are initialized, set up the stack pointer.
     * The value provided by the linker is assumed to be correctly aligned.
     */
    movhi sp, %hi(__alt_stack_pointer)
     1c4:	06c08034 	movhi	sp,512
    ori sp, sp, %lo(__alt_stack_pointer)
     1c8:	dec00014 	ori	sp,sp,0

    /* Set up the global pointer. */
    movhi gp, %hi(_gp)
     1cc:	068000f4 	movhi	gp,3
    ori gp, gp, %lo(_gp)
     1d0:	d6ab6114 	ori	gp,gp,44420
 */
#ifndef ALT_SIM_OPTIMIZE
    /* Log that the BSS is about to be cleared. */
    ALT_LOG_PUTS(alt_log_msg_bss)

    movhi r2, %hi(__bss_start)
     1d4:	008000f4 	movhi	r2,3
    ori r2, r2, %lo(__bss_start)
     1d8:	10990614 	ori	r2,r2,25624

    movhi r3, %hi(__bss_end)
     1dc:	00c000f4 	movhi	r3,3
    ori r3, r3, %lo(__bss_end)
     1e0:	18dbc914 	ori	r3,r3,28452

    beq r2, r3, 1f
     1e4:	10c00326 	beq	r2,r3,1f4 <_start+0x40>

0:
    stw zero, (r2)
     1e8:	10000015 	stw	zero,0(r2)
    addi r2, r2, 4
     1ec:	10800104 	addi	r2,r2,4
    bltu r2, r3, 0b
     1f0:	10fffd36 	bltu	r2,r3,1e8 <_start+0x34>
     * section aren't defined until alt_load() has been called).
     */
    mov   et, zero
#endif

    call alt_load
     1f4:	0012a000 	call	12a00 <alt_load>

    /* Log that alt_main is about to be called. */
    ALT_LOG_PUTS(alt_log_msg_alt_main)

    /* Call the C entry point. It should never return. */
    call alt_main
     1f8:	0012c3c0 	call	12c3c <alt_main>

000001fc <alt_after_alt_main>:

    /* Wait in infinite loop in case alt_main does return. */
alt_after_alt_main:
    br alt_after_alt_main
     1fc:	003fff06 	br	1fc <alt_after_alt_main>

00000200 <alt_tpo_lcd_prepare_serial_bus>:
 *   and then asserts it.
 * - Sets clock (SCL) low
 * - Sets SDA to drive output (from high-Z)
 */
void alt_tpo_lcd_prepare_serial_bus(alt_tpo_lcd *lcd)
{
     200:	defffd04 	addi	sp,sp,-12
     204:	dfc00215 	stw	ra,8(sp)
     208:	df000115 	stw	fp,4(sp)
     20c:	df000104 	addi	fp,sp,4
     210:	e13fff15 	stw	r4,-4(fp)
  IOWR_ALTERA_AVALON_PIO_DATA(lcd->scen_pio, 0x1);
     214:	e0bfff17 	ldw	r2,-4(fp)
     218:	10800017 	ldw	r2,0(r2)
     21c:	1007883a 	mov	r3,r2
     220:	00800044 	movi	r2,1
     224:	18800035 	stwio	r2,0(r3)
  IOWR_ALTERA_AVALON_PIO_DATA(lcd->scl_pio, 0x0);
     228:	e0bfff17 	ldw	r2,-4(fp)
     22c:	10800117 	ldw	r2,4(r2)
     230:	10000035 	stwio	zero,0(r2)
  usleep(1);
     234:	01000044 	movi	r4,1
     238:	00131cc0 	call	131cc <usleep>
  IOWR_ALTERA_AVALON_PIO_DATA(lcd->scen_pio, 0x0);
     23c:	e0bfff17 	ldw	r2,-4(fp)
     240:	10800017 	ldw	r2,0(r2)
     244:	10000035 	stwio	zero,0(r2)
  IOWR_ALTERA_AVALON_PIO_DIRECTION(lcd->sda_pio, 
     248:	e0bfff17 	ldw	r2,-4(fp)
     24c:	10800217 	ldw	r2,8(r2)
     250:	10800104 	addi	r2,r2,4
     254:	1007883a 	mov	r3,r2
     258:	00800044 	movi	r2,1
     25c:	18800035 	stwio	r2,0(r3)
    ALTERA_AVALON_PIO_DIRECTION_OUTPUT);
  usleep(1); 
     260:	01000044 	movi	r4,1
     264:	00131cc0 	call	131cc <usleep>
}
     268:	e037883a 	mov	sp,fp
     26c:	dfc00117 	ldw	ra,4(sp)
     270:	df000017 	ldw	fp,0(sp)
     274:	dec00204 	addi	sp,sp,8
     278:	f800283a 	ret

0000027c <alt_tpo_lcd_cleanup_serial_bus>:
 * - Negates SCL/SCEN
 * - Does a final wait to allow-back-to-back register 
 *   operations via public API
 */
void alt_tpo_lcd_cleanup_serial_bus(alt_tpo_lcd *lcd)
{
     27c:	defffd04 	addi	sp,sp,-12
     280:	dfc00215 	stw	ra,8(sp)
     284:	df000115 	stw	fp,4(sp)
     288:	df000104 	addi	fp,sp,4
     28c:	e13fff15 	stw	r4,-4(fp)
  IOWR_ALTERA_AVALON_PIO_DATA(lcd->scl_pio, 0x0);
     290:	e0bfff17 	ldw	r2,-4(fp)
     294:	10800117 	ldw	r2,4(r2)
     298:	10000035 	stwio	zero,0(r2)
  usleep(1);
     29c:	01000044 	movi	r4,1
     2a0:	00131cc0 	call	131cc <usleep>
  IOWR_ALTERA_AVALON_PIO_DATA(lcd->scen_pio, 0x1);
     2a4:	e0bfff17 	ldw	r2,-4(fp)
     2a8:	10800017 	ldw	r2,0(r2)
     2ac:	1007883a 	mov	r3,r2
     2b0:	00800044 	movi	r2,1
     2b4:	18800035 	stwio	r2,0(r3)
  IOWR_ALTERA_AVALON_PIO_DIRECTION(lcd->sda_pio,
     2b8:	e0bfff17 	ldw	r2,-4(fp)
     2bc:	10800217 	ldw	r2,8(r2)
     2c0:	10800104 	addi	r2,r2,4
     2c4:	10000035 	stwio	zero,0(r2)
    ALTERA_AVALON_PIO_DIRECTION_INPUT);
  usleep(1);
     2c8:	01000044 	movi	r4,1
     2cc:	00131cc0 	call	131cc <usleep>
}
     2d0:	e037883a 	mov	sp,fp
     2d4:	dfc00117 	ldw	ra,4(sp)
     2d8:	df000017 	ldw	fp,0(sp)
     2dc:	dec00204 	addi	sp,sp,8
     2e0:	f800283a 	ret

000002e4 <alt_tpo_lcd_write_serial_bits>:
 * 
 * This routine leaves the serial clock signal high, and the 
 * SDA line set for output.
 */
void alt_tpo_lcd_write_serial_bits(alt_tpo_lcd *lcd, int num_bits, alt_u8 data)
{
     2e4:	defffa04 	addi	sp,sp,-24
     2e8:	dfc00515 	stw	ra,20(sp)
     2ec:	df000415 	stw	fp,16(sp)
     2f0:	df000404 	addi	fp,sp,16
     2f4:	e13ffd15 	stw	r4,-12(fp)
     2f8:	e17ffe15 	stw	r5,-8(fp)
     2fc:	e1bfff05 	stb	r6,-4(fp)
  alt_u8 to_transmit;
  
  while(num_bits--) {
     300:	00001506 	br	358 <alt_tpo_lcd_write_serial_bits+0x74>
    to_transmit = ((data >> num_bits) & 0x1);
     304:	e0ffff03 	ldbu	r3,-4(fp)
     308:	e0bffe17 	ldw	r2,-8(fp)
     30c:	1885d83a 	sra	r2,r3,r2
     310:	1080004c 	andi	r2,r2,1
     314:	e0bffc05 	stb	r2,-16(fp)

    /* Set clock low; Write TX bit & wait */
    IOWR_ALTERA_AVALON_PIO_DATA(lcd->scl_pio, 0x0);
     318:	e0bffd17 	ldw	r2,-12(fp)
     31c:	10800117 	ldw	r2,4(r2)
     320:	10000035 	stwio	zero,0(r2)
    IOWR_ALTERA_AVALON_PIO_DATA(lcd->sda_pio, to_transmit);
     324:	e0bffd17 	ldw	r2,-12(fp)
     328:	10800217 	ldw	r2,8(r2)
     32c:	e0fffc03 	ldbu	r3,-16(fp)
     330:	10c00035 	stwio	r3,0(r2)
    usleep(1);
     334:	01000044 	movi	r4,1
     338:	00131cc0 	call	131cc <usleep>
    
    /* Set clock high & wait */
    IOWR_ALTERA_AVALON_PIO_DATA(lcd->scl_pio, 0x1);
     33c:	e0bffd17 	ldw	r2,-12(fp)
     340:	10800117 	ldw	r2,4(r2)
     344:	1007883a 	mov	r3,r2
     348:	00800044 	movi	r2,1
     34c:	18800035 	stwio	r2,0(r3)
    usleep(1);
     350:	01000044 	movi	r4,1
     354:	00131cc0 	call	131cc <usleep>
 */
void alt_tpo_lcd_write_serial_bits(alt_tpo_lcd *lcd, int num_bits, alt_u8 data)
{
  alt_u8 to_transmit;
  
  while(num_bits--) {
     358:	e0bffe17 	ldw	r2,-8(fp)
     35c:	10bfffc4 	addi	r2,r2,-1
     360:	e0bffe15 	stw	r2,-8(fp)
     364:	e0bffe17 	ldw	r2,-8(fp)
     368:	10bfffd8 	cmpnei	r2,r2,-1
     36c:	103fe51e 	bne	r2,zero,304 <alt_tpo_lcd_write_serial_bits+0x20>
    
    /* Set clock high & wait */
    IOWR_ALTERA_AVALON_PIO_DATA(lcd->scl_pio, 0x1);
    usleep(1);
  }
}
     370:	e037883a 	mov	sp,fp
     374:	dfc00117 	ldw	ra,4(sp)
     378:	df000017 	ldw	fp,0(sp)
     37c:	dec00204 	addi	sp,sp,8
     380:	f800283a 	ret

00000384 <alt_tpo_lcd_read_serial_byte>:
 * 
 * This routine leaves the serial clock signal high, and
 * SDA data pin tri-stated.
 */
alt_u8 alt_tpo_lcd_read_serial_byte(alt_tpo_lcd *lcd)
{
     384:	defffb04 	addi	sp,sp,-20
     388:	dfc00415 	stw	ra,16(sp)
     38c:	df000315 	stw	fp,12(sp)
     390:	df000304 	addi	fp,sp,12
     394:	e13fff15 	stw	r4,-4(fp)
  int i;
  alt_u8 read_data = 0x0;
     398:	e03ffd05 	stb	zero,-12(fp)
  
  /* Write "1" to indicate that this is a read command & toggle clock */
  IOWR_ALTERA_AVALON_PIO_DATA(lcd->scl_pio, 0x0);
     39c:	e0bfff17 	ldw	r2,-4(fp)
     3a0:	10800117 	ldw	r2,4(r2)
     3a4:	10000035 	stwio	zero,0(r2)
  IOWR_ALTERA_AVALON_PIO_DATA(lcd->sda_pio, 0x1);
     3a8:	e0bfff17 	ldw	r2,-4(fp)
     3ac:	10800217 	ldw	r2,8(r2)
     3b0:	1007883a 	mov	r3,r2
     3b4:	00800044 	movi	r2,1
     3b8:	18800035 	stwio	r2,0(r3)
  usleep(1);
     3bc:	01000044 	movi	r4,1
     3c0:	00131cc0 	call	131cc <usleep>
  IOWR_ALTERA_AVALON_PIO_DATA(lcd->scl_pio, 0x1);
     3c4:	e0bfff17 	ldw	r2,-4(fp)
     3c8:	10800117 	ldw	r2,4(r2)
     3cc:	1007883a 	mov	r3,r2
     3d0:	00800044 	movi	r2,1
     3d4:	18800035 	stwio	r2,0(r3)
  usleep(1);
     3d8:	01000044 	movi	r4,1
     3dc:	00131cc0 	call	131cc <usleep>
   
  /* Set SDA PIO to High-Z state & toggle clock */
  IOWR_ALTERA_AVALON_PIO_DIRECTION(lcd->sda_pio, 
     3e0:	e0bfff17 	ldw	r2,-4(fp)
     3e4:	10800217 	ldw	r2,8(r2)
     3e8:	10800104 	addi	r2,r2,4
     3ec:	10000035 	stwio	zero,0(r2)
    ALTERA_AVALON_PIO_DIRECTION_INPUT);
  
  IOWR_ALTERA_AVALON_PIO_DATA(lcd->scl_pio, 0x0);
     3f0:	e0bfff17 	ldw	r2,-4(fp)
     3f4:	10800117 	ldw	r2,4(r2)
     3f8:	10000035 	stwio	zero,0(r2)
  usleep(1);
     3fc:	01000044 	movi	r4,1
     400:	00131cc0 	call	131cc <usleep>
  IOWR_ALTERA_AVALON_PIO_DATA(lcd->scl_pio, 0x1);
     404:	e0bfff17 	ldw	r2,-4(fp)
     408:	10800117 	ldw	r2,4(r2)
     40c:	1007883a 	mov	r3,r2
     410:	00800044 	movi	r2,1
     414:	18800035 	stwio	r2,0(r3)
  usleep(1);
     418:	01000044 	movi	r4,1
     41c:	00131cc0 	call	131cc <usleep>
  
  IOWR_ALTERA_AVALON_PIO_DATA(lcd->scl_pio, 0x0);
     420:	e0bfff17 	ldw	r2,-4(fp)
     424:	10800117 	ldw	r2,4(r2)
     428:	10000035 	stwio	zero,0(r2)
  usleep(1);
     42c:	01000044 	movi	r4,1
     430:	00131cc0 	call	131cc <usleep>

  
  /* Read in data byte */
  for(i=0; i<8; i++) {
     434:	e03ffe15 	stw	zero,-8(fp)
     438:	00001a06 	br	4a4 <alt_tpo_lcd_read_serial_byte+0x120>
    /* Read & shift data */
    read_data = read_data << 1;
     43c:	e0bffd03 	ldbu	r2,-12(fp)
     440:	1085883a 	add	r2,r2,r2
     444:	e0bffd05 	stb	r2,-12(fp)
    read_data |= (IORD_ALTERA_AVALON_PIO_DATA(lcd->sda_pio) & 0x01);
     448:	e0bfff17 	ldw	r2,-4(fp)
     44c:	10800217 	ldw	r2,8(r2)
     450:	10800037 	ldwio	r2,0(r2)
     454:	1080004c 	andi	r2,r2,1
     458:	1007883a 	mov	r3,r2
     45c:	e0bffd03 	ldbu	r2,-12(fp)
     460:	1884b03a 	or	r2,r3,r2
     464:	e0bffd05 	stb	r2,-12(fp)
    
    /* Toggle clock & wait */
    IOWR_ALTERA_AVALON_PIO_DATA(lcd->scl_pio, 0x1);
     468:	e0bfff17 	ldw	r2,-4(fp)
     46c:	10800117 	ldw	r2,4(r2)
     470:	1007883a 	mov	r3,r2
     474:	00800044 	movi	r2,1
     478:	18800035 	stwio	r2,0(r3)
    usleep(1);
     47c:	01000044 	movi	r4,1
     480:	00131cc0 	call	131cc <usleep>
    IOWR_ALTERA_AVALON_PIO_DATA(lcd->scl_pio, 0x0);
     484:	e0bfff17 	ldw	r2,-4(fp)
     488:	10800117 	ldw	r2,4(r2)
     48c:	10000035 	stwio	zero,0(r2)
    usleep(1);
     490:	01000044 	movi	r4,1
     494:	00131cc0 	call	131cc <usleep>
  IOWR_ALTERA_AVALON_PIO_DATA(lcd->scl_pio, 0x0);
  usleep(1);

  
  /* Read in data byte */
  for(i=0; i<8; i++) {
     498:	e0bffe17 	ldw	r2,-8(fp)
     49c:	10800044 	addi	r2,r2,1
     4a0:	e0bffe15 	stw	r2,-8(fp)
     4a4:	e0bffe17 	ldw	r2,-8(fp)
     4a8:	10800210 	cmplti	r2,r2,8
     4ac:	103fe31e 	bne	r2,zero,43c <alt_tpo_lcd_read_serial_byte+0xb8>
    usleep(1);
    IOWR_ALTERA_AVALON_PIO_DATA(lcd->scl_pio, 0x0);
    usleep(1);
  }
  
  return read_data;
     4b0:	e0bffd03 	ldbu	r2,-12(fp)
}
     4b4:	e037883a 	mov	sp,fp
     4b8:	dfc00117 	ldw	ra,4(sp)
     4bc:	df000017 	ldw	fp,0(sp)
     4c0:	dec00204 	addi	sp,sp,8
     4c4:	f800283a 	ret

000004c8 <alt_tpo_lcd_read_config_register>:
 * 
 * Return value:
 *   byte read from specified register address
 */
alt_u8 alt_tpo_lcd_read_config_register(alt_tpo_lcd *lcd, alt_u8 addr)
{
     4c8:	defff804 	addi	sp,sp,-32
     4cc:	dfc00715 	stw	ra,28(sp)
     4d0:	df000615 	stw	fp,24(sp)
     4d4:	df000604 	addi	fp,sp,24
     4d8:	e13ffe15 	stw	r4,-8(fp)
     4dc:	e17fff05 	stb	r5,-4(fp)
  alt_irq_context irq_state;
  alt_u8 read_data;
  
  alt_tpo_lcd_prepare_serial_bus(lcd);
     4e0:	e13ffe17 	ldw	r4,-8(fp)
     4e4:	00002000 	call	200 <alt_tpo_lcd_prepare_serial_bus>
static ALT_INLINE alt_irq_context ALT_ALWAYS_INLINE 
       alt_irq_disable_all (void)
{
  alt_irq_context context;

  NIOS2_READ_STATUS (context);
     4e8:	0005303a 	rdctl	r2,status
     4ec:	e0bffb15 	stw	r2,-20(fp)

  NIOS2_WRITE_STATUS (context & ~NIOS2_STATUS_PIE_MSK);
     4f0:	e0fffb17 	ldw	r3,-20(fp)
     4f4:	00bfff84 	movi	r2,-2
     4f8:	1884703a 	and	r2,r3,r2
     4fc:	1001703a 	wrctl	status,r2
  
  return context;
     500:	e0bffb17 	ldw	r2,-20(fp)
  /* 
   * Disable interrupts. The LCD requires a 40-60% duty cycle on the
   * serial clock signal, which we can only guarantee if this routine
   * runs uninterrupted.
   */
  irq_state = alt_irq_disable_all();
     504:	e0bffd15 	stw	r2,-12(fp)

  /* Transmit 6-bit address */
  alt_tpo_lcd_write_serial_bits(lcd, 6, addr);
     508:	e1bfff03 	ldbu	r6,-4(fp)
     50c:	e13ffe17 	ldw	r4,-8(fp)
     510:	01400184 	movi	r5,6
     514:	00002e40 	call	2e4 <alt_tpo_lcd_write_serial_bits>
  
  /* Do read */ 
  read_data = alt_tpo_lcd_read_serial_byte(lcd);
     518:	e13ffe17 	ldw	r4,-8(fp)
     51c:	00003840 	call	384 <alt_tpo_lcd_read_serial_byte>
     520:	e0bffc05 	stb	r2,-16(fp)
     524:	e0bffd17 	ldw	r2,-12(fp)
     528:	e0bffa15 	stw	r2,-24(fp)
  status &= ~NIOS2_STATUS_PIE_MSK;
  status |= (context & NIOS2_STATUS_PIE_MSK);
  
  NIOS2_WRITE_STATUS (status);
#else
  NIOS2_WRITE_STATUS (context);
     52c:	e0bffa17 	ldw	r2,-24(fp)
     530:	1001703a 	wrctl	status,r2
   
  /* Done. Restore previously enabled interrupts & clean-up bus */
  alt_irq_enable_all(irq_state);
  alt_tpo_lcd_cleanup_serial_bus(lcd);
     534:	e13ffe17 	ldw	r4,-8(fp)
     538:	000027c0 	call	27c <alt_tpo_lcd_cleanup_serial_bus>
  
  return read_data;
     53c:	e0bffc03 	ldbu	r2,-16(fp)
}
     540:	e037883a 	mov	sp,fp
     544:	dfc00117 	ldw	ra,4(sp)
     548:	df000017 	ldw	fp,0(sp)
     54c:	dec00204 	addi	sp,sp,8
     550:	f800283a 	ret

00000554 <alt_tpo_lcd_write_config_register>:
 *         base addresses of the LCD communication PIOs 
 *   addr: byte containing 6-bit LCD configuration register address in LSBs
 *   data: byte to write
 */
void alt_tpo_lcd_write_config_register(alt_tpo_lcd *lcd, alt_u8 addr, alt_u8 data)
{
     554:	defff804 	addi	sp,sp,-32
     558:	dfc00715 	stw	ra,28(sp)
     55c:	df000615 	stw	fp,24(sp)
     560:	df000604 	addi	fp,sp,24
     564:	e13ffd15 	stw	r4,-12(fp)
     568:	e17ffe05 	stb	r5,-8(fp)
     56c:	e1bfff05 	stb	r6,-4(fp)
  alt_irq_context irq_state;
  
  alt_tpo_lcd_prepare_serial_bus(lcd);  
     570:	e13ffd17 	ldw	r4,-12(fp)
     574:	00002000 	call	200 <alt_tpo_lcd_prepare_serial_bus>
static ALT_INLINE alt_irq_context ALT_ALWAYS_INLINE 
       alt_irq_disable_all (void)
{
  alt_irq_context context;

  NIOS2_READ_STATUS (context);
     578:	0005303a 	rdctl	r2,status
     57c:	e0bffb15 	stw	r2,-20(fp)

  NIOS2_WRITE_STATUS (context & ~NIOS2_STATUS_PIE_MSK);
     580:	e0fffb17 	ldw	r3,-20(fp)
     584:	00bfff84 	movi	r2,-2
     588:	1884703a 	and	r2,r3,r2
     58c:	1001703a 	wrctl	status,r2
  
  return context;
     590:	e0bffb17 	ldw	r2,-20(fp)
  /* 
   * Disable interrupts. The LCD requires a 40-60% duty cycle on the
   * serial clock signal, which we can only guarantee if this routine
   * runs uninterrupted.
   */
  irq_state = alt_irq_disable_all();
     594:	e0bffc15 	stw	r2,-16(fp)
   *  - 6-bit address
   *  - "00" to indicate write, (this would be "1" then high-Z turnaround 
   *    cycle for a read) 
   *  - 8-bit data
   */
  alt_tpo_lcd_write_serial_bits(lcd, 6, addr);
     598:	e1bffe03 	ldbu	r6,-8(fp)
     59c:	e13ffd17 	ldw	r4,-12(fp)
     5a0:	01400184 	movi	r5,6
     5a4:	00002e40 	call	2e4 <alt_tpo_lcd_write_serial_bits>
  alt_tpo_lcd_write_serial_bits(lcd, 2, (alt_u8) 0x0);
     5a8:	e13ffd17 	ldw	r4,-12(fp)
     5ac:	01400084 	movi	r5,2
     5b0:	000d883a 	mov	r6,zero
     5b4:	00002e40 	call	2e4 <alt_tpo_lcd_write_serial_bits>
  alt_tpo_lcd_write_serial_bits(lcd, 8, data);
     5b8:	e1bfff03 	ldbu	r6,-4(fp)
     5bc:	e13ffd17 	ldw	r4,-12(fp)
     5c0:	01400204 	movi	r5,8
     5c4:	00002e40 	call	2e4 <alt_tpo_lcd_write_serial_bits>
     5c8:	e0bffc17 	ldw	r2,-16(fp)
     5cc:	e0bffa15 	stw	r2,-24(fp)
  status &= ~NIOS2_STATUS_PIE_MSK;
  status |= (context & NIOS2_STATUS_PIE_MSK);
  
  NIOS2_WRITE_STATUS (status);
#else
  NIOS2_WRITE_STATUS (context);
     5d0:	e0bffa17 	ldw	r2,-24(fp)
     5d4:	1001703a 	wrctl	status,r2
    
  /* Done. Restore previously enabled interrupts & clean-up bus */
  alt_irq_enable_all(irq_state);
  alt_tpo_lcd_cleanup_serial_bus(lcd);
     5d8:	e13ffd17 	ldw	r4,-12(fp)
     5dc:	000027c0 	call	27c <alt_tpo_lcd_cleanup_serial_bus>
}
     5e0:	e037883a 	mov	sp,fp
     5e4:	dfc00117 	ldw	ra,4(sp)
     5e8:	df000017 	ldw	fp,0(sp)
     5ec:	dec00204 	addi	sp,sp,8
     5f0:	f800283a 	ret

000005f4 <alt_tpo_lcd_init>:
*  Purpose: This routine configures the LCD panel through its
*           serial interface port.
*
******************************************************************/
int alt_tpo_lcd_init(alt_tpo_lcd *lcd, alt_u32 width, alt_u32 height)
{
     5f4:	defff304 	addi	sp,sp,-52
     5f8:	dfc00c15 	stw	ra,48(sp)
     5fc:	df000b15 	stw	fp,44(sp)
     600:	df000b04 	addi	fp,sp,44
     604:	e13ffc15 	stw	r4,-16(fp)
     608:	e17ffd15 	stw	r5,-12(fp)
     60c:	e1bffe15 	stw	r6,-8(fp)
  alt_u8 data;

  /* Gamma curve */
  unsigned short gamma[12] = 
    { 106, 200, 289, 375, 460, 543, 625, 705, 785, 864, 942, 1020 }; 
     610:	00801a84 	movi	r2,106
     614:	e0bff58d 	sth	r2,-42(fp)
     618:	00803204 	movi	r2,200
     61c:	e0bff60d 	sth	r2,-40(fp)
     620:	00804844 	movi	r2,289
     624:	e0bff68d 	sth	r2,-38(fp)
     628:	00805dc4 	movi	r2,375
     62c:	e0bff70d 	sth	r2,-36(fp)
     630:	00807304 	movi	r2,460
     634:	e0bff78d 	sth	r2,-34(fp)
     638:	008087c4 	movi	r2,543
     63c:	e0bff80d 	sth	r2,-32(fp)
     640:	00809c44 	movi	r2,625
     644:	e0bff88d 	sth	r2,-30(fp)
     648:	0080b044 	movi	r2,705
     64c:	e0bff90d 	sth	r2,-28(fp)
     650:	0080c444 	movi	r2,785
     654:	e0bff98d 	sth	r2,-26(fp)
     658:	0080d804 	movi	r2,864
     65c:	e0bffa0d 	sth	r2,-24(fp)
     660:	0080eb84 	movi	r2,942
     664:	e0bffa8d 	sth	r2,-22(fp)
     668:	0080ff04 	movi	r2,1020
     66c:	e0bffb0d 	sth	r2,-20(fp)
  
  /* Sanity check: Read Chip ID/Version */
  data = alt_tpo_lcd_read_config_register(lcd, ALT_TPO_LCD_ADDR_CHIP_ID);
     670:	e13ffc17 	ldw	r4,-16(fp)
     674:	01400044 	movi	r5,1
     678:	00004c80 	call	4c8 <alt_tpo_lcd_read_config_register>
     67c:	e0bff505 	stb	r2,-44(fp)

  /* Mask off "version" bits to only examine chip ID. Chip ID is high nibble */
  data &= ALT_TPO_LCD_CHIP_ID_MASK;
     680:	00fffc04 	movi	r3,-16
     684:	e0bff503 	ldbu	r2,-44(fp)
     688:	10c4703a 	and	r2,r2,r3
     68c:	e0bff505 	stb	r2,-44(fp)

  if(data != ALT_TPO_LCD_CHIP_ID) {
     690:	e0bff503 	ldbu	r2,-44(fp)
     694:	10803020 	cmpeqi	r2,r2,192
     698:	10000b1e 	bne	r2,zero,6c8 <alt_tpo_lcd_init+0xd4>
    printf("[alt_tpo_lcd_init] Warning: Read incorrect chip ID.\n");
     69c:	01000074 	movhi	r4,1
     6a0:	21148a04 	addi	r4,r4,21032
     6a4:	0008f840 	call	8f84 <puts>
    printf("--> Expected 0x%x, read 0x%x\n", ALT_TPO_LCD_CHIP_ID, data);
     6a8:	e1bff503 	ldbu	r6,-44(fp)
     6ac:	01000074 	movhi	r4,1
     6b0:	21149704 	addi	r4,r4,21084
     6b4:	01403004 	movi	r5,192
     6b8:	0008e6c0 	call	8e6c <printf>
    printf("--> The gamma curve or other LCD register writes may not succeed.\n");
     6bc:	01000074 	movhi	r4,1
     6c0:	21149f04 	addi	r4,r4,21116
     6c4:	0008f840 	call	8f84 <puts>
  }
  
  /* Enable software-writable resolution. */
  data = alt_tpo_lcd_read_config_register(lcd, ALT_TPO_LCD_ADDR_RES_SEL_STBY);
     6c8:	e13ffc17 	ldw	r4,-16(fp)
     6cc:	014000c4 	movi	r5,3
     6d0:	00004c80 	call	4c8 <alt_tpo_lcd_read_config_register>
     6d4:	e0bff505 	stb	r2,-44(fp)
  data |= 0x80; /* Bit 7 = Enable SW control for resolution */
     6d8:	e0fff503 	ldbu	r3,-44(fp)
     6dc:	00bfe004 	movi	r2,-128
     6e0:	1884b03a 	or	r2,r3,r2
     6e4:	e0bff505 	stb	r2,-44(fp)
  alt_tpo_lcd_write_config_register(lcd, ALT_TPO_LCD_ADDR_RES_SEL_STBY, data);
     6e8:	e1bff503 	ldbu	r6,-44(fp)
     6ec:	e13ffc17 	ldw	r4,-16(fp)
     6f0:	014000c4 	movi	r5,3
     6f4:	00005540 	call	554 <alt_tpo_lcd_write_config_register>
  
  /* Set resolution */
  if(width == 800 && height == 480) {
     6f8:	e0bffd17 	ldw	r2,-12(fp)
     6fc:	1080c818 	cmpnei	r2,r2,800
     700:	1000081e 	bne	r2,zero,724 <alt_tpo_lcd_init+0x130>
     704:	e0bffe17 	ldw	r2,-8(fp)
     708:	10807818 	cmpnei	r2,r2,480
     70c:	1000051e 	bne	r2,zero,724 <alt_tpo_lcd_init+0x130>
    alt_tpo_lcd_write_config_register(
     710:	e13ffc17 	ldw	r4,-16(fp)
     714:	01400084 	movi	r5,2
     718:	018001c4 	movi	r6,7
     71c:	00005540 	call	554 <alt_tpo_lcd_write_config_register>
  data = alt_tpo_lcd_read_config_register(lcd, ALT_TPO_LCD_ADDR_RES_SEL_STBY);
  data |= 0x80; /* Bit 7 = Enable SW control for resolution */
  alt_tpo_lcd_write_config_register(lcd, ALT_TPO_LCD_ADDR_RES_SEL_STBY, data);
  
  /* Set resolution */
  if(width == 800 && height == 480) {
     720:	00001f06 	br	7a0 <alt_tpo_lcd_init+0x1ac>
    alt_tpo_lcd_write_config_register(
      lcd, ALT_TPO_LCD_ADDR_RESOLUTION, (alt_u8) 0x7);
  }
  else if(width == 640 && height == 480) {
     724:	e0bffd17 	ldw	r2,-12(fp)
     728:	1080a018 	cmpnei	r2,r2,640
     72c:	1000081e 	bne	r2,zero,750 <alt_tpo_lcd_init+0x15c>
     730:	e0bffe17 	ldw	r2,-8(fp)
     734:	10807818 	cmpnei	r2,r2,480
     738:	1000051e 	bne	r2,zero,750 <alt_tpo_lcd_init+0x15c>
    alt_tpo_lcd_write_config_register(
     73c:	e13ffc17 	ldw	r4,-16(fp)
     740:	01400084 	movi	r5,2
     744:	01800184 	movi	r6,6
     748:	00005540 	call	554 <alt_tpo_lcd_write_config_register>
  /* Set resolution */
  if(width == 800 && height == 480) {
    alt_tpo_lcd_write_config_register(
      lcd, ALT_TPO_LCD_ADDR_RESOLUTION, (alt_u8) 0x7);
  }
  else if(width == 640 && height == 480) {
     74c:	00001406 	br	7a0 <alt_tpo_lcd_init+0x1ac>
    alt_tpo_lcd_write_config_register(
      lcd, ALT_TPO_LCD_ADDR_RESOLUTION, (alt_u8) 0x6);
  }
  else if(width == 480 && height == 272) {
     750:	e0bffd17 	ldw	r2,-12(fp)
     754:	10807818 	cmpnei	r2,r2,480
     758:	1000081e 	bne	r2,zero,77c <alt_tpo_lcd_init+0x188>
     75c:	e0bffe17 	ldw	r2,-8(fp)
     760:	10804418 	cmpnei	r2,r2,272
     764:	1000051e 	bne	r2,zero,77c <alt_tpo_lcd_init+0x188>
    alt_tpo_lcd_write_config_register(
     768:	e13ffc17 	ldw	r4,-16(fp)
     76c:	01400084 	movi	r5,2
     770:	01800144 	movi	r6,5
     774:	00005540 	call	554 <alt_tpo_lcd_write_config_register>
  }
  else if(width == 640 && height == 480) {
    alt_tpo_lcd_write_config_register(
      lcd, ALT_TPO_LCD_ADDR_RESOLUTION, (alt_u8) 0x6);
  }
  else if(width == 480 && height == 272) {
     778:	00000906 	br	7a0 <alt_tpo_lcd_init+0x1ac>
    alt_tpo_lcd_write_config_register(
      lcd, ALT_TPO_LCD_ADDR_RESOLUTION, (alt_u8) 0x5);
  } 
  else {
    printf("[alt_tpo_lcd_init] Error: Width & height not supported.\n");
     77c:	01000074 	movhi	r4,1
     780:	2114b004 	addi	r4,r4,21184
     784:	0008f840 	call	8f84 <puts>
    printf("--> This software supports 800x480, 640x480, or 480x272\n");
     788:	01000074 	movhi	r4,1
     78c:	2114be04 	addi	r4,r4,21240
     790:	0008f840 	call	8f84 <puts>
    return -1;
     794:	00bfffc4 	movi	r2,-1
     798:	e0bfff15 	stw	r2,-4(fp)
     79c:	00009306 	br	9ec <alt_tpo_lcd_init+0x3f8>
   * Write gamma curve 
   * 
   * Registers in the address range 0x11..0x13 contain the two MSBs of each
   * 10-bit gamma value. This is derived from manufacturer's datasheet.
   */
  alt_tpo_lcd_write_config_register(lcd , 0x11, (alt_u8)
     7a0:	e0bff58b 	ldhu	r2,-42(fp)
     7a4:	10bfffcc 	andi	r2,r2,65535
     7a8:	1080c00c 	andi	r2,r2,768
     7ac:	1005d0ba 	srai	r2,r2,2
     7b0:	1007883a 	mov	r3,r2
     7b4:	e0bff60b 	ldhu	r2,-40(fp)
     7b8:	10bfffcc 	andi	r2,r2,65535
     7bc:	1080c00c 	andi	r2,r2,768
     7c0:	1005d13a 	srai	r2,r2,4
     7c4:	1884b03a 	or	r2,r3,r2
     7c8:	1007883a 	mov	r3,r2
     7cc:	e0bff68b 	ldhu	r2,-38(fp)
     7d0:	10bfffcc 	andi	r2,r2,65535
     7d4:	1080c00c 	andi	r2,r2,768
     7d8:	1005d1ba 	srai	r2,r2,6
     7dc:	1884b03a 	or	r2,r3,r2
     7e0:	1007883a 	mov	r3,r2
     7e4:	e0bff70b 	ldhu	r2,-36(fp)
     7e8:	10bfffcc 	andi	r2,r2,65535
     7ec:	1080c00c 	andi	r2,r2,768
     7f0:	1005d23a 	srai	r2,r2,8
     7f4:	1884b03a 	or	r2,r3,r2
     7f8:	11803fcc 	andi	r6,r2,255
     7fc:	e13ffc17 	ldw	r4,-16(fp)
     800:	01400444 	movi	r5,17
     804:	00005540 	call	554 <alt_tpo_lcd_write_config_register>
            ( ((gamma[0] & 0x300) >> 2) | 
              ((gamma[1] & 0x300) >> 4) | 
              ((gamma[2] & 0x300) >> 6) | 
              ((gamma[3] & 0x300) >> 8 )  ) );
              
  alt_tpo_lcd_write_config_register(lcd, 0x12, (alt_u8)
     808:	e0bff78b 	ldhu	r2,-34(fp)
     80c:	10bfffcc 	andi	r2,r2,65535
     810:	1080c00c 	andi	r2,r2,768
     814:	1005d0ba 	srai	r2,r2,2
     818:	1007883a 	mov	r3,r2
     81c:	e0bff80b 	ldhu	r2,-32(fp)
     820:	10bfffcc 	andi	r2,r2,65535
     824:	1080c00c 	andi	r2,r2,768
     828:	1005d13a 	srai	r2,r2,4
     82c:	1884b03a 	or	r2,r3,r2
     830:	1007883a 	mov	r3,r2
     834:	e0bff88b 	ldhu	r2,-30(fp)
     838:	10bfffcc 	andi	r2,r2,65535
     83c:	1080c00c 	andi	r2,r2,768
     840:	1005d1ba 	srai	r2,r2,6
     844:	1884b03a 	or	r2,r3,r2
     848:	1007883a 	mov	r3,r2
     84c:	e0bff90b 	ldhu	r2,-28(fp)
     850:	10bfffcc 	andi	r2,r2,65535
     854:	1080c00c 	andi	r2,r2,768
     858:	1005d23a 	srai	r2,r2,8
     85c:	1884b03a 	or	r2,r3,r2
     860:	11803fcc 	andi	r6,r2,255
     864:	e13ffc17 	ldw	r4,-16(fp)
     868:	01400484 	movi	r5,18
     86c:	00005540 	call	554 <alt_tpo_lcd_write_config_register>
            ( ((gamma[4] & 0x300) >> 2) | 
              ((gamma[5] & 0x300) >> 4) | 
              ((gamma[6] & 0x300) >> 6) | 
              ((gamma[7] & 0x300) >> 8 )  ) );
              
  alt_tpo_lcd_write_config_register(lcd, 0x13, (alt_u8)
     870:	e0bff98b 	ldhu	r2,-26(fp)
     874:	10bfffcc 	andi	r2,r2,65535
     878:	1080c00c 	andi	r2,r2,768
     87c:	1005d0ba 	srai	r2,r2,2
     880:	1007883a 	mov	r3,r2
     884:	e0bffa0b 	ldhu	r2,-24(fp)
     888:	10bfffcc 	andi	r2,r2,65535
     88c:	1080c00c 	andi	r2,r2,768
     890:	1005d13a 	srai	r2,r2,4
     894:	1884b03a 	or	r2,r3,r2
     898:	1007883a 	mov	r3,r2
     89c:	e0bffa8b 	ldhu	r2,-22(fp)
     8a0:	10bfffcc 	andi	r2,r2,65535
     8a4:	1080c00c 	andi	r2,r2,768
     8a8:	1005d1ba 	srai	r2,r2,6
     8ac:	1884b03a 	or	r2,r3,r2
     8b0:	1007883a 	mov	r3,r2
     8b4:	e0bffb0b 	ldhu	r2,-20(fp)
     8b8:	10bfffcc 	andi	r2,r2,65535
     8bc:	1080c00c 	andi	r2,r2,768
     8c0:	1005d23a 	srai	r2,r2,8
     8c4:	1884b03a 	or	r2,r3,r2
     8c8:	11803fcc 	andi	r6,r2,255
     8cc:	e13ffc17 	ldw	r4,-16(fp)
     8d0:	014004c4 	movi	r5,19
     8d4:	00005540 	call	554 <alt_tpo_lcd_write_config_register>
              ((gamma[11] & 0x300) >> 8 )  ) );
  
  /* 
   * Register addresses 0x14..0x1f contain 8-bit gamma values.
   */
  alt_tpo_lcd_write_config_register(lcd, 0x14, (alt_u8)( gamma[0] & 0xFF ) );
     8d8:	e0bff58b 	ldhu	r2,-42(fp)
     8dc:	11803fcc 	andi	r6,r2,255
     8e0:	e13ffc17 	ldw	r4,-16(fp)
     8e4:	01400504 	movi	r5,20
     8e8:	00005540 	call	554 <alt_tpo_lcd_write_config_register>
  alt_tpo_lcd_write_config_register(lcd, 0x15, (alt_u8)( gamma[1] & 0xFF ) );
     8ec:	e0bff60b 	ldhu	r2,-40(fp)
     8f0:	11803fcc 	andi	r6,r2,255
     8f4:	e13ffc17 	ldw	r4,-16(fp)
     8f8:	01400544 	movi	r5,21
     8fc:	00005540 	call	554 <alt_tpo_lcd_write_config_register>
  alt_tpo_lcd_write_config_register(lcd, 0x16, (alt_u8)( gamma[2] & 0xFF ) );
     900:	e0bff68b 	ldhu	r2,-38(fp)
     904:	11803fcc 	andi	r6,r2,255
     908:	e13ffc17 	ldw	r4,-16(fp)
     90c:	01400584 	movi	r5,22
     910:	00005540 	call	554 <alt_tpo_lcd_write_config_register>
  alt_tpo_lcd_write_config_register(lcd, 0x17, (alt_u8)( gamma[3] & 0xFF ) );
     914:	e0bff70b 	ldhu	r2,-36(fp)
     918:	11803fcc 	andi	r6,r2,255
     91c:	e13ffc17 	ldw	r4,-16(fp)
     920:	014005c4 	movi	r5,23
     924:	00005540 	call	554 <alt_tpo_lcd_write_config_register>
  alt_tpo_lcd_write_config_register(lcd, 0x18, (alt_u8)( gamma[4] & 0xFF ) );
     928:	e0bff78b 	ldhu	r2,-34(fp)
     92c:	11803fcc 	andi	r6,r2,255
     930:	e13ffc17 	ldw	r4,-16(fp)
     934:	01400604 	movi	r5,24
     938:	00005540 	call	554 <alt_tpo_lcd_write_config_register>
  alt_tpo_lcd_write_config_register(lcd, 0x19, (alt_u8)( gamma[5] & 0xFF ) );
     93c:	e0bff80b 	ldhu	r2,-32(fp)
     940:	11803fcc 	andi	r6,r2,255
     944:	e13ffc17 	ldw	r4,-16(fp)
     948:	01400644 	movi	r5,25
     94c:	00005540 	call	554 <alt_tpo_lcd_write_config_register>
  alt_tpo_lcd_write_config_register(lcd, 0x1a, (alt_u8)( gamma[6] & 0xFF ) );
     950:	e0bff88b 	ldhu	r2,-30(fp)
     954:	11803fcc 	andi	r6,r2,255
     958:	e13ffc17 	ldw	r4,-16(fp)
     95c:	01400684 	movi	r5,26
     960:	00005540 	call	554 <alt_tpo_lcd_write_config_register>
  alt_tpo_lcd_write_config_register(lcd, 0x1b, (alt_u8)( gamma[7] & 0xFF ) );
     964:	e0bff90b 	ldhu	r2,-28(fp)
     968:	11803fcc 	andi	r6,r2,255
     96c:	e13ffc17 	ldw	r4,-16(fp)
     970:	014006c4 	movi	r5,27
     974:	00005540 	call	554 <alt_tpo_lcd_write_config_register>
  alt_tpo_lcd_write_config_register(lcd, 0x1c, (alt_u8)( gamma[8] & 0xFF ) );
     978:	e0bff98b 	ldhu	r2,-26(fp)
     97c:	11803fcc 	andi	r6,r2,255
     980:	e13ffc17 	ldw	r4,-16(fp)
     984:	01400704 	movi	r5,28
     988:	00005540 	call	554 <alt_tpo_lcd_write_config_register>
  alt_tpo_lcd_write_config_register(lcd, 0x1d, (alt_u8)( gamma[9] & 0xFF ) );
     98c:	e0bffa0b 	ldhu	r2,-24(fp)
     990:	11803fcc 	andi	r6,r2,255
     994:	e13ffc17 	ldw	r4,-16(fp)
     998:	01400744 	movi	r5,29
     99c:	00005540 	call	554 <alt_tpo_lcd_write_config_register>
  alt_tpo_lcd_write_config_register(lcd, 0x1e, (alt_u8)( gamma[10] & 0xFF ) );
     9a0:	e0bffa8b 	ldhu	r2,-22(fp)
     9a4:	11803fcc 	andi	r6,r2,255
     9a8:	e13ffc17 	ldw	r4,-16(fp)
     9ac:	01400784 	movi	r5,30
     9b0:	00005540 	call	554 <alt_tpo_lcd_write_config_register>
  alt_tpo_lcd_write_config_register(lcd, 0x1f, (alt_u8)( gamma[11] & 0xFF ) );
     9b4:	e0bffb0b 	ldhu	r2,-20(fp)
     9b8:	11803fcc 	andi	r6,r2,255
     9bc:	e13ffc17 	ldw	r4,-16(fp)
     9c0:	014007c4 	movi	r5,31
     9c4:	00005540 	call	554 <alt_tpo_lcd_write_config_register>
   * Register address 0x20 controls the "voltage range for
   * positive polarity" (and negative polarity, for 0x21).
   *   High nibble defines DAC reference voltage for "code 0xFF"
   *   Low nibble defines DAC reference voltage for "code 0x00"
   */
  alt_tpo_lcd_write_config_register(lcd, 0x20, (alt_u8) 0xF0);
     9c8:	e13ffc17 	ldw	r4,-16(fp)
     9cc:	01400804 	movi	r5,32
     9d0:	01803c04 	movi	r6,240
     9d4:	00005540 	call	554 <alt_tpo_lcd_write_config_register>
  alt_tpo_lcd_write_config_register(lcd, 0x21, (alt_u8) 0xF0);
     9d8:	e13ffc17 	ldw	r4,-16(fp)
     9dc:	01400844 	movi	r5,33
     9e0:	01803c04 	movi	r6,240
     9e4:	00005540 	call	554 <alt_tpo_lcd_write_config_register>
  
  return 0;
     9e8:	e03fff15 	stw	zero,-4(fp)
     9ec:	e0bfff17 	ldw	r2,-4(fp)
}
     9f0:	e037883a 	mov	sp,fp
     9f4:	dfc00117 	ldw	ra,4(sp)
     9f8:	df000017 	ldw	fp,0(sp)
     9fc:	dec00204 	addi	sp,sp,8
     a00:	f800283a 	ret

00000a04 <alt_video_display_only_frame_init>:
 ******************************************************************/

alt_video_display* alt_video_display_only_frame_init( // char* sgdma_name,
		int width, int height, int color_depth, int buffer_location,
//                                           int descriptor_location,
		int num_buffers) {
     a04:	defff304 	addi	sp,sp,-52
     a08:	dfc00c15 	stw	ra,48(sp)
     a0c:	df000b15 	stw	fp,44(sp)
     a10:	df000b04 	addi	fp,sp,44
     a14:	e13ffb15 	stw	r4,-20(fp)
     a18:	e17ffc15 	stw	r5,-16(fp)
     a1c:	e1bffd15 	stw	r6,-12(fp)
     a20:	e1fffe15 	stw	r7,-8(fp)
	alt_video_display* display;
	unsigned int bytes_per_pixel, bytes_per_frame, descriptors_per_frame, i;
	int result;

	// We'll need these values more than once, so let's pre-calculate them.
	bytes_per_pixel = color_depth >> 3; // same as /8
     a24:	e0bffd17 	ldw	r2,-12(fp)
     a28:	1005d0fa 	srai	r2,r2,3
     a2c:	e0bff915 	stw	r2,-28(fp)
	bytes_per_frame = ((width * height) * bytes_per_pixel);
     a30:	e0fffb17 	ldw	r3,-20(fp)
     a34:	e0bffc17 	ldw	r2,-16(fp)
     a38:	1885383a 	mul	r2,r3,r2
     a3c:	1007883a 	mov	r3,r2
     a40:	e0bff917 	ldw	r2,-28(fp)
     a44:	1885383a 	mul	r2,r3,r2
     a48:	e0bff815 	stw	r2,-32(fp)
	else {
		descriptors_per_frame =
		( bytes_per_frame / ALT_VIDEO_DISPLAY_BYTES_PER_DESC ) + 1;
	}
#endif
	descriptors_per_frame = 1;
     a4c:	00800044 	movi	r2,1
     a50:	e0bff715 	stw	r2,-36(fp)

	// Check for too many frame buffers
	if (num_buffers > ALT_VIDEO_DISPLAY_MAX_BUFFERS) {
     a54:	e0800217 	ldw	r2,8(fp)
     a58:	108000d0 	cmplti	r2,r2,3
     a5c:	1000021e 	bne	r2,zero,a68 <alt_video_display_only_frame_init+0x64>
		num_buffers = ALT_VIDEO_DISPLAY_MAX_BUFFERS;
     a60:	00800084 	movi	r2,2
     a64:	e0800215 	stw	r2,8(fp)
	}
	// Allocate our display struct
	display = (alt_video_display*) malloc(sizeof(alt_video_display));
     a68:	01000c04 	movi	r4,48
     a6c:	00085e00 	call	85e0 <malloc>
     a70:	e0bffa15 	stw	r2,-24(fp)
	if (!display) {
     a74:	e0bffa17 	ldw	r2,-24(fp)
     a78:	1004c03a 	cmpne	r2,r2,zero
     a7c:	1000021e 	bne	r2,zero,a88 <alt_video_display_only_frame_init+0x84>
		return NULL;
     a80:	e03fff15 	stw	zero,-4(fp)
     a84:	00003c06 	br	b78 <alt_video_display_only_frame_init+0x174>
	}

	// Fill out the display structure
	display->width = width;
     a88:	e0fffa17 	ldw	r3,-24(fp)
     a8c:	e0bffb17 	ldw	r2,-20(fp)
     a90:	18800515 	stw	r2,20(r3)
	display->height = height;
     a94:	e0fffa17 	ldw	r3,-24(fp)
     a98:	e0bffc17 	ldw	r2,-16(fp)
     a9c:	18800615 	stw	r2,24(r3)
	display->color_depth = color_depth;
     aa0:	e0fffa17 	ldw	r3,-24(fp)
     aa4:	e0bffd17 	ldw	r2,-12(fp)
     aa8:	18800715 	stw	r2,28(r3)
	display->num_frame_buffers = num_buffers;
     aac:	e0fffa17 	ldw	r3,-24(fp)
     ab0:	e0800217 	ldw	r2,8(fp)
     ab4:	18800a15 	stw	r2,40(r3)
	display->bytes_per_frame = bytes_per_frame;
     ab8:	e0fff817 	ldw	r3,-32(fp)
     abc:	e0bffa17 	ldw	r2,-24(fp)
     ac0:	10c00915 	stw	r3,36(r2)
	display->bytes_per_pixel = bytes_per_pixel;
     ac4:	e0fff917 	ldw	r3,-28(fp)
     ac8:	e0bffa17 	ldw	r2,-24(fp)
     acc:	10c00815 	stw	r3,32(r2)
	display->buffer_being_displayed = 0;
     ad0:	e0bffa17 	ldw	r2,-24(fp)
     ad4:	10000315 	stw	zero,12(r2)
	display->buffer_being_written = (num_buffers > 1) ? 1 : 0;
     ad8:	e0800217 	ldw	r2,8(fp)
     adc:	10c00088 	cmpgei	r3,r2,2
     ae0:	e0bffa17 	ldw	r2,-24(fp)
     ae4:	10c00415 	stw	r3,16(r2)
	display->descriptors_per_frame = descriptors_per_frame;
     ae8:	e0fff717 	ldw	r3,-36(fp)
     aec:	e0bffa17 	ldw	r2,-24(fp)
     af0:	10c00b15 	stw	r3,44(r2)

	// Allocate our frame and descriptor buffers
	if (alt_video_display_allocate_buffers_only_frame(display, bytes_per_frame,
     af4:	e17ff817 	ldw	r5,-32(fp)
     af8:	e13ffa17 	ldw	r4,-24(fp)
     afc:	e1bffe17 	ldw	r6,-8(fp)
     b00:	e1c00217 	ldw	r7,8(fp)
     b04:	0000bf40 	call	bf4 <alt_video_display_allocate_buffers_only_frame>
     b08:	1005003a 	cmpeq	r2,r2,zero
     b0c:	1000021e 	bne	r2,zero,b18 <alt_video_display_only_frame_init+0x114>
			buffer_location,
//                                         descriptor_location,
			num_buffers)) {
		return NULL;
     b10:	e03fff15 	stw	zero,-4(fp)
     b14:	00001806 	br	b78 <alt_video_display_only_frame_init+0x174>
	}

	// Clear all frame buffers to black
	for (i = 0; i < num_buffers; i++) {
     b18:	e03ff615 	stw	zero,-40(fp)
     b1c:	00001106 	br	b64 <alt_video_display_only_frame_init+0x160>
		memset((void*) (display->buffer_ptrs[i]->buffer),
     b20:	e0bff617 	ldw	r2,-40(fp)
     b24:	e0fffa17 	ldw	r3,-24(fp)
     b28:	1085883a 	add	r2,r2,r2
     b2c:	1085883a 	add	r2,r2,r2
     b30:	10c5883a 	add	r2,r2,r3
     b34:	10800104 	addi	r2,r2,4
     b38:	10800017 	ldw	r2,0(r2)
     b3c:	10c00117 	ldw	r3,4(r2)
     b40:	e0bffa17 	ldw	r2,-24(fp)
     b44:	10800917 	ldw	r2,36(r2)
     b48:	1809883a 	mov	r4,r3
     b4c:	100d883a 	mov	r6,r2
     b50:	000b883a 	mov	r5,zero
     b54:	0008dd40 	call	8dd4 <memset>
			num_buffers)) {
		return NULL;
	}

	// Clear all frame buffers to black
	for (i = 0; i < num_buffers; i++) {
     b58:	e0bff617 	ldw	r2,-40(fp)
     b5c:	10800044 	addi	r2,r2,1
     b60:	e0bff615 	stw	r2,-40(fp)
     b64:	e0c00217 	ldw	r3,8(fp)
     b68:	e0bff617 	ldw	r2,-40(fp)
     b6c:	10ffec36 	bltu	r2,r3,b20 <alt_video_display_only_frame_init+0x11c>

//  if(result) {
//    return NULL;
//  }

	return (display);
     b70:	e0bffa17 	ldw	r2,-24(fp)
     b74:	e0bfff15 	stw	r2,-4(fp)
     b78:	e0bfff17 	ldw	r2,-4(fp)
}
     b7c:	e037883a 	mov	sp,fp
     b80:	dfc00117 	ldw	ra,4(sp)
     b84:	df000017 	ldw	fp,0(sp)
     b88:	dec00204 	addi	sp,sp,8
     b8c:	f800283a 	ret

00000b90 <alt_video_display_clear_screen>:
 *  Purpose: Uses the fast memset routine to clear the entire frame
 *           buffer.  User can specify black(0x00) or white(0xFF).
 *
 ******************************************************************/
inline void alt_video_display_clear_screen(alt_video_display* display,
		char color) {
     b90:	defffc04 	addi	sp,sp,-16
     b94:	dfc00315 	stw	ra,12(sp)
     b98:	df000215 	stw	fp,8(sp)
     b9c:	df000204 	addi	fp,sp,8
     ba0:	e13ffe15 	stw	r4,-8(fp)
     ba4:	e17fff05 	stb	r5,-4(fp)
	memset(
     ba8:	e0bffe17 	ldw	r2,-8(fp)
     bac:	10800417 	ldw	r2,16(r2)
     bb0:	e0fffe17 	ldw	r3,-8(fp)
     bb4:	1085883a 	add	r2,r2,r2
     bb8:	1085883a 	add	r2,r2,r2
     bbc:	10c5883a 	add	r2,r2,r3
     bc0:	10800104 	addi	r2,r2,4
     bc4:	10800017 	ldw	r2,0(r2)
     bc8:	11000117 	ldw	r4,4(r2)
     bcc:	e17fff07 	ldb	r5,-4(fp)
     bd0:	e0bffe17 	ldw	r2,-8(fp)
     bd4:	10800917 	ldw	r2,36(r2)
     bd8:	100d883a 	mov	r6,r2
     bdc:	0008dd40 	call	8dd4 <memset>
			(void*) (display->buffer_ptrs[display->buffer_being_written]->buffer),
			color, display->bytes_per_frame);
}
     be0:	e037883a 	mov	sp,fp
     be4:	dfc00117 	ldw	ra,4(sp)
     be8:	df000017 	ldw	fp,0(sp)
     bec:	dec00204 	addi	sp,sp,8
     bf0:	f800283a 	ret

00000bf4 <alt_video_display_allocate_buffers_only_frame>:
 *  Returns:  0 - Success
 *           -1 - Error allocating memory
 ******************************************************************/

int alt_video_display_allocate_buffers_only_frame(alt_video_display* display,
		int bytes_per_frame, int buffer_location, int num_buffers) {
     bf4:	defff704 	addi	sp,sp,-36
     bf8:	dfc00815 	stw	ra,32(sp)
     bfc:	df000715 	stw	fp,28(sp)
     c00:	dc000615 	stw	r16,24(sp)
     c04:	df000604 	addi	fp,sp,24
     c08:	e13ffc15 	stw	r4,-16(fp)
     c0c:	e17ffd15 	stw	r5,-12(fp)
     c10:	e1bffe15 	stw	r6,-8(fp)
     c14:	e1ffff15 	stw	r7,-4(fp)
	int i, ret_code = 0;
     c18:	e03ffa15 	stw	zero,-24(fp)

	/* Allocate our frame buffers and descriptor buffers */
	for (i = 0; i < num_buffers; i++) {
     c1c:	e03ffb15 	stw	zero,-20(fp)
     c20:	00004a06 	br	d4c <alt_video_display_allocate_buffers_only_frame+0x158>
		display->buffer_ptrs[i] = (alt_video_frame*) malloc(
     c24:	e43ffb17 	ldw	r16,-20(fp)
     c28:	01000204 	movi	r4,8
     c2c:	00085e00 	call	85e0 <malloc>
     c30:	1009883a 	mov	r4,r2
     c34:	e0fffc17 	ldw	r3,-16(fp)
     c38:	8405883a 	add	r2,r16,r16
     c3c:	1085883a 	add	r2,r2,r2
     c40:	10c5883a 	add	r2,r2,r3
     c44:	10800104 	addi	r2,r2,4
     c48:	11000015 	stw	r4,0(r2)
				sizeof(alt_video_frame));

		if (display->buffer_ptrs[i] == NULL) {
     c4c:	e0bffb17 	ldw	r2,-20(fp)
     c50:	e0fffc17 	ldw	r3,-16(fp)
     c54:	1085883a 	add	r2,r2,r2
     c58:	1085883a 	add	r2,r2,r2
     c5c:	10c5883a 	add	r2,r2,r3
     c60:	10800104 	addi	r2,r2,4
     c64:	10800017 	ldw	r2,0(r2)
     c68:	1004c03a 	cmpne	r2,r2,zero
     c6c:	1000021e 	bne	r2,zero,c78 <alt_video_display_allocate_buffers_only_frame+0x84>
			ret_code = -1;
     c70:	00bfffc4 	movi	r2,-1
     c74:	e0bffa15 	stw	r2,-24(fp)
		}

		if (buffer_location == ALT_VIDEO_DISPLAY_USE_HEAP) {
     c78:	e0bffe17 	ldw	r2,-8(fp)
     c7c:	10bfffd8 	cmpnei	r2,r2,-1
     c80:	1000171e 	bne	r2,zero,ce0 <alt_video_display_allocate_buffers_only_frame+0xec>
			display->buffer_ptrs[i]->buffer = (void*) alt_uncached_malloc(
     c84:	e0bffb17 	ldw	r2,-20(fp)
     c88:	e0fffc17 	ldw	r3,-16(fp)
     c8c:	1085883a 	add	r2,r2,r2
     c90:	1085883a 	add	r2,r2,r2
     c94:	10c5883a 	add	r2,r2,r3
     c98:	10800104 	addi	r2,r2,4
     c9c:	14000017 	ldw	r16,0(r2)
     ca0:	e13ffd17 	ldw	r4,-12(fp)
     ca4:	00131680 	call	13168 <alt_uncached_malloc>
     ca8:	80800115 	stw	r2,4(r16)
					(bytes_per_frame));

			if (display->buffer_ptrs[i]->buffer == NULL)
     cac:	e0bffb17 	ldw	r2,-20(fp)
     cb0:	e0fffc17 	ldw	r3,-16(fp)
     cb4:	1085883a 	add	r2,r2,r2
     cb8:	1085883a 	add	r2,r2,r2
     cbc:	10c5883a 	add	r2,r2,r3
     cc0:	10800104 	addi	r2,r2,4
     cc4:	10800017 	ldw	r2,0(r2)
     cc8:	10800117 	ldw	r2,4(r2)
     ccc:	1004c03a 	cmpne	r2,r2,zero
     cd0:	1000131e 	bne	r2,zero,d20 <alt_video_display_allocate_buffers_only_frame+0x12c>
				ret_code = -1;
     cd4:	00bfffc4 	movi	r2,-1
     cd8:	e0bffa15 	stw	r2,-24(fp)
     cdc:	00001006 	br	d20 <alt_video_display_allocate_buffers_only_frame+0x12c>
		} else {
			display->buffer_ptrs[i]->buffer = (void*) alt_remap_uncached(
     ce0:	e0bffb17 	ldw	r2,-20(fp)
     ce4:	e0fffc17 	ldw	r3,-16(fp)
     ce8:	1085883a 	add	r2,r2,r2
     cec:	1085883a 	add	r2,r2,r2
     cf0:	10c5883a 	add	r2,r2,r3
     cf4:	10800104 	addi	r2,r2,4
     cf8:	14000017 	ldw	r16,0(r2)
     cfc:	e0fffb17 	ldw	r3,-20(fp)
     d00:	e0bffd17 	ldw	r2,-12(fp)
     d04:	1887383a 	mul	r3,r3,r2
     d08:	e0bffe17 	ldw	r2,-8(fp)
     d0c:	1885883a 	add	r2,r3,r2
     d10:	1009883a 	mov	r4,r2
     d14:	e17ffd17 	ldw	r5,-12(fp)
     d18:	0012ec80 	call	12ec8 <alt_remap_uncached>
     d1c:	80800115 	stw	r2,4(r16)
					(void*) (buffer_location + (i * bytes_per_frame)),
					bytes_per_frame);
		}

		display->buffer_ptrs[i]->desc_base = ((void*) 0);
     d20:	e0bffb17 	ldw	r2,-20(fp)
     d24:	e0fffc17 	ldw	r3,-16(fp)
     d28:	1085883a 	add	r2,r2,r2
     d2c:	1085883a 	add	r2,r2,r2
     d30:	10c5883a 	add	r2,r2,r3
     d34:	10800104 	addi	r2,r2,4
     d38:	10800017 	ldw	r2,0(r2)
     d3c:	10000015 	stw	zero,0(r2)
int alt_video_display_allocate_buffers_only_frame(alt_video_display* display,
		int bytes_per_frame, int buffer_location, int num_buffers) {
	int i, ret_code = 0;

	/* Allocate our frame buffers and descriptor buffers */
	for (i = 0; i < num_buffers; i++) {
     d40:	e0bffb17 	ldw	r2,-20(fp)
     d44:	10800044 	addi	r2,r2,1
     d48:	e0bffb15 	stw	r2,-20(fp)
     d4c:	e0fffb17 	ldw	r3,-20(fp)
     d50:	e0bfff17 	ldw	r2,-4(fp)
     d54:	18bfb316 	blt	r3,r2,c24 <alt_video_display_allocate_buffers_only_frame+0x30>
		}

		display->buffer_ptrs[i]->desc_base = ((void*) 0);
	}

	return ret_code;
     d58:	e0bffa17 	ldw	r2,-24(fp)
}
     d5c:	e037883a 	mov	sp,fp
     d60:	dfc00217 	ldw	ra,8(sp)
     d64:	df000117 	ldw	fp,4(sp)
     d68:	dc000017 	ldw	r16,0(sp)
     d6c:	dec00304 	addi	sp,sp,12
     d70:	f800283a 	ret

00000d74 <i2c_setup_hw>:

#define I2C_SCLK_1(i2c) IOWR_ALTERA_AVALON_PIO_DATA(i2c->SCLK_ptr, 1)
#define I2C_SCLK_0(i2c) IOWR_ALTERA_AVALON_PIO_DATA(i2c->SCLK_ptr, 0)


static void i2c_setup_hw( T_I2C_PIO *i2c, alt_u32 sdin_base, alt_u32 sclk_base){
     d74:	defffb04 	addi	sp,sp,-20
     d78:	dfc00415 	stw	ra,16(sp)
     d7c:	df000315 	stw	fp,12(sp)
     d80:	df000304 	addi	fp,sp,12
     d84:	e13ffd15 	stw	r4,-12(fp)
     d88:	e17ffe15 	stw	r5,-8(fp)
     d8c:	e1bfff15 	stw	r6,-4(fp)
  i2c->SDIN_ptr = sdin_base;
     d90:	e0fffd17 	ldw	r3,-12(fp)
     d94:	e0bffe17 	ldw	r2,-8(fp)
     d98:	18800015 	stw	r2,0(r3)
  i2c->SCLK_ptr = sclk_base;
     d9c:	e0fffd17 	ldw	r3,-12(fp)
     da0:	e0bfff17 	ldw	r2,-4(fp)
     da4:	18800115 	stw	r2,4(r3)


  IOWR_ALTERA_AVALON_PIO_DIRECTION(i2c->SDIN_ptr, ALTERA_AVALON_PIO_DIRECTION_INPUT);// High-Z
     da8:	e0bffd17 	ldw	r2,-12(fp)
     dac:	10800017 	ldw	r2,0(r2)
     db0:	10800104 	addi	r2,r2,4
     db4:	10000035 	stwio	zero,0(r2)
  IOWR_ALTERA_AVALON_PIO_DATA(i2c->SDIN_ptr, 0); // Set 0 for output 
     db8:	e0bffd17 	ldw	r2,-12(fp)
     dbc:	10800017 	ldw	r2,0(r2)
     dc0:	10000035 	stwio	zero,0(r2)

  // reset WM8731 I2C I/F
  I2C_SCLK_1(i2c);
     dc4:	e0bffd17 	ldw	r2,-12(fp)
     dc8:	10800117 	ldw	r2,4(r2)
     dcc:	1007883a 	mov	r3,r2
     dd0:	00800044 	movi	r2,1
     dd4:	18800035 	stwio	r2,0(r3)
  usleep(1);
     dd8:	01000044 	movi	r4,1
     ddc:	00131cc0 	call	131cc <usleep>
  I2C_SDIN_1(i2c);
     de0:	e0bffd17 	ldw	r2,-12(fp)
     de4:	10800017 	ldw	r2,0(r2)
     de8:	10800104 	addi	r2,r2,4
     dec:	10000035 	stwio	zero,0(r2)
  usleep(1);
     df0:	01000044 	movi	r4,1
     df4:	00131cc0 	call	131cc <usleep>
  I2C_SDIN_0(i2c);
     df8:	e0bffd17 	ldw	r2,-12(fp)
     dfc:	10800017 	ldw	r2,0(r2)
     e00:	10800104 	addi	r2,r2,4
     e04:	1007883a 	mov	r3,r2
     e08:	00800044 	movi	r2,1
     e0c:	18800035 	stwio	r2,0(r3)
  usleep(1);
     e10:	01000044 	movi	r4,1
     e14:	00131cc0 	call	131cc <usleep>
  I2C_SDIN_1(i2c);
     e18:	e0bffd17 	ldw	r2,-12(fp)
     e1c:	10800017 	ldw	r2,0(r2)
     e20:	10800104 	addi	r2,r2,4
     e24:	10000035 	stwio	zero,0(r2)
  usleep(1000);
     e28:	0100fa04 	movi	r4,1000
     e2c:	00131cc0 	call	131cc <usleep>

}
     e30:	e037883a 	mov	sp,fp
     e34:	dfc00117 	ldw	ra,4(sp)
     e38:	df000017 	ldw	fp,0(sp)
     e3c:	dec00204 	addi	sp,sp,8
     e40:	f800283a 	ret

00000e44 <i2c_start>:

static void i2c_start( T_I2C_PIO *i2c){
     e44:	defffd04 	addi	sp,sp,-12
     e48:	dfc00215 	stw	ra,8(sp)
     e4c:	df000115 	stw	fp,4(sp)
     e50:	df000104 	addi	fp,sp,4
     e54:	e13fff15 	stw	r4,-4(fp)
  I2C_SCLK_1(i2c);
     e58:	e0bfff17 	ldw	r2,-4(fp)
     e5c:	10800117 	ldw	r2,4(r2)
     e60:	1007883a 	mov	r3,r2
     e64:	00800044 	movi	r2,1
     e68:	18800035 	stwio	r2,0(r3)
  usleep(1);
     e6c:	01000044 	movi	r4,1
     e70:	00131cc0 	call	131cc <usleep>
  I2C_SDIN_1(i2c);
     e74:	e0bfff17 	ldw	r2,-4(fp)
     e78:	10800017 	ldw	r2,0(r2)
     e7c:	10800104 	addi	r2,r2,4
     e80:	10000035 	stwio	zero,0(r2)
  usleep(1);
     e84:	01000044 	movi	r4,1
     e88:	00131cc0 	call	131cc <usleep>
  I2C_SDIN_0(i2c);
     e8c:	e0bfff17 	ldw	r2,-4(fp)
     e90:	10800017 	ldw	r2,0(r2)
     e94:	10800104 	addi	r2,r2,4
     e98:	1007883a 	mov	r3,r2
     e9c:	00800044 	movi	r2,1
     ea0:	18800035 	stwio	r2,0(r3)
  usleep(1);
     ea4:	01000044 	movi	r4,1
     ea8:	00131cc0 	call	131cc <usleep>
  I2C_SCLK_0(i2c);
     eac:	e0bfff17 	ldw	r2,-4(fp)
     eb0:	10800117 	ldw	r2,4(r2)
     eb4:	10000035 	stwio	zero,0(r2)
  usleep(1);
     eb8:	01000044 	movi	r4,1
     ebc:	00131cc0 	call	131cc <usleep>
}
     ec0:	e037883a 	mov	sp,fp
     ec4:	dfc00117 	ldw	ra,4(sp)
     ec8:	df000017 	ldw	fp,0(sp)
     ecc:	dec00204 	addi	sp,sp,8
     ed0:	f800283a 	ret

00000ed4 <i2c_bit_write>:

static void i2c_bit_write( T_I2C_PIO *i2c, int dat){
     ed4:	defffc04 	addi	sp,sp,-16
     ed8:	dfc00315 	stw	ra,12(sp)
     edc:	df000215 	stw	fp,8(sp)
     ee0:	df000204 	addi	fp,sp,8
     ee4:	e13ffe15 	stw	r4,-8(fp)
     ee8:	e17fff15 	stw	r5,-4(fp)
//  I2C_SCLK_0(i2c);
//  usleep(1);

  if (dat) I2C_SDIN_1(i2c);
     eec:	e0bfff17 	ldw	r2,-4(fp)
     ef0:	1005003a 	cmpeq	r2,r2,zero
     ef4:	1000051e 	bne	r2,zero,f0c <i2c_bit_write+0x38>
     ef8:	e0bffe17 	ldw	r2,-8(fp)
     efc:	10800017 	ldw	r2,0(r2)
     f00:	10800104 	addi	r2,r2,4
     f04:	10000035 	stwio	zero,0(r2)
     f08:	00000606 	br	f24 <i2c_bit_write+0x50>
  else I2C_SDIN_0(i2c);
     f0c:	e0bffe17 	ldw	r2,-8(fp)
     f10:	10800017 	ldw	r2,0(r2)
     f14:	10800104 	addi	r2,r2,4
     f18:	1007883a 	mov	r3,r2
     f1c:	00800044 	movi	r2,1
     f20:	18800035 	stwio	r2,0(r3)

  usleep(1);
     f24:	01000044 	movi	r4,1
     f28:	00131cc0 	call	131cc <usleep>
  I2C_SCLK_1(i2c);
     f2c:	e0bffe17 	ldw	r2,-8(fp)
     f30:	10800117 	ldw	r2,4(r2)
     f34:	1007883a 	mov	r3,r2
     f38:	00800044 	movi	r2,1
     f3c:	18800035 	stwio	r2,0(r3)
  usleep(1);
     f40:	01000044 	movi	r4,1
     f44:	00131cc0 	call	131cc <usleep>
  I2C_SCLK_0(i2c);
     f48:	e0bffe17 	ldw	r2,-8(fp)
     f4c:	10800117 	ldw	r2,4(r2)
     f50:	10000035 	stwio	zero,0(r2)
  usleep(1);
     f54:	01000044 	movi	r4,1
     f58:	00131cc0 	call	131cc <usleep>
}
     f5c:	e037883a 	mov	sp,fp
     f60:	dfc00117 	ldw	ra,4(sp)
     f64:	df000017 	ldw	fp,0(sp)
     f68:	dec00204 	addi	sp,sp,8
     f6c:	f800283a 	ret

00000f70 <i2c_stop>:


static void i2c_stop( T_I2C_PIO *i2c){
     f70:	defffd04 	addi	sp,sp,-12
     f74:	dfc00215 	stw	ra,8(sp)
     f78:	df000115 	stw	fp,4(sp)
     f7c:	df000104 	addi	fp,sp,4
     f80:	e13fff15 	stw	r4,-4(fp)
  I2C_SDIN_0(i2c);
     f84:	e0bfff17 	ldw	r2,-4(fp)
     f88:	10800017 	ldw	r2,0(r2)
     f8c:	10800104 	addi	r2,r2,4
     f90:	1007883a 	mov	r3,r2
     f94:	00800044 	movi	r2,1
     f98:	18800035 	stwio	r2,0(r3)
  usleep(1);
     f9c:	01000044 	movi	r4,1
     fa0:	00131cc0 	call	131cc <usleep>
  I2C_SCLK_1(i2c);
     fa4:	e0bfff17 	ldw	r2,-4(fp)
     fa8:	10800117 	ldw	r2,4(r2)
     fac:	1007883a 	mov	r3,r2
     fb0:	00800044 	movi	r2,1
     fb4:	18800035 	stwio	r2,0(r3)
  usleep(1);
     fb8:	01000044 	movi	r4,1
     fbc:	00131cc0 	call	131cc <usleep>
  I2C_SDIN_1(i2c);
     fc0:	e0bfff17 	ldw	r2,-4(fp)
     fc4:	10800017 	ldw	r2,0(r2)
     fc8:	10800104 	addi	r2,r2,4
     fcc:	10000035 	stwio	zero,0(r2)
  usleep(1);
     fd0:	01000044 	movi	r4,1
     fd4:	00131cc0 	call	131cc <usleep>
}
     fd8:	e037883a 	mov	sp,fp
     fdc:	dfc00117 	ldw	ra,4(sp)
     fe0:	df000017 	ldw	fp,0(sp)
     fe4:	dec00204 	addi	sp,sp,8
     fe8:	f800283a 	ret

00000fec <i2c_ack_sense>:

static int i2c_ack_sense( T_I2C_PIO *i2c){
     fec:	defffc04 	addi	sp,sp,-16
     ff0:	dfc00315 	stw	ra,12(sp)
     ff4:	df000215 	stw	fp,8(sp)
     ff8:	df000204 	addi	fp,sp,8
     ffc:	e13fff15 	stw	r4,-4(fp)
  int rv;

  I2C_SDIN_HIGHZ(i2c); // 
    1000:	e0bfff17 	ldw	r2,-4(fp)
    1004:	10800017 	ldw	r2,0(r2)
    1008:	10800104 	addi	r2,r2,4
    100c:	10000035 	stwio	zero,0(r2)
  usleep(1);
    1010:	01000044 	movi	r4,1
    1014:	00131cc0 	call	131cc <usleep>
  I2C_SCLK_1(i2c);
    1018:	e0bfff17 	ldw	r2,-4(fp)
    101c:	10800117 	ldw	r2,4(r2)
    1020:	1007883a 	mov	r3,r2
    1024:	00800044 	movi	r2,1
    1028:	18800035 	stwio	r2,0(r3)
  usleep(1);
    102c:	01000044 	movi	r4,1
    1030:	00131cc0 	call	131cc <usleep>

  rv = IORD_ALTERA_AVALON_PIO_DATA(i2c->SDIN_ptr);
    1034:	e0bfff17 	ldw	r2,-4(fp)
    1038:	10800017 	ldw	r2,0(r2)
    103c:	10800037 	ldwio	r2,0(r2)
    1040:	e0bffe15 	stw	r2,-8(fp)
  
  I2C_SCLK_0(i2c);
    1044:	e0bfff17 	ldw	r2,-4(fp)
    1048:	10800117 	ldw	r2,4(r2)
    104c:	10000035 	stwio	zero,0(r2)
  usleep(1);
    1050:	01000044 	movi	r4,1
    1054:	00131cc0 	call	131cc <usleep>

  return rv;
    1058:	e0bffe17 	ldw	r2,-8(fp)
}
    105c:	e037883a 	mov	sp,fp
    1060:	dfc00117 	ldw	ra,4(sp)
    1064:	df000017 	ldw	fp,0(sp)
    1068:	dec00204 	addi	sp,sp,8
    106c:	f800283a 	ret

00001070 <i2c_write_with_err_chk>:



/* I2C ANZX */

void i2c_write_with_err_chk( unsigned char i2c_write_address,  unsigned char i2c_write_reg, unsigned char i2c_write_data, int err_chk_mask){
    1070:	defff804 	addi	sp,sp,-32
    1074:	dfc00715 	stw	ra,28(sp)
    1078:	df000615 	stw	fp,24(sp)
    107c:	df000604 	addi	fp,sp,24
    1080:	e1ffff15 	stw	r7,-4(fp)
    1084:	e13ffc05 	stb	r4,-16(fp)
    1088:	e17ffd05 	stb	r5,-12(fp)
    108c:	e1bffe05 	stb	r6,-8(fp)
  int i;
  int rv;

  i2c_start(&I2C_PIO); 
    1090:	d12da504 	addi	r4,gp,-18796
    1094:	0000e440 	call	e44 <i2c_start>
  for(i=6;i>=0;i--){
    1098:	00800184 	movi	r2,6
    109c:	e0bffb15 	stw	r2,-20(fp)
    10a0:	00000906 	br	10c8 <i2c_write_with_err_chk+0x58>
    i2c_bit_write( &I2C_PIO, (i2c_write_address>>i)&1);
    10a4:	e0fffc03 	ldbu	r3,-16(fp)
    10a8:	e0bffb17 	ldw	r2,-20(fp)
    10ac:	1885d83a 	sra	r2,r3,r2
    10b0:	1140004c 	andi	r5,r2,1
    10b4:	d12da504 	addi	r4,gp,-18796
    10b8:	0000ed40 	call	ed4 <i2c_bit_write>
void i2c_write_with_err_chk( unsigned char i2c_write_address,  unsigned char i2c_write_reg, unsigned char i2c_write_data, int err_chk_mask){
  int i;
  int rv;

  i2c_start(&I2C_PIO); 
  for(i=6;i>=0;i--){
    10bc:	e0bffb17 	ldw	r2,-20(fp)
    10c0:	10bfffc4 	addi	r2,r2,-1
    10c4:	e0bffb15 	stw	r2,-20(fp)
    10c8:	e0bffb17 	ldw	r2,-20(fp)
    10cc:	1004403a 	cmpge	r2,r2,zero
    10d0:	103ff41e 	bne	r2,zero,10a4 <i2c_write_with_err_chk+0x34>
    i2c_bit_write( &I2C_PIO, (i2c_write_address>>i)&1);
  }
    i2c_bit_write( &I2C_PIO, 0); // write command
    10d4:	d12da504 	addi	r4,gp,-18796
    10d8:	000b883a 	mov	r5,zero
    10dc:	0000ed40 	call	ed4 <i2c_bit_write>
    rv = i2c_ack_sense( &I2C_PIO); // sense ack
    10e0:	d12da504 	addi	r4,gp,-18796
    10e4:	0000fec0 	call	fec <i2c_ack_sense>
    10e8:	e0bffa15 	stw	r2,-24(fp)
if( (err_chk_mask&1) && rv) printf("Error:Audio I2C ack access1\n"); // for debug
    10ec:	e0bfff17 	ldw	r2,-4(fp)
    10f0:	1080004c 	andi	r2,r2,1
    10f4:	10803fcc 	andi	r2,r2,255
    10f8:	1005003a 	cmpeq	r2,r2,zero
    10fc:	1000061e 	bne	r2,zero,1118 <i2c_write_with_err_chk+0xa8>
    1100:	e0bffa17 	ldw	r2,-24(fp)
    1104:	1005003a 	cmpeq	r2,r2,zero
    1108:	1000031e 	bne	r2,zero,1118 <i2c_write_with_err_chk+0xa8>
    110c:	01000074 	movhi	r4,1
    1110:	2114cc04 	addi	r4,r4,21296
    1114:	0008f840 	call	8f84 <puts>

  for(i=7;i>=0;i--){
    1118:	008001c4 	movi	r2,7
    111c:	e0bffb15 	stw	r2,-20(fp)
    1120:	00000906 	br	1148 <i2c_write_with_err_chk+0xd8>
    i2c_bit_write( &I2C_PIO, (i2c_write_reg>>i)&1);
    1124:	e0fffd03 	ldbu	r3,-12(fp)
    1128:	e0bffb17 	ldw	r2,-20(fp)
    112c:	1885d83a 	sra	r2,r3,r2
    1130:	1140004c 	andi	r5,r2,1
    1134:	d12da504 	addi	r4,gp,-18796
    1138:	0000ed40 	call	ed4 <i2c_bit_write>
  }
    i2c_bit_write( &I2C_PIO, 0); // write command
    rv = i2c_ack_sense( &I2C_PIO); // sense ack
if( (err_chk_mask&1) && rv) printf("Error:Audio I2C ack access1\n"); // for debug

  for(i=7;i>=0;i--){
    113c:	e0bffb17 	ldw	r2,-20(fp)
    1140:	10bfffc4 	addi	r2,r2,-1
    1144:	e0bffb15 	stw	r2,-20(fp)
    1148:	e0bffb17 	ldw	r2,-20(fp)
    114c:	1004403a 	cmpge	r2,r2,zero
    1150:	103ff41e 	bne	r2,zero,1124 <i2c_write_with_err_chk+0xb4>
    i2c_bit_write( &I2C_PIO, (i2c_write_reg>>i)&1);
  }
    rv = i2c_ack_sense( &I2C_PIO); // sense ack
    1154:	d12da504 	addi	r4,gp,-18796
    1158:	0000fec0 	call	fec <i2c_ack_sense>
    115c:	e0bffa15 	stw	r2,-24(fp)
if((err_chk_mask&2) && rv) printf("Error:Audio I2C ack access2\n"); // for debug
    1160:	e0bfff17 	ldw	r2,-4(fp)
    1164:	1080008c 	andi	r2,r2,2
    1168:	1005003a 	cmpeq	r2,r2,zero
    116c:	1000061e 	bne	r2,zero,1188 <i2c_write_with_err_chk+0x118>
    1170:	e0bffa17 	ldw	r2,-24(fp)
    1174:	1005003a 	cmpeq	r2,r2,zero
    1178:	1000031e 	bne	r2,zero,1188 <i2c_write_with_err_chk+0x118>
    117c:	01000074 	movhi	r4,1
    1180:	2114d304 	addi	r4,r4,21324
    1184:	0008f840 	call	8f84 <puts>
    
  for(i=7;i>=0;i--){
    1188:	008001c4 	movi	r2,7
    118c:	e0bffb15 	stw	r2,-20(fp)
    1190:	00000906 	br	11b8 <i2c_write_with_err_chk+0x148>
    i2c_bit_write( &I2C_PIO, (i2c_write_data>>i)&1);
    1194:	e0fffe03 	ldbu	r3,-8(fp)
    1198:	e0bffb17 	ldw	r2,-20(fp)
    119c:	1885d83a 	sra	r2,r3,r2
    11a0:	1140004c 	andi	r5,r2,1
    11a4:	d12da504 	addi	r4,gp,-18796
    11a8:	0000ed40 	call	ed4 <i2c_bit_write>
    i2c_bit_write( &I2C_PIO, (i2c_write_reg>>i)&1);
  }
    rv = i2c_ack_sense( &I2C_PIO); // sense ack
if((err_chk_mask&2) && rv) printf("Error:Audio I2C ack access2\n"); // for debug
    
  for(i=7;i>=0;i--){
    11ac:	e0bffb17 	ldw	r2,-20(fp)
    11b0:	10bfffc4 	addi	r2,r2,-1
    11b4:	e0bffb15 	stw	r2,-20(fp)
    11b8:	e0bffb17 	ldw	r2,-20(fp)
    11bc:	1004403a 	cmpge	r2,r2,zero
    11c0:	103ff41e 	bne	r2,zero,1194 <i2c_write_with_err_chk+0x124>
    i2c_bit_write( &I2C_PIO, (i2c_write_data>>i)&1);
  }
    rv = i2c_ack_sense( &I2C_PIO); // sense ack
    11c4:	d12da504 	addi	r4,gp,-18796
    11c8:	0000fec0 	call	fec <i2c_ack_sense>
    11cc:	e0bffa15 	stw	r2,-24(fp)
if((err_chk_mask&4) && rv) printf("Error:Audio I2C ack access3\n"); // for debug
    11d0:	e0bfff17 	ldw	r2,-4(fp)
    11d4:	1080010c 	andi	r2,r2,4
    11d8:	1005003a 	cmpeq	r2,r2,zero
    11dc:	1000061e 	bne	r2,zero,11f8 <i2c_write_with_err_chk+0x188>
    11e0:	e0bffa17 	ldw	r2,-24(fp)
    11e4:	1005003a 	cmpeq	r2,r2,zero
    11e8:	1000031e 	bne	r2,zero,11f8 <i2c_write_with_err_chk+0x188>
    11ec:	01000074 	movhi	r4,1
    11f0:	2114da04 	addi	r4,r4,21352
    11f4:	0008f840 	call	8f84 <puts>

  i2c_stop( &I2C_PIO);
    11f8:	d12da504 	addi	r4,gp,-18796
    11fc:	0000f700 	call	f70 <i2c_stop>
}
    1200:	e037883a 	mov	sp,fp
    1204:	dfc00117 	ldw	ra,4(sp)
    1208:	df000017 	ldw	fp,0(sp)
    120c:	dec00204 	addi	sp,sp,8
    1210:	f800283a 	ret

00001214 <i2c_write>:

/* i2c_write( unsigned char i2c_write_address,  unsigned char i2c_write_reg, unsigned char i2c_write_data) */
void i2c_write( unsigned char i2c_write_address,  unsigned char i2c_write_reg, unsigned char i2c_write_data){
    1214:	defffb04 	addi	sp,sp,-20
    1218:	dfc00415 	stw	ra,16(sp)
    121c:	df000315 	stw	fp,12(sp)
    1220:	df000304 	addi	fp,sp,12
    1224:	e13ffd05 	stb	r4,-12(fp)
    1228:	e17ffe05 	stb	r5,-8(fp)
    122c:	e1bfff05 	stb	r6,-4(fp)
  i2c_write_with_err_chk( i2c_write_address,  i2c_write_reg, i2c_write_data, 0xf);
    1230:	e13ffd03 	ldbu	r4,-12(fp)
    1234:	e17ffe03 	ldbu	r5,-8(fp)
    1238:	e1bfff03 	ldbu	r6,-4(fp)
    123c:	01c003c4 	movi	r7,15
    1240:	00010700 	call	1070 <i2c_write_with_err_chk>
} 
    1244:	e037883a 	mov	sp,fp
    1248:	dfc00117 	ldw	ra,4(sp)
    124c:	df000017 	ldw	fp,0(sp)
    1250:	dec00204 	addi	sp,sp,8
    1254:	f800283a 	ret

00001258 <i2c_read>:


#if 1
/* I2C read access */
int i2c_read( unsigned char i2c_read_address,  unsigned char i2c_read_reg){
    1258:	defff804 	addi	sp,sp,-32
    125c:	dfc00715 	stw	ra,28(sp)
    1260:	df000615 	stw	fp,24(sp)
    1264:	df000604 	addi	fp,sp,24
    1268:	e13ffd05 	stb	r4,-12(fp)
    126c:	e17ffe05 	stb	r5,-8(fp)
  int i;
  int rv;
  unsigned data;

  i2c_start(&I2C_PIO); 
    1270:	d12da504 	addi	r4,gp,-18796
    1274:	0000e440 	call	e44 <i2c_start>
  for(i=6;i>=0;i--){
    1278:	00800184 	movi	r2,6
    127c:	e0bffc15 	stw	r2,-16(fp)
    1280:	00000906 	br	12a8 <i2c_read+0x50>
    i2c_bit_write( &I2C_PIO, (i2c_read_address>>i)&1);
    1284:	e0fffd03 	ldbu	r3,-12(fp)
    1288:	e0bffc17 	ldw	r2,-16(fp)
    128c:	1885d83a 	sra	r2,r3,r2
    1290:	1140004c 	andi	r5,r2,1
    1294:	d12da504 	addi	r4,gp,-18796
    1298:	0000ed40 	call	ed4 <i2c_bit_write>
  int i;
  int rv;
  unsigned data;

  i2c_start(&I2C_PIO); 
  for(i=6;i>=0;i--){
    129c:	e0bffc17 	ldw	r2,-16(fp)
    12a0:	10bfffc4 	addi	r2,r2,-1
    12a4:	e0bffc15 	stw	r2,-16(fp)
    12a8:	e0bffc17 	ldw	r2,-16(fp)
    12ac:	1004403a 	cmpge	r2,r2,zero
    12b0:	103ff41e 	bne	r2,zero,1284 <i2c_read+0x2c>
    i2c_bit_write( &I2C_PIO, (i2c_read_address>>i)&1);
  }
  i2c_bit_write( &I2C_PIO, 0); // normal command
    12b4:	d12da504 	addi	r4,gp,-18796
    12b8:	000b883a 	mov	r5,zero
    12bc:	0000ed40 	call	ed4 <i2c_bit_write>

  rv = i2c_ack_sense( &I2C_PIO); // sense ack
    12c0:	d12da504 	addi	r4,gp,-18796
    12c4:	0000fec0 	call	fec <i2c_ack_sense>
    12c8:	e0bffb15 	stw	r2,-20(fp)
  if(rv) {
    12cc:	e0bffb17 	ldw	r2,-20(fp)
    12d0:	1005003a 	cmpeq	r2,r2,zero
    12d4:	1000061e 	bne	r2,zero,12f0 <i2c_read+0x98>
    printf("Error:I2C RD ack access1\n"); // for debug
    12d8:	01000074 	movhi	r4,1
    12dc:	2114e104 	addi	r4,r4,21380
    12e0:	0008f840 	call	8f84 <puts>
    rv = -1;
    12e4:	00bfffc4 	movi	r2,-1
    12e8:	e0bffb15 	stw	r2,-20(fp)
    goto ACK_ERROR;
    12ec:	00005606 	br	1448 <i2c_read+0x1f0>
  }

  for(i=7;i>=0;i--){
    12f0:	008001c4 	movi	r2,7
    12f4:	e0bffc15 	stw	r2,-16(fp)
    12f8:	00000906 	br	1320 <i2c_read+0xc8>
    i2c_bit_write( &I2C_PIO, (i2c_read_reg>>i)&1);
    12fc:	e0fffe03 	ldbu	r3,-8(fp)
    1300:	e0bffc17 	ldw	r2,-16(fp)
    1304:	1885d83a 	sra	r2,r3,r2
    1308:	1140004c 	andi	r5,r2,1
    130c:	d12da504 	addi	r4,gp,-18796
    1310:	0000ed40 	call	ed4 <i2c_bit_write>
    printf("Error:I2C RD ack access1\n"); // for debug
    rv = -1;
    goto ACK_ERROR;
  }

  for(i=7;i>=0;i--){
    1314:	e0bffc17 	ldw	r2,-16(fp)
    1318:	10bfffc4 	addi	r2,r2,-1
    131c:	e0bffc15 	stw	r2,-16(fp)
    1320:	e0bffc17 	ldw	r2,-16(fp)
    1324:	1004403a 	cmpge	r2,r2,zero
    1328:	103ff41e 	bne	r2,zero,12fc <i2c_read+0xa4>
    i2c_bit_write( &I2C_PIO, (i2c_read_reg>>i)&1);
  }
  rv = i2c_ack_sense( &I2C_PIO); // sense ack
    132c:	d12da504 	addi	r4,gp,-18796
    1330:	0000fec0 	call	fec <i2c_ack_sense>
    1334:	e0bffb15 	stw	r2,-20(fp)
  if(rv) {
    1338:	e0bffb17 	ldw	r2,-20(fp)
    133c:	1005003a 	cmpeq	r2,r2,zero
    1340:	1000061e 	bne	r2,zero,135c <i2c_read+0x104>
    printf("Error:I2C RD ack access2\n"); // for debug
    1344:	01000074 	movhi	r4,1
    1348:	2114e804 	addi	r4,r4,21408
    134c:	0008f840 	call	8f84 <puts>
    rv = -2;
    1350:	00bfff84 	movi	r2,-2
    1354:	e0bffb15 	stw	r2,-20(fp)
    goto ACK_ERROR;
    1358:	00003b06 	br	1448 <i2c_read+0x1f0>
  }
   

  i2c_start(&I2C_PIO); 
    135c:	d12da504 	addi	r4,gp,-18796
    1360:	0000e440 	call	e44 <i2c_start>
  for(i=6;i>=0;i--){
    1364:	00800184 	movi	r2,6
    1368:	e0bffc15 	stw	r2,-16(fp)
    136c:	00000906 	br	1394 <i2c_read+0x13c>
    i2c_bit_write( &I2C_PIO, (i2c_read_address>>i)&1);
    1370:	e0fffd03 	ldbu	r3,-12(fp)
    1374:	e0bffc17 	ldw	r2,-16(fp)
    1378:	1885d83a 	sra	r2,r3,r2
    137c:	1140004c 	andi	r5,r2,1
    1380:	d12da504 	addi	r4,gp,-18796
    1384:	0000ed40 	call	ed4 <i2c_bit_write>
    goto ACK_ERROR;
  }
   

  i2c_start(&I2C_PIO); 
  for(i=6;i>=0;i--){
    1388:	e0bffc17 	ldw	r2,-16(fp)
    138c:	10bfffc4 	addi	r2,r2,-1
    1390:	e0bffc15 	stw	r2,-16(fp)
    1394:	e0bffc17 	ldw	r2,-16(fp)
    1398:	1004403a 	cmpge	r2,r2,zero
    139c:	103ff41e 	bne	r2,zero,1370 <i2c_read+0x118>
    i2c_bit_write( &I2C_PIO, (i2c_read_address>>i)&1);
  }
  i2c_bit_write( &I2C_PIO, 1); // read command
    13a0:	d12da504 	addi	r4,gp,-18796
    13a4:	01400044 	movi	r5,1
    13a8:	0000ed40 	call	ed4 <i2c_bit_write>

  rv = i2c_ack_sense( &I2C_PIO); // sense ack
    13ac:	d12da504 	addi	r4,gp,-18796
    13b0:	0000fec0 	call	fec <i2c_ack_sense>
    13b4:	e0bffb15 	stw	r2,-20(fp)
  if(rv) {
    13b8:	e0bffb17 	ldw	r2,-20(fp)
    13bc:	1005003a 	cmpeq	r2,r2,zero
    13c0:	1000061e 	bne	r2,zero,13dc <i2c_read+0x184>
    printf("Error:I2C RD ack access3\n"); // for debug
    13c4:	01000074 	movhi	r4,1
    13c8:	2114ef04 	addi	r4,r4,21436
    13cc:	0008f840 	call	8f84 <puts>
    rv = -3;
    13d0:	00bfff44 	movi	r2,-3
    13d4:	e0bffb15 	stw	r2,-20(fp)
    goto ACK_ERROR;
    13d8:	00001b06 	br	1448 <i2c_read+0x1f0>
  }

  data = 0;
    13dc:	e03ffa15 	stw	zero,-24(fp)
  for(i=7;i>=0;i--){
    13e0:	008001c4 	movi	r2,7
    13e4:	e0bffc15 	stw	r2,-16(fp)
    13e8:	00000c06 	br	141c <i2c_read+0x1c4>
    data = data << 1;
    13ec:	e0bffa17 	ldw	r2,-24(fp)
    13f0:	1085883a 	add	r2,r2,r2
    13f4:	e0bffa15 	stw	r2,-24(fp)
    data |= i2c_ack_sense( &I2C_PIO) &1;
    13f8:	d12da504 	addi	r4,gp,-18796
    13fc:	0000fec0 	call	fec <i2c_ack_sense>
    1400:	10c0004c 	andi	r3,r2,1
    1404:	e0bffa17 	ldw	r2,-24(fp)
    1408:	10c4b03a 	or	r2,r2,r3
    140c:	e0bffa15 	stw	r2,-24(fp)
    rv = -3;
    goto ACK_ERROR;
  }

  data = 0;
  for(i=7;i>=0;i--){
    1410:	e0bffc17 	ldw	r2,-16(fp)
    1414:	10bfffc4 	addi	r2,r2,-1
    1418:	e0bffc15 	stw	r2,-16(fp)
    141c:	e0bffc17 	ldw	r2,-16(fp)
    1420:	1004403a 	cmpge	r2,r2,zero
    1424:	103ff11e 	bne	r2,zero,13ec <i2c_read+0x194>
    data = data << 1;
    data |= i2c_ack_sense( &I2C_PIO) &1;
  }

    i2c_bit_write( &I2C_PIO, 1); // write master non-ack
    1428:	d12da504 	addi	r4,gp,-18796
    142c:	01400044 	movi	r5,1
    1430:	0000ed40 	call	ed4 <i2c_bit_write>
//    i2c_bit_write( &I2C_PIO, 0); // write master non-ack

  i2c_stop( &I2C_PIO);
    1434:	d12da504 	addi	r4,gp,-18796
    1438:	0000f700 	call	f70 <i2c_stop>

  return data;
    143c:	e0bffa17 	ldw	r2,-24(fp)
    1440:	e0bfff15 	stw	r2,-4(fp)
    1444:	00000406 	br	1458 <i2c_read+0x200>

ACK_ERROR:
  i2c_stop( &I2C_PIO);
    1448:	d12da504 	addi	r4,gp,-18796
    144c:	0000f700 	call	f70 <i2c_stop>
  return rv;
    1450:	e0bffb17 	ldw	r2,-20(fp)
    1454:	e0bfff15 	stw	r2,-4(fp)
    1458:	e0bfff17 	ldw	r2,-4(fp)

}
    145c:	e037883a 	mov	sp,fp
    1460:	dfc00117 	ldw	ra,4(sp)
    1464:	df000017 	ldw	fp,0(sp)
    1468:	dec00204 	addi	sp,sp,8
    146c:	f800283a 	ret

00001470 <init_i2c>:
#endif


/* Set up Hardware addresses for I2C PIO ports */
/* I2C e|[gAhX */
void init_i2c() {
    1470:	defffe04 	addi	sp,sp,-8
    1474:	dfc00115 	stw	ra,4(sp)
    1478:	df000015 	stw	fp,0(sp)
    147c:	d839883a 	mov	fp,sp
  i2c_setup_hw( &I2C_PIO, AV_I2C_DATA_PIO_BASE, AV_I2C_CLK_PIO_BASE);
    1480:	d12da504 	addi	r4,gp,-18796
    1484:	01408034 	movhi	r5,512
    1488:	29402404 	addi	r5,r5,144
    148c:	01808034 	movhi	r6,512
    1490:	31804004 	addi	r6,r6,256
    1494:	0000d740 	call	d74 <i2c_setup_hw>
}
    1498:	e037883a 	mov	sp,fp
    149c:	dfc00117 	ldw	ra,4(sp)
    14a0:	df000017 	ldw	fp,0(sp)
    14a4:	dec00204 	addi	sp,sp,8
    14a8:	f800283a 	ret

000014ac <tv_decoder_write>:
//0x2f, 0xf4,    	// Luma Gain Control 1
//0x30, 0xb2,    	// Luma Gain Control 2	
//0x0e, 0x00,
		};

void tv_decoder_write(int ad, int dt) {
    14ac:	defffc04 	addi	sp,sp,-16
    14b0:	dfc00315 	stw	ra,12(sp)
    14b4:	df000215 	stw	fp,8(sp)
    14b8:	df000204 	addi	fp,sp,8
    14bc:	e13ffe15 	stw	r4,-8(fp)
    14c0:	e17fff15 	stw	r5,-4(fp)
	TVDECODER_I2C_WRITE( ad, dt);
    14c4:	e0bffe17 	ldw	r2,-8(fp)
    14c8:	11403fcc 	andi	r5,r2,255
    14cc:	e0bfff17 	ldw	r2,-4(fp)
    14d0:	11803fcc 	andi	r6,r2,255
    14d4:	01000804 	movi	r4,32
    14d8:	00012140 	call	1214 <i2c_write>
}
    14dc:	e037883a 	mov	sp,fp
    14e0:	dfc00117 	ldw	ra,4(sp)
    14e4:	df000017 	ldw	fp,0(sp)
    14e8:	dec00204 	addi	sp,sp,8
    14ec:	f800283a 	ret

000014f0 <tv_decoder_read>:

int tv_decoder_read(int ad) {
    14f0:	defffd04 	addi	sp,sp,-12
    14f4:	dfc00215 	stw	ra,8(sp)
    14f8:	df000115 	stw	fp,4(sp)
    14fc:	df000104 	addi	fp,sp,4
    1500:	e13fff15 	stw	r4,-4(fp)
	return TVDECODER_I2C_READ( ad );
    1504:	e0bfff17 	ldw	r2,-4(fp)
    1508:	11403fcc 	andi	r5,r2,255
    150c:	01000804 	movi	r4,32
    1510:	00012580 	call	1258 <i2c_read>
}
    1514:	e037883a 	mov	sp,fp
    1518:	dfc00117 	ldw	ra,4(sp)
    151c:	df000017 	ldw	fp,0(sp)
    1520:	dec00204 	addi	sp,sp,8
    1524:	f800283a 	ret

00001528 <tv_decoder_init>:

void tv_decoder_init() {
    1528:	defffd04 	addi	sp,sp,-12
    152c:	dfc00215 	stw	ra,8(sp)
    1530:	df000115 	stw	fp,4(sp)
    1534:	df000104 	addi	fp,sp,4
	int i;

	/* reset ADV7180 */
	TVDECODER_I2C_WRITE_ERRCHK( 0x0f, 0x80, 0x3);
    1538:	01000804 	movi	r4,32
    153c:	014003c4 	movi	r5,15
    1540:	01802004 	movi	r6,128
    1544:	01c000c4 	movi	r7,3
    1548:	00010700 	call	1070 <i2c_write_with_err_chk>
	// skip third ACK check in I2C write protocol
	usleep(200 * 1000); // wait 200ms
    154c:	010000f4 	movhi	r4,3
    1550:	21035004 	addi	r4,r4,3392
    1554:	00131cc0 	call	131cc <usleep>

	for (i = 0; i < itemsof(adv7180_setting); i += 2) {
    1558:	e03fff15 	stw	zero,-4(fp)
    155c:	00001306 	br	15ac <tv_decoder_init+0x84>
		tv_decoder_write(adv7180_setting[i], adv7180_setting[i + 1]);
    1560:	e0bfff17 	ldw	r2,-4(fp)
    1564:	00c000f4 	movhi	r3,3
    1568:	18fdee04 	addi	r3,r3,-2120
    156c:	1085883a 	add	r2,r2,r2
    1570:	10c5883a 	add	r2,r2,r3
    1574:	1080000b 	ldhu	r2,0(r2)
    1578:	113fffcc 	andi	r4,r2,65535
    157c:	e0bfff17 	ldw	r2,-4(fp)
    1580:	10800044 	addi	r2,r2,1
    1584:	00c000f4 	movhi	r3,3
    1588:	18fdee04 	addi	r3,r3,-2120
    158c:	1085883a 	add	r2,r2,r2
    1590:	10c5883a 	add	r2,r2,r3
    1594:	1080000b 	ldhu	r2,0(r2)
    1598:	117fffcc 	andi	r5,r2,65535
    159c:	00014ac0 	call	14ac <tv_decoder_write>
	/* reset ADV7180 */
	TVDECODER_I2C_WRITE_ERRCHK( 0x0f, 0x80, 0x3);
	// skip third ACK check in I2C write protocol
	usleep(200 * 1000); // wait 200ms

	for (i = 0; i < itemsof(adv7180_setting); i += 2) {
    15a0:	e0bfff17 	ldw	r2,-4(fp)
    15a4:	10800084 	addi	r2,r2,2
    15a8:	e0bfff15 	stw	r2,-4(fp)
    15ac:	e0bfff17 	ldw	r2,-4(fp)
    15b0:	10800330 	cmpltui	r2,r2,12
    15b4:	103fea1e 	bne	r2,zero,1560 <tv_decoder_init+0x38>
		tv_decoder_write(adv7180_setting[i], adv7180_setting[i + 1]);
	}
}
    15b8:	e037883a 	mov	sp,fp
    15bc:	dfc00117 	ldw	ra,4(sp)
    15c0:	df000017 	ldw	fp,0(sp)
    15c4:	dec00204 	addi	sp,sp,8
    15c8:	f800283a 	ret

000015cc <vid_draw_line>:
*           vid_draw_horiz_line(), which is much faster than 
*           vid_draw_sloped_line.
*
******************************************************************/
__inline__ void vid_draw_line(int horiz_start, int vert_start, int horiz_end, int vert_end, int width, int color, alt_video_display* display)
{
    15cc:	defff704 	addi	sp,sp,-36
    15d0:	dfc00815 	stw	ra,32(sp)
    15d4:	df000715 	stw	fp,28(sp)
    15d8:	df000704 	addi	fp,sp,28
    15dc:	e13ffc15 	stw	r4,-16(fp)
    15e0:	e17ffd15 	stw	r5,-12(fp)
    15e4:	e1bffe15 	stw	r6,-8(fp)
    15e8:	e1ffff15 	stw	r7,-4(fp)
 
  if( vert_start == vert_end )
    15ec:	e0fffd17 	ldw	r3,-12(fp)
    15f0:	e0bfff17 	ldw	r2,-4(fp)
    15f4:	18800f1e 	bne	r3,r2,1634 <vid_draw_line+0x68>
//                         (unsigned short)horiz_end,  
//                         (unsigned short)vert_start,
//                         color,
//                         display->buffer_ptrs[display->buffer_being_written]->buffer);

    vid_draw_horiz_line( (unsigned short)horiz_start, 
    15f8:	e0bffc17 	ldw	r2,-16(fp)
    15fc:	113fffcc 	andi	r4,r2,65535
    1600:	2120001c 	xori	r4,r4,32768
    1604:	21200004 	addi	r4,r4,-32768
    1608:	e0bffe17 	ldw	r2,-8(fp)
    160c:	117fffcc 	andi	r5,r2,65535
    1610:	2960001c 	xori	r5,r5,32768
    1614:	29600004 	addi	r5,r5,-32768
    1618:	e0bffd17 	ldw	r2,-12(fp)
    161c:	11bfffcc 	andi	r6,r2,65535
    1620:	e0800417 	ldw	r2,16(fp)
    1624:	d8800015 	stw	r2,0(sp)
    1628:	e1c00317 	ldw	r7,12(fp)
    162c:	00025580 	call	2558 <vid_draw_horiz_line>
    1630:	00001006 	br	1674 <vid_draw_line+0xa8>
                         color,
                         display );
  }
  else
  {
    vid_draw_sloped_line( (unsigned short)horiz_start, 
    1634:	e0bffc17 	ldw	r2,-16(fp)
    1638:	113fffcc 	andi	r4,r2,65535
    163c:	e0bffd17 	ldw	r2,-12(fp)
    1640:	117fffcc 	andi	r5,r2,65535
    1644:	e0bffe17 	ldw	r2,-8(fp)
    1648:	11bfffcc 	andi	r6,r2,65535
    164c:	e0bfff17 	ldw	r2,-4(fp)
    1650:	11ffffcc 	andi	r7,r2,65535
    1654:	e0800217 	ldw	r2,8(fp)
    1658:	10bfffcc 	andi	r2,r2,65535
    165c:	d8800015 	stw	r2,0(sp)
    1660:	e0800317 	ldw	r2,12(fp)
    1664:	d8800115 	stw	r2,4(sp)
    1668:	e0800417 	ldw	r2,16(fp)
    166c:	d8800215 	stw	r2,8(sp)
    1670:	0002cb00 	call	2cb0 <vid_draw_sloped_line>
                          (unsigned short)vert_end, 
                          (unsigned short)width, 
                          color,
                          display );
  }
}
    1674:	e037883a 	mov	sp,fp
    1678:	dfc00117 	ldw	ra,4(sp)
    167c:	df000017 	ldw	fp,0(sp)
    1680:	dec00204 	addi	sp,sp,8
    1684:	f800283a 	ret

00001688 <vid_scroll_string_quit>:



void vid_scroll_string_quit(vid_text_scroll_struct* scroll)
{
    1688:	defffd04 	addi	sp,sp,-12
    168c:	dfc00215 	stw	ra,8(sp)
    1690:	df000115 	stw	fp,4(sp)
    1694:	df000104 	addi	fp,sp,4
    1698:	e13fff15 	stw	r4,-4(fp)
  free(scroll->string);
    169c:	e0bfff17 	ldw	r2,-4(fp)
    16a0:	11000517 	ldw	r4,20(r2)
    16a4:	00085cc0 	call	85cc <free>
  free(scroll);
    16a8:	e13fff17 	ldw	r4,-4(fp)
    16ac:	00085cc0 	call	85cc <free>
}
    16b0:	e037883a 	mov	sp,fp
    16b4:	dfc00117 	ldw	ra,4(sp)
    16b8:	df000017 	ldw	fp,0(sp)
    16bc:	dec00204 	addi	sp,sp,8
    16c0:	f800283a 	ret

000016c4 <vid_scroll_string_init>:

vid_text_scroll_struct* vid_scroll_string_init(int hbegin, int vbegin, int hend, int f_color, int b_color, char* font, int ms_delay, char *string)
{
    16c4:	defff904 	addi	sp,sp,-28
    16c8:	dfc00615 	stw	ra,24(sp)
    16cc:	df000515 	stw	fp,20(sp)
    16d0:	df000504 	addi	fp,sp,20
    16d4:	e13ffc15 	stw	r4,-16(fp)
    16d8:	e17ffd15 	stw	r5,-12(fp)
    16dc:	e1bffe15 	stw	r6,-8(fp)
    16e0:	e1ffff15 	stw	r7,-4(fp)
  vid_text_scroll_struct* scroll;
  scroll = malloc(sizeof (vid_text_scroll_struct));
    16e4:	01000f04 	movi	r4,60
    16e8:	00085e00 	call	85e0 <malloc>
    16ec:	e0bffb15 	stw	r2,-20(fp)
  
  scroll->hbegin = hbegin;
    16f0:	e0fffb17 	ldw	r3,-20(fp)
    16f4:	e0bffc17 	ldw	r2,-16(fp)
    16f8:	18800015 	stw	r2,0(r3)
  scroll->vbegin = vbegin;
    16fc:	e0fffb17 	ldw	r3,-20(fp)
    1700:	e0bffd17 	ldw	r2,-12(fp)
    1704:	18800115 	stw	r2,4(r3)
  scroll->hend = hend;
    1708:	e0fffb17 	ldw	r3,-20(fp)
    170c:	e0bffe17 	ldw	r2,-8(fp)
    1710:	18800215 	stw	r2,8(r3)
  scroll->f_color = f_color;
    1714:	e0fffb17 	ldw	r3,-20(fp)
    1718:	e0bfff17 	ldw	r2,-4(fp)
    171c:	18800315 	stw	r2,12(r3)
  scroll->b_color = b_color;
    1720:	e0fffb17 	ldw	r3,-20(fp)
    1724:	e0800217 	ldw	r2,8(fp)
    1728:	18800415 	stw	r2,16(r3)
  scroll->string = malloc(strlen(string)+2);
    172c:	e1000517 	ldw	r4,20(fp)
    1730:	00095540 	call	9554 <strlen>
    1734:	11000084 	addi	r4,r2,2
    1738:	00085e00 	call	85e0 <malloc>
    173c:	1007883a 	mov	r3,r2
    1740:	e0bffb17 	ldw	r2,-20(fp)
    1744:	10c00515 	stw	r3,20(r2)
  strcpy(scroll->string, string);
    1748:	e0bffb17 	ldw	r2,-20(fp)
    174c:	11000517 	ldw	r4,20(r2)
    1750:	e1400517 	ldw	r5,20(fp)
    1754:	00094c80 	call	94c8 <strcpy>
  scroll->font = font;
    1758:	e0fffb17 	ldw	r3,-20(fp)
    175c:	e0800317 	ldw	r2,12(fp)
    1760:	18800615 	stw	r2,24(r3)
  scroll->ms_delay = ms_delay;
    1764:	e0fffb17 	ldw	r3,-20(fp)
    1768:	e0800417 	ldw	r2,16(fp)
    176c:	18800715 	stw	r2,28(r3)
 * alt_nticks() returns the elapsed number of system clock ticks since reset.
 */

static ALT_INLINE alt_u32 ALT_ALWAYS_INLINE alt_nticks (void)
{
  return _alt_nticks;
    1770:	008000f4 	movhi	r2,3
    1774:	10991a04 	addi	r2,r2,25704
    1778:	10800017 	ldw	r2,0(r2)
  scroll->ticks_at_last_move = alt_nticks();
    177c:	1007883a 	mov	r3,r2
    1780:	e0bffb17 	ldw	r2,-20(fp)
    1784:	10c00815 	stw	r3,32(r2)
  scroll->text_scroll_index = 0;
    1788:	e0bffb17 	ldw	r2,-20(fp)
    178c:	10000915 	stw	zero,36(r2)
  scroll->text_scroll_started = 0;
    1790:	e0bffb17 	ldw	r2,-20(fp)
    1794:	10000a05 	stb	zero,40(r2)
  scroll->window_width = scroll->hend - scroll->hbegin;
    1798:	e0bffb17 	ldw	r2,-20(fp)
    179c:	10c00217 	ldw	r3,8(r2)
    17a0:	e0bffb17 	ldw	r2,-20(fp)
    17a4:	10800017 	ldw	r2,0(r2)
    17a8:	1887c83a 	sub	r3,r3,r2
    17ac:	e0bffb17 	ldw	r2,-20(fp)
    17b0:	10c00b15 	stw	r3,44(r2)
  scroll->length_of_string = strlen(string);
    17b4:	e1000517 	ldw	r4,20(fp)
    17b8:	00095540 	call	9554 <strlen>
    17bc:	1007883a 	mov	r3,r2
    17c0:	e0bffb17 	ldw	r2,-20(fp)
    17c4:	10c00c15 	stw	r3,48(r2)
  scroll->string_points = scroll->length_of_string * 8;
    17c8:	e0bffb17 	ldw	r2,-20(fp)
    17cc:	10800c17 	ldw	r2,48(r2)
    17d0:	100690fa 	slli	r3,r2,3
    17d4:	e0bffb17 	ldw	r2,-20(fp)
    17d8:	10c00e15 	stw	r3,56(r2)
  scroll->scroll_points = (scroll->window_width + scroll->string_points);
    17dc:	e0bffb17 	ldw	r2,-20(fp)
    17e0:	10c00b17 	ldw	r3,44(r2)
    17e4:	e0bffb17 	ldw	r2,-20(fp)
    17e8:	10800e17 	ldw	r2,56(r2)
    17ec:	1887883a 	add	r3,r3,r2
    17f0:	e0bffb17 	ldw	r2,-20(fp)
    17f4:	10c00d15 	stw	r3,52(r2)
 
  return(scroll);
    17f8:	e0bffb17 	ldw	r2,-20(fp)
  
}
    17fc:	e037883a 	mov	sp,fp
    1800:	dfc00117 	ldw	ra,4(sp)
    1804:	df000017 	ldw	fp,0(sp)
    1808:	dec00204 	addi	sp,sp,8
    180c:	f800283a 	ret

00001810 <vid_scroll_string>:


int vid_scroll_string(vid_text_scroll_struct* scroll, alt_video_display* display)
{
    1810:	deffeb04 	addi	sp,sp,-84
    1814:	dfc01415 	stw	ra,80(sp)
    1818:	df001315 	stw	fp,76(sp)
    181c:	dc401215 	stw	r17,72(sp)
    1820:	dc001115 	stw	r16,68(sp)
    1824:	df001104 	addi	fp,sp,68
    1828:	e13ffc15 	stw	r4,-16(fp)
    182c:	e17ffd15 	stw	r5,-12(fp)

  int x_start, x_end, x_index, string_x_index, string_char_index, char_row, char_column;
  char character, column_mask;
  char* font_char_ptr;
  char pixels_to_move_by = 1;
    1830:	00800044 	movi	r2,1
    1834:	e0bff205 	stb	r2,-56(fp)
    1838:	008000f4 	movhi	r2,3
    183c:	10991a04 	addi	r2,r2,25704
    1840:	10800017 	ldw	r2,0(r2)
    1844:	1021883a 	mov	r16,r2

  // If it's time to move the scroll..
  if (alt_nticks() >= (scroll->ticks_at_last_move + ((alt_ticks_per_second() * (scroll->ms_delay)) / 1000))) {
    1848:	e0bffc17 	ldw	r2,-16(fp)
    184c:	10800817 	ldw	r2,32(r2)
    1850:	1023883a 	mov	r17,r2
 * Obtain the system clock rate in ticks/s. 
 */

static ALT_INLINE alt_u32 ALT_ALWAYS_INLINE alt_ticks_per_second (void)
{
  return _alt_tick_rate;
    1854:	008000f4 	movhi	r2,3
    1858:	10991904 	addi	r2,r2,25700
    185c:	10800017 	ldw	r2,0(r2)
    1860:	1007883a 	mov	r3,r2
    1864:	e0bffc17 	ldw	r2,-16(fp)
    1868:	10800717 	ldw	r2,28(r2)
    186c:	1889383a 	mul	r4,r3,r2
    1870:	0140fa04 	movi	r5,1000
    1874:	000805c0 	call	805c <__udivsi3>
    1878:	8885883a 	add	r2,r17,r2
    187c:	8080ca36 	bltu	r16,r2,1ba8 <vid_scroll_string+0x398>
 * alt_nticks() returns the elapsed number of system clock ticks since reset.
 */

static ALT_INLINE alt_u32 ALT_ALWAYS_INLINE alt_nticks (void)
{
  return _alt_nticks;
    1880:	008000f4 	movhi	r2,3
    1884:	10991a04 	addi	r2,r2,25704
    1888:	10800017 	ldw	r2,0(r2)
    scroll->ticks_at_last_move = alt_nticks();
    188c:	1007883a 	mov	r3,r2
    1890:	e0bffc17 	ldw	r2,-16(fp)
    1894:	10c00815 	stw	r3,32(r2)
    
    // Track where we are in the scroll.
    if(scroll->text_scroll_started == 0) {
    1898:	e0bffc17 	ldw	r2,-16(fp)
    189c:	10800a03 	ldbu	r2,40(r2)
    18a0:	10803fcc 	andi	r2,r2,255
    18a4:	1080201c 	xori	r2,r2,128
    18a8:	10bfe004 	addi	r2,r2,-128
    18ac:	1004c03a 	cmpne	r2,r2,zero
    18b0:	1000061e 	bne	r2,zero,18cc <vid_scroll_string+0xbc>
      scroll->text_scroll_index = 0;
    18b4:	e0bffc17 	ldw	r2,-16(fp)
    18b8:	10000915 	stw	zero,36(r2)
      scroll->text_scroll_started = 1;
    18bc:	e0fffc17 	ldw	r3,-16(fp)
    18c0:	00800044 	movi	r2,1
    18c4:	18800a05 	stb	r2,40(r3)
    18c8:	00000e06 	br	1904 <vid_scroll_string+0xf4>
    } else if(scroll->text_scroll_index >= scroll->scroll_points)  {
    18cc:	e0bffc17 	ldw	r2,-16(fp)
    18d0:	10c00917 	ldw	r3,36(r2)
    18d4:	e0bffc17 	ldw	r2,-16(fp)
    18d8:	10800d17 	ldw	r2,52(r2)
    18dc:	18800316 	blt	r3,r2,18ec <vid_scroll_string+0xdc>
      scroll->text_scroll_started = 0;
    18e0:	e0bffc17 	ldw	r2,-16(fp)
    18e4:	10000a05 	stb	zero,40(r2)
    18e8:	00000606 	br	1904 <vid_scroll_string+0xf4>
    } else {
      scroll->text_scroll_index += pixels_to_move_by;
    18ec:	e0bffc17 	ldw	r2,-16(fp)
    18f0:	10c00917 	ldw	r3,36(r2)
    18f4:	e0bff207 	ldb	r2,-56(fp)
    18f8:	1887883a 	add	r3,r3,r2
    18fc:	e0bffc17 	ldw	r2,-16(fp)
    1900:	10c00915 	stw	r3,36(r2)
    }
    
    //Find out where we start
    if (scroll->text_scroll_index < scroll->window_width) {
    1904:	e0bffc17 	ldw	r2,-16(fp)
    1908:	10c00917 	ldw	r3,36(r2)
    190c:	e0bffc17 	ldw	r2,-16(fp)
    1910:	10800b17 	ldw	r2,44(r2)
    1914:	18800a0e 	bge	r3,r2,1940 <vid_scroll_string+0x130>
      x_start = scroll->hbegin + scroll->window_width - scroll->text_scroll_index;
    1918:	e0bffc17 	ldw	r2,-16(fp)
    191c:	10c00017 	ldw	r3,0(r2)
    1920:	e0bffc17 	ldw	r2,-16(fp)
    1924:	10800b17 	ldw	r2,44(r2)
    1928:	1887883a 	add	r3,r3,r2
    192c:	e0bffc17 	ldw	r2,-16(fp)
    1930:	10800917 	ldw	r2,36(r2)
    1934:	1885c83a 	sub	r2,r3,r2
    1938:	e0bffb15 	stw	r2,-20(fp)
    193c:	00000306 	br	194c <vid_scroll_string+0x13c>
    } else {
      x_start = scroll->hbegin;
    1940:	e0bffc17 	ldw	r2,-16(fp)
    1944:	10800017 	ldw	r2,0(r2)
    1948:	e0bffb15 	stw	r2,-20(fp)
    }
    //Find out where we end
    if (scroll->string_points > scroll->text_scroll_index) {
    194c:	e0bffc17 	ldw	r2,-16(fp)
    1950:	10c00e17 	ldw	r3,56(r2)
    1954:	e0bffc17 	ldw	r2,-16(fp)
    1958:	10800917 	ldw	r2,36(r2)
    195c:	10c0040e 	bge	r2,r3,1970 <vid_scroll_string+0x160>
      x_end = scroll->hend;
    1960:	e0bffc17 	ldw	r2,-16(fp)
    1964:	10800217 	ldw	r2,8(r2)
    1968:	e0bffa15 	stw	r2,-24(fp)
    196c:	00000906 	br	1994 <vid_scroll_string+0x184>
    } else {
      x_end = (scroll->hend - scroll->text_scroll_index + scroll->string_points);
    1970:	e0bffc17 	ldw	r2,-16(fp)
    1974:	10c00217 	ldw	r3,8(r2)
    1978:	e0bffc17 	ldw	r2,-16(fp)
    197c:	10800917 	ldw	r2,36(r2)
    1980:	1887c83a 	sub	r3,r3,r2
    1984:	e0bffc17 	ldw	r2,-16(fp)
    1988:	10800e17 	ldw	r2,56(r2)
    198c:	1885883a 	add	r2,r3,r2
    1990:	e0bffa15 	stw	r2,-24(fp)
    }

    // Write the string segment a column (x) at a time
    for(x_index = x_start; x_index < x_end; x_index++) {
    1994:	e0bffb17 	ldw	r2,-20(fp)
    1998:	e0bff915 	stw	r2,-28(fp)
    199c:	00007006 	br	1b60 <vid_scroll_string+0x350>
      // Find the x index we're at within the string
      // If first part of string hasnt yet reached left side of scroll window
      if (scroll->text_scroll_index < scroll->window_width) {
    19a0:	e0bffc17 	ldw	r2,-16(fp)
    19a4:	10c00917 	ldw	r3,36(r2)
    19a8:	e0bffc17 	ldw	r2,-16(fp)
    19ac:	10800b17 	ldw	r2,44(r2)
    19b0:	1880050e 	bge	r3,r2,19c8 <vid_scroll_string+0x1b8>
        string_x_index = (x_index - x_start);
    19b4:	e0bff917 	ldw	r2,-28(fp)
    19b8:	e0fffb17 	ldw	r3,-20(fp)
    19bc:	10c5c83a 	sub	r2,r2,r3
    19c0:	e0bff815 	stw	r2,-32(fp)
    19c4:	00000a06 	br	19f0 <vid_scroll_string+0x1e0>
      } else {
        string_x_index = scroll->text_scroll_index - scroll->window_width + x_index - x_start;
    19c8:	e0bffc17 	ldw	r2,-16(fp)
    19cc:	10c00917 	ldw	r3,36(r2)
    19d0:	e0bffc17 	ldw	r2,-16(fp)
    19d4:	10800b17 	ldw	r2,44(r2)
    19d8:	1887c83a 	sub	r3,r3,r2
    19dc:	e0bff917 	ldw	r2,-28(fp)
    19e0:	1887883a 	add	r3,r3,r2
    19e4:	e0bffb17 	ldw	r2,-20(fp)
    19e8:	1885c83a 	sub	r2,r3,r2
    19ec:	e0bff815 	stw	r2,-32(fp)
      }
      //Find the character we're supposed to be writing
      string_char_index = (string_x_index / 8);
    19f0:	e0bff817 	ldw	r2,-32(fp)
    19f4:	e0bffe15 	stw	r2,-8(fp)
    19f8:	e0fffe17 	ldw	r3,-8(fp)
    19fc:	1804403a 	cmpge	r2,r3,zero
    1a00:	1000031e 	bne	r2,zero,1a10 <vid_scroll_string+0x200>
    1a04:	e0bffe17 	ldw	r2,-8(fp)
    1a08:	108001c4 	addi	r2,r2,7
    1a0c:	e0bffe15 	stw	r2,-8(fp)
    1a10:	e0fffe17 	ldw	r3,-8(fp)
    1a14:	1805d0fa 	srai	r2,r3,3
    1a18:	e0bff715 	stw	r2,-36(fp)
      character = scroll->string[string_char_index];
    1a1c:	e0bffc17 	ldw	r2,-16(fp)
    1a20:	10c00517 	ldw	r3,20(r2)
    1a24:	e0bff717 	ldw	r2,-36(fp)
    1a28:	1885883a 	add	r2,r3,r2
    1a2c:	10800003 	ldbu	r2,0(r2)
    1a30:	e0bff445 	stb	r2,-47(fp)
      char_column = (string_x_index % 8);
    1a34:	e0fff817 	ldw	r3,-32(fp)
    1a38:	00a00034 	movhi	r2,32768
    1a3c:	108001c4 	addi	r2,r2,7
    1a40:	1886703a 	and	r3,r3,r2
    1a44:	e0ffff15 	stw	r3,-4(fp)
    1a48:	e0ffff17 	ldw	r3,-4(fp)
    1a4c:	1804403a 	cmpge	r2,r3,zero
    1a50:	10000a1e 	bne	r2,zero,1a7c <vid_scroll_string+0x26c>
    1a54:	e0bfff17 	ldw	r2,-4(fp)
    1a58:	10bfffc4 	addi	r2,r2,-1
    1a5c:	e0bfff15 	stw	r2,-4(fp)
    1a60:	00bffe04 	movi	r2,-8
    1a64:	e0ffff17 	ldw	r3,-4(fp)
    1a68:	1886b03a 	or	r3,r3,r2
    1a6c:	e0ffff15 	stw	r3,-4(fp)
    1a70:	e0bfff17 	ldw	r2,-4(fp)
    1a74:	10800044 	addi	r2,r2,1
    1a78:	e0bfff15 	stw	r2,-4(fp)
    1a7c:	e0ffff17 	ldw	r3,-4(fp)
    1a80:	e0fff515 	stw	r3,-44(fp)
      column_mask = (((unsigned int)0x80) >> char_column);
    1a84:	00c02004 	movi	r3,128
    1a88:	e0bff517 	ldw	r2,-44(fp)
    1a8c:	1884d83a 	srl	r2,r3,r2
    1a90:	e0bff405 	stb	r2,-48(fp)
      font_char_ptr = (scroll->font + ((character - 0x20) * FONT_10PT_ROW));
    1a94:	e0bffc17 	ldw	r2,-16(fp)
    1a98:	10c00617 	ldw	r3,24(r2)
    1a9c:	e0bff447 	ldb	r2,-47(fp)
    1aa0:	108002e4 	muli	r2,r2,11
    1aa4:	1885883a 	add	r2,r3,r2
    1aa8:	10bfa804 	addi	r2,r2,-352
    1aac:	e0bff315 	stw	r2,-52(fp)
      //We have all the data now, so let's write a column
      for(char_row = 0; char_row < 11; char_row++) {
    1ab0:	e03ff615 	stw	zero,-40(fp)
    1ab4:	00002406 	br	1b48 <vid_scroll_string+0x338>
        // If the font table says this pixel is on, then set it to the foreground color
        if (*(font_char_ptr + char_row) & column_mask) {
    1ab8:	e0bff617 	ldw	r2,-40(fp)
    1abc:	1007883a 	mov	r3,r2
    1ac0:	e0bff317 	ldw	r2,-52(fp)
    1ac4:	1885883a 	add	r2,r3,r2
    1ac8:	10c00003 	ldbu	r3,0(r2)
    1acc:	e0bff403 	ldbu	r2,-48(fp)
    1ad0:	1884703a 	and	r2,r3,r2
    1ad4:	10803fcc 	andi	r2,r2,255
    1ad8:	1080201c 	xori	r2,r2,128
    1adc:	10bfe004 	addi	r2,r2,-128
    1ae0:	1005003a 	cmpeq	r2,r2,zero
    1ae4:	10000b1e 	bne	r2,zero,1b14 <vid_scroll_string+0x304>
          vid_set_pixel(x_index, scroll->vbegin + char_row, scroll->f_color, display); 
    1ae8:	e0bffc17 	ldw	r2,-16(fp)
    1aec:	10c00117 	ldw	r3,4(r2)
    1af0:	e0bff617 	ldw	r2,-40(fp)
    1af4:	188b883a 	add	r5,r3,r2
    1af8:	e0bffc17 	ldw	r2,-16(fp)
    1afc:	10800317 	ldw	r2,12(r2)
    1b00:	100d883a 	mov	r6,r2
    1b04:	e13ff917 	ldw	r4,-28(fp)
    1b08:	e1fffd17 	ldw	r7,-12(fp)
    1b0c:	000201c0 	call	201c <vid_set_pixel>
    1b10:	00000a06 	br	1b3c <vid_scroll_string+0x32c>
        // Otherwise, set it to the background color.
        } else {
          vid_set_pixel(x_index, scroll->vbegin + char_row, scroll->b_color, display); //background color
    1b14:	e0bffc17 	ldw	r2,-16(fp)
    1b18:	10c00117 	ldw	r3,4(r2)
    1b1c:	e0bff617 	ldw	r2,-40(fp)
    1b20:	188b883a 	add	r5,r3,r2
    1b24:	e0bffc17 	ldw	r2,-16(fp)
    1b28:	10800417 	ldw	r2,16(r2)
    1b2c:	100d883a 	mov	r6,r2
    1b30:	e13ff917 	ldw	r4,-28(fp)
    1b34:	e1fffd17 	ldw	r7,-12(fp)
    1b38:	000201c0 	call	201c <vid_set_pixel>
      character = scroll->string[string_char_index];
      char_column = (string_x_index % 8);
      column_mask = (((unsigned int)0x80) >> char_column);
      font_char_ptr = (scroll->font + ((character - 0x20) * FONT_10PT_ROW));
      //We have all the data now, so let's write a column
      for(char_row = 0; char_row < 11; char_row++) {
    1b3c:	e0bff617 	ldw	r2,-40(fp)
    1b40:	10800044 	addi	r2,r2,1
    1b44:	e0bff615 	stw	r2,-40(fp)
    1b48:	e0bff617 	ldw	r2,-40(fp)
    1b4c:	108002d0 	cmplti	r2,r2,11
    1b50:	103fd91e 	bne	r2,zero,1ab8 <vid_scroll_string+0x2a8>
    } else {
      x_end = (scroll->hend - scroll->text_scroll_index + scroll->string_points);
    }

    // Write the string segment a column (x) at a time
    for(x_index = x_start; x_index < x_end; x_index++) {
    1b54:	e0bff917 	ldw	r2,-28(fp)
    1b58:	10800044 	addi	r2,r2,1
    1b5c:	e0bff915 	stw	r2,-28(fp)
    1b60:	e0fff917 	ldw	r3,-28(fp)
    1b64:	e0bffa17 	ldw	r2,-24(fp)
    1b68:	18bf8d16 	blt	r3,r2,19a0 <vid_scroll_string+0x190>
          vid_set_pixel(x_index, scroll->vbegin + char_row, scroll->b_color, display); //background color
        }
      }
    }
    // Erase the leftover column (x) of the last string we wrote.
    vid_draw_line(x_end, scroll->vbegin, x_end, scroll->vbegin + 10, 1, scroll->b_color, display);
    1b6c:	e0bffc17 	ldw	r2,-16(fp)
    1b70:	11400117 	ldw	r5,4(r2)
    1b74:	e0bffc17 	ldw	r2,-16(fp)
    1b78:	10800117 	ldw	r2,4(r2)
    1b7c:	11c00284 	addi	r7,r2,10
    1b80:	e0bffc17 	ldw	r2,-16(fp)
    1b84:	10c00417 	ldw	r3,16(r2)
    1b88:	00800044 	movi	r2,1
    1b8c:	d8800015 	stw	r2,0(sp)
    1b90:	d8c00115 	stw	r3,4(sp)
    1b94:	e0bffd17 	ldw	r2,-12(fp)
    1b98:	d8800215 	stw	r2,8(sp)
    1b9c:	e13ffa17 	ldw	r4,-24(fp)
    1ba0:	e1bffa17 	ldw	r6,-24(fp)
    1ba4:	00015cc0 	call	15cc <vid_draw_line>
    // Log what time we moved the scroll.
  }
  return(0);
    1ba8:	0005883a 	mov	r2,zero
}
    1bac:	e037883a 	mov	sp,fp
    1bb0:	dfc00317 	ldw	ra,12(sp)
    1bb4:	df000217 	ldw	fp,8(sp)
    1bb8:	dc400117 	ldw	r17,4(sp)
    1bbc:	dc000017 	ldw	r16,0(sp)
    1bc0:	dec00404 	addi	sp,sp,16
    1bc4:	f800283a 	ret

00001bc8 <vid_move_block>:
*           the backfill_color parameter.
*
******************************************************************/

int vid_move_block(int xbegin, int ybegin, int xend, int yend, int x_distance, int y_distance, int backfill_color, alt_video_display* display)
{
    1bc8:	defff504 	addi	sp,sp,-44
    1bcc:	dfc00a15 	stw	ra,40(sp)
    1bd0:	df000915 	stw	fp,36(sp)
    1bd4:	df000904 	addi	fp,sp,36
    1bd8:	e13ffc15 	stw	r4,-16(fp)
    1bdc:	e17ffd15 	stw	r5,-12(fp)
    1be0:	e1bffe15 	stw	r6,-8(fp)
    1be4:	e1ffff15 	stw	r7,-4(fp)
  int read_x, read_y, write_x, write_y;
  short temp_pixel;
  
  if(x_distance <= 0 && y_distance <= 0) {  
    1be8:	e0800217 	ldw	r2,8(fp)
    1bec:	10800048 	cmpgei	r2,r2,1
    1bf0:	1000361e 	bne	r2,zero,1ccc <vid_move_block+0x104>
    1bf4:	e0800317 	ldw	r2,12(fp)
    1bf8:	10800048 	cmpgei	r2,r2,1
    1bfc:	1000331e 	bne	r2,zero,1ccc <vid_move_block+0x104>
    //Move by rows because they are contiguous in memory (could help speed if in SDRAM)
    for (read_y = ybegin; read_y < yend; read_y++) {
    1c00:	e0bffd17 	ldw	r2,-12(fp)
    1c04:	e0bffa15 	stw	r2,-24(fp)
    1c08:	00002d06 	br	1cc0 <vid_move_block+0xf8>
      write_y = read_y + y_distance;
    1c0c:	e0fffa17 	ldw	r3,-24(fp)
    1c10:	e0800317 	ldw	r2,12(fp)
    1c14:	1885883a 	add	r2,r3,r2
    1c18:	e0bff815 	stw	r2,-32(fp)
      for(read_x = xbegin; read_x < xend; read_x++) {
    1c1c:	e0bffc17 	ldw	r2,-16(fp)
    1c20:	e0bffb15 	stw	r2,-20(fp)
    1c24:	00002006 	br	1ca8 <vid_move_block+0xe0>
        write_x = read_x + x_distance;
    1c28:	e0fffb17 	ldw	r3,-20(fp)
    1c2c:	e0800217 	ldw	r2,8(fp)
    1c30:	1885883a 	add	r2,r3,r2
    1c34:	e0bff915 	stw	r2,-28(fp)
        temp_pixel = vid_get_pixel(read_x, read_y, display);
    1c38:	e13ffb17 	ldw	r4,-20(fp)
    1c3c:	e17ffa17 	ldw	r5,-24(fp)
    1c40:	e1800517 	ldw	r6,20(fp)
    1c44:	00022440 	call	2244 <vid_get_pixel>
    1c48:	e0bff70d 	sth	r2,-36(fp)
        vid_set_pixel(write_x, write_y, temp_pixel, display);
    1c4c:	e1bff70f 	ldh	r6,-36(fp)
    1c50:	e13ff917 	ldw	r4,-28(fp)
    1c54:	e17ff817 	ldw	r5,-32(fp)
    1c58:	e1c00517 	ldw	r7,20(fp)
    1c5c:	000201c0 	call	201c <vid_set_pixel>
        if(read_x >= xend + x_distance || read_y >= yend + y_distance) 
    1c60:	e0fffe17 	ldw	r3,-8(fp)
    1c64:	e0800217 	ldw	r2,8(fp)
    1c68:	1887883a 	add	r3,r3,r2
    1c6c:	e0bffb17 	ldw	r2,-20(fp)
    1c70:	10c0050e 	bge	r2,r3,1c88 <vid_move_block+0xc0>
    1c74:	e0ffff17 	ldw	r3,-4(fp)
    1c78:	e0800317 	ldw	r2,12(fp)
    1c7c:	1887883a 	add	r3,r3,r2
    1c80:	e0bffa17 	ldw	r2,-24(fp)
    1c84:	10c00516 	blt	r2,r3,1c9c <vid_move_block+0xd4>
        {
	        vid_set_pixel(read_x, read_y, backfill_color, display);
    1c88:	e1800417 	ldw	r6,16(fp)
    1c8c:	e13ffb17 	ldw	r4,-20(fp)
    1c90:	e17ffa17 	ldw	r5,-24(fp)
    1c94:	e1c00517 	ldw	r7,20(fp)
    1c98:	000201c0 	call	201c <vid_set_pixel>
  
  if(x_distance <= 0 && y_distance <= 0) {  
    //Move by rows because they are contiguous in memory (could help speed if in SDRAM)
    for (read_y = ybegin; read_y < yend; read_y++) {
      write_y = read_y + y_distance;
      for(read_x = xbegin; read_x < xend; read_x++) {
    1c9c:	e0bffb17 	ldw	r2,-20(fp)
    1ca0:	10800044 	addi	r2,r2,1
    1ca4:	e0bffb15 	stw	r2,-20(fp)
    1ca8:	e0fffb17 	ldw	r3,-20(fp)
    1cac:	e0bffe17 	ldw	r2,-8(fp)
    1cb0:	18bfdd16 	blt	r3,r2,1c28 <vid_move_block+0x60>
  int read_x, read_y, write_x, write_y;
  short temp_pixel;
  
  if(x_distance <= 0 && y_distance <= 0) {  
    //Move by rows because they are contiguous in memory (could help speed if in SDRAM)
    for (read_y = ybegin; read_y < yend; read_y++) {
    1cb4:	e0bffa17 	ldw	r2,-24(fp)
    1cb8:	10800044 	addi	r2,r2,1
    1cbc:	e0bffa15 	stw	r2,-24(fp)
    1cc0:	e0fffa17 	ldw	r3,-24(fp)
    1cc4:	e0bfff17 	ldw	r2,-4(fp)
    1cc8:	18bfd016 	blt	r3,r2,1c0c <vid_move_block+0x44>
	        vid_set_pixel(read_x, read_y, backfill_color, display);
        }
      }
    }
  }
  return (0);
    1ccc:	0005883a 	mov	r2,zero
}
    1cd0:	e037883a 	mov	sp,fp
    1cd4:	dfc00117 	ldw	ra,4(sp)
    1cd8:	df000017 	ldw	fp,0(sp)
    1cdc:	dec00204 	addi	sp,sp,8
    1ce0:	f800283a 	ret

00001ce4 <vid_print_string>:
*           using the specified font and color.
*           Calls vid_print_char
*
******************************************************************/
int vid_print_string(int horiz_offset, int vert_offset, int color, char *font, alt_video_display* display, char string[])
{
    1ce4:	defff604 	addi	sp,sp,-40
    1ce8:	dfc00915 	stw	ra,36(sp)
    1cec:	df000815 	stw	fp,32(sp)
    1cf0:	df000804 	addi	fp,sp,32
    1cf4:	e13ffc15 	stw	r4,-16(fp)
    1cf8:	e17ffd15 	stw	r5,-12(fp)
    1cfc:	e1bffe15 	stw	r6,-8(fp)
    1d00:	e1ffff15 	stw	r7,-4(fp)
  int i = 0;
    1d04:	e03ffb15 	stw	zero,-20(fp)
  int original_horiz_offset;

  original_horiz_offset = horiz_offset;
    1d08:	e0bffc17 	ldw	r2,-16(fp)
    1d0c:	e0bffa15 	stw	r2,-24(fp)

  // Print until we hit the '\0' char.
  while (string[i]) {
    1d10:	00002906 	br	1db8 <vid_print_string+0xd4>
    //Handle newline char here.
    if (string[i] == '\n') {
    1d14:	e0bffb17 	ldw	r2,-20(fp)
    1d18:	1007883a 	mov	r3,r2
    1d1c:	e0800317 	ldw	r2,12(fp)
    1d20:	1885883a 	add	r2,r3,r2
    1d24:	10800003 	ldbu	r2,0(r2)
    1d28:	10803fcc 	andi	r2,r2,255
    1d2c:	1080201c 	xori	r2,r2,128
    1d30:	10bfe004 	addi	r2,r2,-128
    1d34:	10800298 	cmpnei	r2,r2,10
    1d38:	1000091e 	bne	r2,zero,1d60 <vid_print_string+0x7c>
      horiz_offset = original_horiz_offset;
    1d3c:	e0bffa17 	ldw	r2,-24(fp)
    1d40:	e0bffc15 	stw	r2,-16(fp)
      vert_offset += 12;
    1d44:	e0bffd17 	ldw	r2,-12(fp)
    1d48:	10800304 	addi	r2,r2,12
    1d4c:	e0bffd15 	stw	r2,-12(fp)
      i++;
    1d50:	e0bffb17 	ldw	r2,-20(fp)
    1d54:	10800044 	addi	r2,r2,1
    1d58:	e0bffb15 	stw	r2,-20(fp)
      continue;
    1d5c:	00001606 	br	1db8 <vid_print_string+0xd4>
    }
    // Lay down that character and increment our offsets.
    vid_print_char (horiz_offset, vert_offset, color, string[i], font, display);
    1d60:	e0bffb17 	ldw	r2,-20(fp)
    1d64:	1007883a 	mov	r3,r2
    1d68:	e0800317 	ldw	r2,12(fp)
    1d6c:	1885883a 	add	r2,r3,r2
    1d70:	10800003 	ldbu	r2,0(r2)
    1d74:	11c03fcc 	andi	r7,r2,255
    1d78:	39c0201c 	xori	r7,r7,128
    1d7c:	39ffe004 	addi	r7,r7,-128
    1d80:	e0bfff17 	ldw	r2,-4(fp)
    1d84:	d8800015 	stw	r2,0(sp)
    1d88:	e0800217 	ldw	r2,8(fp)
    1d8c:	d8800115 	stw	r2,4(sp)
    1d90:	e13ffc17 	ldw	r4,-16(fp)
    1d94:	e17ffd17 	ldw	r5,-12(fp)
    1d98:	e1bffe17 	ldw	r6,-8(fp)
    1d9c:	0001f340 	call	1f34 <vid_print_char>
    i++;
    1da0:	e0bffb17 	ldw	r2,-20(fp)
    1da4:	10800044 	addi	r2,r2,1
    1da8:	e0bffb15 	stw	r2,-20(fp)
    horiz_offset += 8;
    1dac:	e0bffc17 	ldw	r2,-16(fp)
    1db0:	10800204 	addi	r2,r2,8
    1db4:	e0bffc15 	stw	r2,-16(fp)
  int original_horiz_offset;

  original_horiz_offset = horiz_offset;

  // Print until we hit the '\0' char.
  while (string[i]) {
    1db8:	e0bffb17 	ldw	r2,-20(fp)
    1dbc:	1007883a 	mov	r3,r2
    1dc0:	e0800317 	ldw	r2,12(fp)
    1dc4:	1885883a 	add	r2,r3,r2
    1dc8:	10800003 	ldbu	r2,0(r2)
    1dcc:	10803fcc 	andi	r2,r2,255
    1dd0:	1080201c 	xori	r2,r2,128
    1dd4:	10bfe004 	addi	r2,r2,-128
    1dd8:	1004c03a 	cmpne	r2,r2,zero
    1ddc:	103fcd1e 	bne	r2,zero,1d14 <vid_print_string+0x30>
    // Lay down that character and increment our offsets.
    vid_print_char (horiz_offset, vert_offset, color, string[i], font, display);
    i++;
    horiz_offset += 8;
  }
  return (0);
    1de0:	0005883a 	mov	r2,zero
}
    1de4:	e037883a 	mov	sp,fp
    1de8:	dfc00117 	ldw	ra,4(sp)
    1dec:	df000017 	ldw	fp,0(sp)
    1df0:	dec00204 	addi	sp,sp,8
    1df4:	f800283a 	ret

00001df8 <vid_draw_box>:
*  points.  The fill parameter tells the function whether or not
*  to fill in the box.  1 = fill, 0 = do not fill.
*
******************************************************************/
int vid_draw_box (int horiz_start, int vert_start, int horiz_end, int vert_end, int color, int fill, alt_video_display* display)
{
    1df8:	defff704 	addi	sp,sp,-36
    1dfc:	dfc00815 	stw	ra,32(sp)
    1e00:	df000715 	stw	fp,28(sp)
    1e04:	df000704 	addi	fp,sp,28
    1e08:	e13ffc15 	stw	r4,-16(fp)
    1e0c:	e17ffd15 	stw	r5,-12(fp)
    1e10:	e1bffe15 	stw	r6,-8(fp)
    1e14:	e1ffff15 	stw	r7,-4(fp)

  // If we want to fill in our box
  if (fill) {
    1e18:	e0800317 	ldw	r2,12(fp)
    1e1c:	1005003a 	cmpeq	r2,r2,zero
    1e20:	10000a1e 	bne	r2,zero,1e4c <vid_draw_box+0x54>
     vid_paint_block (horiz_start, vert_start, horiz_end, vert_end, color, display);
    1e24:	e0800217 	ldw	r2,8(fp)
    1e28:	d8800015 	stw	r2,0(sp)
    1e2c:	e0800417 	ldw	r2,16(fp)
    1e30:	d8800115 	stw	r2,4(sp)
    1e34:	e13ffc17 	ldw	r4,-16(fp)
    1e38:	e17ffd17 	ldw	r5,-12(fp)
    1e3c:	e1bffe17 	ldw	r6,-8(fp)
    1e40:	e1ffff17 	ldw	r7,-4(fp)
    1e44:	00022cc0 	call	22cc <vid_paint_block>
    1e48:	00003406 	br	1f1c <vid_draw_box+0x124>
  // If we're not filling in the box, just draw four lines.
  } else {
    vid_draw_line(horiz_start, vert_start, horiz_start, vert_end-1, 1, color, display);
    1e4c:	e0bfff17 	ldw	r2,-4(fp)
    1e50:	11ffffc4 	addi	r7,r2,-1
    1e54:	00800044 	movi	r2,1
    1e58:	d8800015 	stw	r2,0(sp)
    1e5c:	e0800217 	ldw	r2,8(fp)
    1e60:	d8800115 	stw	r2,4(sp)
    1e64:	e0800417 	ldw	r2,16(fp)
    1e68:	d8800215 	stw	r2,8(sp)
    1e6c:	e13ffc17 	ldw	r4,-16(fp)
    1e70:	e17ffd17 	ldw	r5,-12(fp)
    1e74:	e1bffc17 	ldw	r6,-16(fp)
    1e78:	00015cc0 	call	15cc <vid_draw_line>
    vid_draw_line(horiz_end-1, vert_start, horiz_end-1, vert_end-1, 1, color, display);
    1e7c:	e0bffe17 	ldw	r2,-8(fp)
    1e80:	113fffc4 	addi	r4,r2,-1
    1e84:	e0bffe17 	ldw	r2,-8(fp)
    1e88:	11bfffc4 	addi	r6,r2,-1
    1e8c:	e0bfff17 	ldw	r2,-4(fp)
    1e90:	11ffffc4 	addi	r7,r2,-1
    1e94:	00800044 	movi	r2,1
    1e98:	d8800015 	stw	r2,0(sp)
    1e9c:	e0800217 	ldw	r2,8(fp)
    1ea0:	d8800115 	stw	r2,4(sp)
    1ea4:	e0800417 	ldw	r2,16(fp)
    1ea8:	d8800215 	stw	r2,8(sp)
    1eac:	e17ffd17 	ldw	r5,-12(fp)
    1eb0:	00015cc0 	call	15cc <vid_draw_line>
    vid_draw_line(horiz_start, vert_start, horiz_end-1, vert_start, 1, color, display);
    1eb4:	e0bffe17 	ldw	r2,-8(fp)
    1eb8:	11bfffc4 	addi	r6,r2,-1
    1ebc:	00800044 	movi	r2,1
    1ec0:	d8800015 	stw	r2,0(sp)
    1ec4:	e0800217 	ldw	r2,8(fp)
    1ec8:	d8800115 	stw	r2,4(sp)
    1ecc:	e0800417 	ldw	r2,16(fp)
    1ed0:	d8800215 	stw	r2,8(sp)
    1ed4:	e13ffc17 	ldw	r4,-16(fp)
    1ed8:	e17ffd17 	ldw	r5,-12(fp)
    1edc:	e1fffd17 	ldw	r7,-12(fp)
    1ee0:	00015cc0 	call	15cc <vid_draw_line>
    vid_draw_line(horiz_start, vert_end-1, horiz_end-1, vert_end-1, 1, color, display);
    1ee4:	e0bfff17 	ldw	r2,-4(fp)
    1ee8:	117fffc4 	addi	r5,r2,-1
    1eec:	e0bffe17 	ldw	r2,-8(fp)
    1ef0:	11bfffc4 	addi	r6,r2,-1
    1ef4:	e0bfff17 	ldw	r2,-4(fp)
    1ef8:	11ffffc4 	addi	r7,r2,-1
    1efc:	00800044 	movi	r2,1
    1f00:	d8800015 	stw	r2,0(sp)
    1f04:	e0800217 	ldw	r2,8(fp)
    1f08:	d8800115 	stw	r2,4(sp)
    1f0c:	e0800417 	ldw	r2,16(fp)
    1f10:	d8800215 	stw	r2,8(sp)
    1f14:	e13ffc17 	ldw	r4,-16(fp)
    1f18:	00015cc0 	call	15cc <vid_draw_line>
  }

  return (0);
    1f1c:	0005883a 	mov	r2,zero
}
    1f20:	e037883a 	mov	sp,fp
    1f24:	dfc00117 	ldw	ra,4(sp)
    1f28:	df000017 	ldw	fp,0(sp)
    1f2c:	dec00204 	addi	sp,sp,8
    1f30:	f800283a 	ret

00001f34 <vid_print_char>:
*           screen using the specified font and color.
*
******************************************************************/

int vid_print_char (int horiz_offset, int vert_offset, int color, char character, char *font, alt_video_display* display)
{
    1f34:	defff704 	addi	sp,sp,-36
    1f38:	dfc00815 	stw	ra,32(sp)
    1f3c:	df000715 	stw	fp,28(sp)
    1f40:	df000704 	addi	fp,sp,28
    1f44:	e13ffc15 	stw	r4,-16(fp)
    1f48:	e17ffd15 	stw	r5,-12(fp)
    1f4c:	e1bffe15 	stw	r6,-8(fp)
    1f50:	e1ffff05 	stb	r7,-4(fp)
  int i, j;
  
  char temp_char, char_row;

  // Convert the ASCII value to an array offset
  temp_char = (character - 0x20);
    1f54:	e0bfff03 	ldbu	r2,-4(fp)
    1f58:	10bff804 	addi	r2,r2,-32
    1f5c:	e0bff945 	stb	r2,-27(fp)

  //Each character is 8 pixels wide and 11 tall.
  for(i = 0; i < 11; i++) {
    1f60:	e03ffb15 	stw	zero,-20(fp)
    1f64:	00002406 	br	1ff8 <vid_print_char+0xc4>
      char_row = *(font + (temp_char * FONT_10PT_ROW) + i);
    1f68:	e0bff947 	ldb	r2,-27(fp)
    1f6c:	108002e4 	muli	r2,r2,11
    1f70:	1007883a 	mov	r3,r2
    1f74:	e0800217 	ldw	r2,8(fp)
    1f78:	1887883a 	add	r3,r3,r2
    1f7c:	e0bffb17 	ldw	r2,-20(fp)
    1f80:	1885883a 	add	r2,r3,r2
    1f84:	10800003 	ldbu	r2,0(r2)
    1f88:	e0bff905 	stb	r2,-28(fp)
    for (j = 0; j < 8; j++) {
    1f8c:	e03ffa15 	stw	zero,-24(fp)
    1f90:	00001306 	br	1fe0 <vid_print_char+0xac>
      //If the font table says the pixel in this location is on for this character, then set it.
      if (char_row & (((unsigned char)0x80) >> j)) {
    1f94:	e13ff907 	ldb	r4,-28(fp)
    1f98:	00c02004 	movi	r3,128
    1f9c:	e0bffa17 	ldw	r2,-24(fp)
    1fa0:	1885d83a 	sra	r2,r3,r2
    1fa4:	2084703a 	and	r2,r4,r2
    1fa8:	1005003a 	cmpeq	r2,r2,zero
    1fac:	1000091e 	bne	r2,zero,1fd4 <vid_print_char+0xa0>
        vid_set_pixel((horiz_offset + j), (vert_offset + i), color, display); // plot the pixel
    1fb0:	e0fffc17 	ldw	r3,-16(fp)
    1fb4:	e0bffa17 	ldw	r2,-24(fp)
    1fb8:	1889883a 	add	r4,r3,r2
    1fbc:	e0fffd17 	ldw	r3,-12(fp)
    1fc0:	e0bffb17 	ldw	r2,-20(fp)
    1fc4:	188b883a 	add	r5,r3,r2
    1fc8:	e1bffe17 	ldw	r6,-8(fp)
    1fcc:	e1c00317 	ldw	r7,12(fp)
    1fd0:	000201c0 	call	201c <vid_set_pixel>
  temp_char = (character - 0x20);

  //Each character is 8 pixels wide and 11 tall.
  for(i = 0; i < 11; i++) {
      char_row = *(font + (temp_char * FONT_10PT_ROW) + i);
    for (j = 0; j < 8; j++) {
    1fd4:	e0bffa17 	ldw	r2,-24(fp)
    1fd8:	10800044 	addi	r2,r2,1
    1fdc:	e0bffa15 	stw	r2,-24(fp)
    1fe0:	e0bffa17 	ldw	r2,-24(fp)
    1fe4:	10800210 	cmplti	r2,r2,8
    1fe8:	103fea1e 	bne	r2,zero,1f94 <vid_print_char+0x60>

  // Convert the ASCII value to an array offset
  temp_char = (character - 0x20);

  //Each character is 8 pixels wide and 11 tall.
  for(i = 0; i < 11; i++) {
    1fec:	e0bffb17 	ldw	r2,-20(fp)
    1ff0:	10800044 	addi	r2,r2,1
    1ff4:	e0bffb15 	stw	r2,-20(fp)
    1ff8:	e0bffb17 	ldw	r2,-20(fp)
    1ffc:	108002d0 	cmplti	r2,r2,11
    2000:	103fd91e 	bne	r2,zero,1f68 <vid_print_char+0x34>
      if (char_row & (((unsigned char)0x80) >> j)) {
        vid_set_pixel((horiz_offset + j), (vert_offset + i), color, display); // plot the pixel
      }
    }
  }
  return(0);
    2004:	0005883a 	mov	r2,zero
}
    2008:	e037883a 	mov	sp,fp
    200c:	dfc00117 	ldw	ra,4(sp)
    2010:	df000017 	ldw	fp,0(sp)
    2014:	dec00204 	addi	sp,sp,8
    2018:	f800283a 	ret

0000201c <vid_set_pixel>:
*           efficient when painting large areas of the screen.
*
******************************************************************/

void vid_set_pixel(int horiz, int vert, unsigned int color, alt_video_display* display)
{
    201c:	defffa04 	addi	sp,sp,-24
    2020:	df000515 	stw	fp,20(sp)
    2024:	df000504 	addi	fp,sp,20
    2028:	e13ffc15 	stw	r4,-16(fp)
    202c:	e17ffd15 	stw	r5,-12(fp)
    2030:	e1bffe15 	stw	r6,-8(fp)
    2034:	e1ffff15 	stw	r7,-4(fp)
  int addr;
  
  if( display->color_depth == 32 )
    2038:	e0bfff17 	ldw	r2,-4(fp)
    203c:	10800717 	ldw	r2,28(r2)
    2040:	10800818 	cmpnei	r2,r2,32
    2044:	1000181e 	bne	r2,zero,20a8 <vid_set_pixel+0x8c>
  {
//  	addr = ( ( (int)(display->buffer_ptrs[display->buffer_being_written]) )+ (vert * (display->width * 4)) + horiz * 4);
    addr = ( ( (int)(display->buffer_ptrs[display->buffer_being_written]->buffer) )+ (vert * (display->width * 4)) + horiz * 4);
    2048:	e0bfff17 	ldw	r2,-4(fp)
    204c:	10800417 	ldw	r2,16(r2)
    2050:	e0ffff17 	ldw	r3,-4(fp)
    2054:	1085883a 	add	r2,r2,r2
    2058:	1085883a 	add	r2,r2,r2
    205c:	10c5883a 	add	r2,r2,r3
    2060:	10800104 	addi	r2,r2,4
    2064:	10800017 	ldw	r2,0(r2)
    2068:	10800117 	ldw	r2,4(r2)
    206c:	1009883a 	mov	r4,r2
    2070:	e0bfff17 	ldw	r2,-4(fp)
    2074:	10c00517 	ldw	r3,20(r2)
    2078:	e0bffd17 	ldw	r2,-12(fp)
    207c:	1887383a 	mul	r3,r3,r2
    2080:	e0bffc17 	ldw	r2,-16(fp)
    2084:	1885883a 	add	r2,r3,r2
    2088:	1085883a 	add	r2,r2,r2
    208c:	1085883a 	add	r2,r2,r2
    2090:	2085883a 	add	r2,r4,r2
    2094:	e0bffb15 	stw	r2,-20(fp)
		IOWR_32DIRECT( addr, 0, (unsigned int)(color));
    2098:	e0bffb17 	ldw	r2,-20(fp)
    209c:	e0fffe17 	ldw	r3,-8(fp)
    20a0:	10c00035 	stwio	r3,0(r2)
    20a4:	00006306 	br	2234 <vid_set_pixel+0x218>
  }
  
  else if( display->color_depth == 24 )
    20a8:	e0bfff17 	ldw	r2,-4(fp)
    20ac:	10800717 	ldw	r2,28(r2)
    20b0:	10800618 	cmpnei	r2,r2,24
    20b4:	10002b1e 	bne	r2,zero,2164 <vid_set_pixel+0x148>
  {
  	addr = ( ( (int)(display->buffer_ptrs[display->buffer_being_written]->buffer) )+ (vert * (display->width * 3)) + horiz * 3);
    20b8:	e0bfff17 	ldw	r2,-4(fp)
    20bc:	10800417 	ldw	r2,16(r2)
    20c0:	e0ffff17 	ldw	r3,-4(fp)
    20c4:	1085883a 	add	r2,r2,r2
    20c8:	1085883a 	add	r2,r2,r2
    20cc:	10c5883a 	add	r2,r2,r3
    20d0:	10800104 	addi	r2,r2,4
    20d4:	10800017 	ldw	r2,0(r2)
    20d8:	10800117 	ldw	r2,4(r2)
    20dc:	1009883a 	mov	r4,r2
    20e0:	e0bfff17 	ldw	r2,-4(fp)
    20e4:	10c00517 	ldw	r3,20(r2)
    20e8:	e0bffd17 	ldw	r2,-12(fp)
    20ec:	1887383a 	mul	r3,r3,r2
    20f0:	e0bffc17 	ldw	r2,-16(fp)
    20f4:	1887883a 	add	r3,r3,r2
    20f8:	1805883a 	mov	r2,r3
    20fc:	1085883a 	add	r2,r2,r2
    2100:	10c5883a 	add	r2,r2,r3
    2104:	2085883a 	add	r2,r4,r2
    2108:	e0bffb15 	stw	r2,-20(fp)
		IOWR_8DIRECT( addr, 0, (unsigned char)(color));
    210c:	e13ffb17 	ldw	r4,-20(fp)
    2110:	e0bffe17 	ldw	r2,-8(fp)
    2114:	10c03fcc 	andi	r3,r2,255
    2118:	2005883a 	mov	r2,r4
    211c:	10c00025 	stbio	r3,0(r2)
 		IOWR_8DIRECT( addr+1, 0, (unsigned char)(color >> 8));
    2120:	e0bffb17 	ldw	r2,-20(fp)
    2124:	10800044 	addi	r2,r2,1
    2128:	1009883a 	mov	r4,r2
    212c:	e0bffe17 	ldw	r2,-8(fp)
    2130:	1004d23a 	srli	r2,r2,8
    2134:	10c03fcc 	andi	r3,r2,255
    2138:	2005883a 	mov	r2,r4
    213c:	10c00025 	stbio	r3,0(r2)
    IOWR_8DIRECT( addr+2, 0, (unsigned char)(color >> 16));
    2140:	e0bffb17 	ldw	r2,-20(fp)
    2144:	10800084 	addi	r2,r2,2
    2148:	1009883a 	mov	r4,r2
    214c:	e0bffe17 	ldw	r2,-8(fp)
    2150:	1004d43a 	srli	r2,r2,16
    2154:	10c03fcc 	andi	r3,r2,255
    2158:	2005883a 	mov	r2,r4
    215c:	10c00025 	stbio	r3,0(r2)
    2160:	00003406 	br	2234 <vid_set_pixel+0x218>
  }
  
  else if( display->color_depth == 16 )
    2164:	e0bfff17 	ldw	r2,-4(fp)
    2168:	10800717 	ldw	r2,28(r2)
    216c:	10800418 	cmpnei	r2,r2,16
    2170:	1000171e 	bne	r2,zero,21d0 <vid_set_pixel+0x1b4>
  {
  	addr = ( ( (int)(display->buffer_ptrs[display->buffer_being_written]->buffer) )+ (vert * (display->width * 2)) + horiz * 2);
    2174:	e0bfff17 	ldw	r2,-4(fp)
    2178:	10800417 	ldw	r2,16(r2)
    217c:	e0ffff17 	ldw	r3,-4(fp)
    2180:	1085883a 	add	r2,r2,r2
    2184:	1085883a 	add	r2,r2,r2
    2188:	10c5883a 	add	r2,r2,r3
    218c:	10800104 	addi	r2,r2,4
    2190:	10800017 	ldw	r2,0(r2)
    2194:	10800117 	ldw	r2,4(r2)
    2198:	1009883a 	mov	r4,r2
    219c:	e0bfff17 	ldw	r2,-4(fp)
    21a0:	10c00517 	ldw	r3,20(r2)
    21a4:	e0bffd17 	ldw	r2,-12(fp)
    21a8:	1887383a 	mul	r3,r3,r2
    21ac:	e0bffc17 	ldw	r2,-16(fp)
    21b0:	1885883a 	add	r2,r3,r2
    21b4:	1085883a 	add	r2,r2,r2
    21b8:	2085883a 	add	r2,r4,r2
    21bc:	e0bffb15 	stw	r2,-20(fp)
  	IOWR_16DIRECT( addr, 0, (int)(color));
    21c0:	e0bffb17 	ldw	r2,-20(fp)
    21c4:	e0fffe17 	ldw	r3,-8(fp)
    21c8:	10c0002d 	sthio	r3,0(r2)
    21cc:	00001906 	br	2234 <vid_set_pixel+0x218>
	}

  else if( display->color_depth == 8 )
    21d0:	e0bfff17 	ldw	r2,-4(fp)
    21d4:	10800717 	ldw	r2,28(r2)
    21d8:	10800218 	cmpnei	r2,r2,8
    21dc:	1000151e 	bne	r2,zero,2234 <vid_set_pixel+0x218>
  {
  	addr = ( ( (int)(display->buffer_ptrs[display->buffer_being_written]->buffer) )+ (vert * (display->width * 1)) + horiz * 1);
    21e0:	e0bfff17 	ldw	r2,-4(fp)
    21e4:	10800417 	ldw	r2,16(r2)
    21e8:	e0ffff17 	ldw	r3,-4(fp)
    21ec:	1085883a 	add	r2,r2,r2
    21f0:	1085883a 	add	r2,r2,r2
    21f4:	10c5883a 	add	r2,r2,r3
    21f8:	10800104 	addi	r2,r2,4
    21fc:	10800017 	ldw	r2,0(r2)
    2200:	10800117 	ldw	r2,4(r2)
    2204:	1009883a 	mov	r4,r2
    2208:	e0bfff17 	ldw	r2,-4(fp)
    220c:	10c00517 	ldw	r3,20(r2)
    2210:	e0bffd17 	ldw	r2,-12(fp)
    2214:	1885383a 	mul	r2,r3,r2
    2218:	2087883a 	add	r3,r4,r2
    221c:	e0bffc17 	ldw	r2,-16(fp)
    2220:	1885883a 	add	r2,r3,r2
    2224:	e0bffb15 	stw	r2,-20(fp)
  	IOWR_8DIRECT( addr, 0, (int)(color));
    2228:	e0bffb17 	ldw	r2,-20(fp)
    222c:	e0fffe17 	ldw	r3,-8(fp)
    2230:	10c00025 	stbio	r3,0(r2)
	}

}
    2234:	e037883a 	mov	sp,fp
    2238:	df000017 	ldw	fp,0(sp)
    223c:	dec00104 	addi	sp,sp,4
    2240:	f800283a 	ret

00002244 <vid_get_pixel>:
*  Purpose: Reads the color of the pixel at the given coordinates
*
******************************************************************/

short vid_get_pixel(int horiz, int vert, alt_video_display* display)
{
    2244:	defffb04 	addi	sp,sp,-20
    2248:	df000415 	stw	fp,16(sp)
    224c:	df000404 	addi	fp,sp,16
    2250:	e13ffd15 	stw	r4,-12(fp)
    2254:	e17ffe15 	stw	r5,-8(fp)
    2258:	e1bfff15 	stw	r6,-4(fp)
  int addr;
  
  addr = ( ( (int)(display->buffer_ptrs[display->buffer_being_written]->buffer) )+ (vert * (display->width * 2)) + horiz * 2);
    225c:	e0bfff17 	ldw	r2,-4(fp)
    2260:	10800417 	ldw	r2,16(r2)
    2264:	e0ffff17 	ldw	r3,-4(fp)
    2268:	1085883a 	add	r2,r2,r2
    226c:	1085883a 	add	r2,r2,r2
    2270:	10c5883a 	add	r2,r2,r3
    2274:	10800104 	addi	r2,r2,4
    2278:	10800017 	ldw	r2,0(r2)
    227c:	10800117 	ldw	r2,4(r2)
    2280:	1009883a 	mov	r4,r2
    2284:	e0bfff17 	ldw	r2,-4(fp)
    2288:	10c00517 	ldw	r3,20(r2)
    228c:	e0bffe17 	ldw	r2,-8(fp)
    2290:	1887383a 	mul	r3,r3,r2
    2294:	e0bffd17 	ldw	r2,-12(fp)
    2298:	1885883a 	add	r2,r3,r2
    229c:	1085883a 	add	r2,r2,r2
    22a0:	2085883a 	add	r2,r4,r2
    22a4:	e0bffc15 	stw	r2,-16(fp)
  return(IORD_16DIRECT(addr, 0));
    22a8:	e0bffc17 	ldw	r2,-16(fp)
    22ac:	1080002b 	ldhuio	r2,0(r2)
    22b0:	10bfffcc 	andi	r2,r2,65535
    22b4:	10a0001c 	xori	r2,r2,32768
    22b8:	10a00004 	addi	r2,r2,-32768

}
    22bc:	e037883a 	mov	sp,fp
    22c0:	df000017 	ldw	fp,0(sp)
    22c4:	dec00104 	addi	sp,sp,4
    22c8:	f800283a 	ret

000022cc <vid_paint_block>:
*           The color parameter must contain two pixel's worth
*           (32 bits).
*
******************************************************************/
void vid_paint_block (int Hstart,int Vstart, int Hend, int Vend, int color, alt_video_display* display)
{
    22cc:	defff404 	addi	sp,sp,-48
    22d0:	dfc00b15 	stw	ra,44(sp)
    22d4:	df000a15 	stw	fp,40(sp)
    22d8:	df000a04 	addi	fp,sp,40
    22dc:	e13ffb15 	stw	r4,-20(fp)
    22e0:	e17ffc15 	stw	r5,-16(fp)
    22e4:	e1bffd15 	stw	r6,-12(fp)
    22e8:	e1fffe15 	stw	r7,-8(fp)
  int i;
  int addr;
  int bytes_per_line, bytes_per_pixel;
  char* line;
  
  bytes_per_pixel = (display->color_depth / 8);
    22ec:	e0800317 	ldw	r2,12(fp)
    22f0:	10800717 	ldw	r2,28(r2)
    22f4:	e0bfff15 	stw	r2,-4(fp)
    22f8:	e0ffff17 	ldw	r3,-4(fp)
    22fc:	1804403a 	cmpge	r2,r3,zero
    2300:	1000031e 	bne	r2,zero,2310 <vid_paint_block+0x44>
    2304:	e0bfff17 	ldw	r2,-4(fp)
    2308:	108001c4 	addi	r2,r2,7
    230c:	e0bfff15 	stw	r2,-4(fp)
    2310:	e0ffff17 	ldw	r3,-4(fp)
    2314:	1805d0fa 	srai	r2,r3,3
    2318:	e0bff715 	stw	r2,-36(fp)
  bytes_per_line = ((Hend - Hstart) * bytes_per_pixel);
    231c:	e0fffd17 	ldw	r3,-12(fp)
    2320:	e0bffb17 	ldw	r2,-20(fp)
    2324:	1887c83a 	sub	r3,r3,r2
    2328:	e0bff717 	ldw	r2,-36(fp)
    232c:	1885383a 	mul	r2,r3,r2
    2330:	e0bff815 	stw	r2,-32(fp)

  line = malloc(bytes_per_line + 12);
    2334:	e0bff817 	ldw	r2,-32(fp)
    2338:	10800304 	addi	r2,r2,12
    233c:	1009883a 	mov	r4,r2
    2340:	00085e00 	call	85e0 <malloc>
    2344:	e0bff615 	stw	r2,-40(fp)

	if(display->color_depth == 16)
    2348:	e0800317 	ldw	r2,12(fp)
    234c:	10800717 	ldw	r2,28(r2)
    2350:	10800418 	cmpnei	r2,r2,16
    2354:	1000171e 	bne	r2,zero,23b4 <vid_paint_block+0xe8>
	{
    for (i = 0; i < bytes_per_line; i+=2) 
    2358:	e03ffa15 	stw	zero,-24(fp)
    235c:	00001106 	br	23a4 <vid_paint_block+0xd8>
    {
      *(line + i) = (unsigned char)color;
    2360:	e0bffa17 	ldw	r2,-24(fp)
    2364:	1007883a 	mov	r3,r2
    2368:	e0bff617 	ldw	r2,-40(fp)
    236c:	1887883a 	add	r3,r3,r2
    2370:	e0800217 	ldw	r2,8(fp)
    2374:	18800005 	stb	r2,0(r3)
      *(line + i + 1) = (unsigned char)(color >> 8);
    2378:	e0bffa17 	ldw	r2,-24(fp)
    237c:	1007883a 	mov	r3,r2
    2380:	e0bff617 	ldw	r2,-40(fp)
    2384:	1885883a 	add	r2,r3,r2
    2388:	10c00044 	addi	r3,r2,1
    238c:	e0800217 	ldw	r2,8(fp)
    2390:	1005d23a 	srai	r2,r2,8
    2394:	18800005 	stb	r2,0(r3)

  line = malloc(bytes_per_line + 12);

	if(display->color_depth == 16)
	{
    for (i = 0; i < bytes_per_line; i+=2) 
    2398:	e0bffa17 	ldw	r2,-24(fp)
    239c:	10800084 	addi	r2,r2,2
    23a0:	e0bffa15 	stw	r2,-24(fp)
    23a4:	e0fffa17 	ldw	r3,-24(fp)
    23a8:	e0bff817 	ldw	r2,-32(fp)
    23ac:	18bfec16 	blt	r3,r2,2360 <vid_paint_block+0x94>
    23b0:	00003606 	br	248c <vid_paint_block+0x1c0>
    {
      *(line + i) = (unsigned char)color;
      *(line + i + 1) = (unsigned char)(color >> 8);
    }
  }
  else if(display->color_depth == 24)
    23b4:	e0800317 	ldw	r2,12(fp)
    23b8:	10800717 	ldw	r2,28(r2)
    23bc:	10800618 	cmpnei	r2,r2,24
    23c0:	10001f1e 	bne	r2,zero,2440 <vid_paint_block+0x174>
  { 
    for (i = 0; i < bytes_per_line; i+=3) 
    23c4:	e03ffa15 	stw	zero,-24(fp)
    23c8:	00001906 	br	2430 <vid_paint_block+0x164>
    {
      *(line + i) = (unsigned char)color;
    23cc:	e0bffa17 	ldw	r2,-24(fp)
    23d0:	1007883a 	mov	r3,r2
    23d4:	e0bff617 	ldw	r2,-40(fp)
    23d8:	1887883a 	add	r3,r3,r2
    23dc:	e0800217 	ldw	r2,8(fp)
    23e0:	18800005 	stb	r2,0(r3)
      *(line + i + 1) = (unsigned char)(color >> 8);
    23e4:	e0bffa17 	ldw	r2,-24(fp)
    23e8:	1007883a 	mov	r3,r2
    23ec:	e0bff617 	ldw	r2,-40(fp)
    23f0:	1885883a 	add	r2,r3,r2
    23f4:	10c00044 	addi	r3,r2,1
    23f8:	e0800217 	ldw	r2,8(fp)
    23fc:	1005d23a 	srai	r2,r2,8
    2400:	18800005 	stb	r2,0(r3)
      *(line + i + 2) = (unsigned char)(color >> 16);
    2404:	e0bffa17 	ldw	r2,-24(fp)
    2408:	1007883a 	mov	r3,r2
    240c:	e0bff617 	ldw	r2,-40(fp)
    2410:	1885883a 	add	r2,r3,r2
    2414:	10c00084 	addi	r3,r2,2
    2418:	e0800217 	ldw	r2,8(fp)
    241c:	1005d43a 	srai	r2,r2,16
    2420:	18800005 	stb	r2,0(r3)
      *(line + i + 1) = (unsigned char)(color >> 8);
    }
  }
  else if(display->color_depth == 24)
  { 
    for (i = 0; i < bytes_per_line; i+=3) 
    2424:	e0bffa17 	ldw	r2,-24(fp)
    2428:	108000c4 	addi	r2,r2,3
    242c:	e0bffa15 	stw	r2,-24(fp)
    2430:	e0fffa17 	ldw	r3,-24(fp)
    2434:	e0bff817 	ldw	r2,-32(fp)
    2438:	18bfe416 	blt	r3,r2,23cc <vid_paint_block+0x100>
    243c:	00001306 	br	248c <vid_paint_block+0x1c0>
      *(line + i) = (unsigned char)color;
      *(line + i + 1) = (unsigned char)(color >> 8);
      *(line + i + 2) = (unsigned char)(color >> 16);
    }
  }
  else if(display->color_depth == 32)
    2440:	e0800317 	ldw	r2,12(fp)
    2444:	10800717 	ldw	r2,28(r2)
    2448:	10800818 	cmpnei	r2,r2,32
    244c:	10000f1e 	bne	r2,zero,248c <vid_paint_block+0x1c0>
  { 
    for (i = 0; i < bytes_per_line; i+=4) 
    2450:	e03ffa15 	stw	zero,-24(fp)
    2454:	00000a06 	br	2480 <vid_paint_block+0x1b4>
    {
      // Does the right hand side of this assignment determine the size?
      *(int*)(line + i) = (unsigned int)color;
    2458:	e0bffa17 	ldw	r2,-24(fp)
    245c:	1007883a 	mov	r3,r2
    2460:	e0bff617 	ldw	r2,-40(fp)
    2464:	1885883a 	add	r2,r3,r2
    2468:	1007883a 	mov	r3,r2
    246c:	e0800217 	ldw	r2,8(fp)
    2470:	18800015 	stw	r2,0(r3)
      *(line + i + 2) = (unsigned char)(color >> 16);
    }
  }
  else if(display->color_depth == 32)
  { 
    for (i = 0; i < bytes_per_line; i+=4) 
    2474:	e0bffa17 	ldw	r2,-24(fp)
    2478:	10800104 	addi	r2,r2,4
    247c:	e0bffa15 	stw	r2,-24(fp)
    2480:	e0fffa17 	ldw	r3,-24(fp)
    2484:	e0bff817 	ldw	r2,-32(fp)
    2488:	18bff316 	blt	r3,r2,2458 <vid_paint_block+0x18c>
      *(int*)(line + i) = (unsigned int)color;
    }
  }
  
  /* Initial Address */
  addr = (int)(display->buffer_ptrs[display->buffer_being_written]->buffer) + ((Vstart * (display->width * bytes_per_pixel)) + (Hstart * bytes_per_pixel));
    248c:	e0800317 	ldw	r2,12(fp)
    2490:	10800417 	ldw	r2,16(r2)
    2494:	e0c00317 	ldw	r3,12(fp)
    2498:	1085883a 	add	r2,r2,r2
    249c:	1085883a 	add	r2,r2,r2
    24a0:	10c5883a 	add	r2,r2,r3
    24a4:	10800104 	addi	r2,r2,4
    24a8:	10800017 	ldw	r2,0(r2)
    24ac:	10800117 	ldw	r2,4(r2)
    24b0:	100b883a 	mov	r5,r2
    24b4:	e0800317 	ldw	r2,12(fp)
    24b8:	10c00517 	ldw	r3,20(r2)
    24bc:	e0bff717 	ldw	r2,-36(fp)
    24c0:	1887383a 	mul	r3,r3,r2
    24c4:	e0bffc17 	ldw	r2,-16(fp)
    24c8:	1889383a 	mul	r4,r3,r2
    24cc:	e0fffb17 	ldw	r3,-20(fp)
    24d0:	e0bff717 	ldw	r2,-36(fp)
    24d4:	1885383a 	mul	r2,r3,r2
    24d8:	2085883a 	add	r2,r4,r2
    24dc:	2885883a 	add	r2,r5,r2
    24e0:	e0bff915 	stw	r2,-28(fp)
  
  for (i = Vstart; i < Vend; i++)
    24e4:	e0bffc17 	ldw	r2,-16(fp)
    24e8:	e0bffa15 	stw	r2,-24(fp)
    24ec:	00001006 	br	2530 <vid_paint_block+0x264>
  {
    memcpy( (void*)addr, line, bytes_per_line );
    24f0:	e0fff917 	ldw	r3,-28(fp)
    24f4:	e1bff817 	ldw	r6,-32(fp)
    24f8:	e0bff617 	ldw	r2,-40(fp)
    24fc:	1809883a 	mov	r4,r3
    2500:	100b883a 	mov	r5,r2
    2504:	0008d340 	call	8d34 <memcpy>
    addr += (display->width * bytes_per_pixel);
    2508:	e0800317 	ldw	r2,12(fp)
    250c:	10c00517 	ldw	r3,20(r2)
    2510:	e0bff717 	ldw	r2,-36(fp)
    2514:	1887383a 	mul	r3,r3,r2
    2518:	e0bff917 	ldw	r2,-28(fp)
    251c:	10c5883a 	add	r2,r2,r3
    2520:	e0bff915 	stw	r2,-28(fp)
  }
  
  /* Initial Address */
  addr = (int)(display->buffer_ptrs[display->buffer_being_written]->buffer) + ((Vstart * (display->width * bytes_per_pixel)) + (Hstart * bytes_per_pixel));
  
  for (i = Vstart; i < Vend; i++)
    2524:	e0bffa17 	ldw	r2,-24(fp)
    2528:	10800044 	addi	r2,r2,1
    252c:	e0bffa15 	stw	r2,-24(fp)
    2530:	e0fffa17 	ldw	r3,-24(fp)
    2534:	e0bffe17 	ldw	r2,-8(fp)
    2538:	18bfed16 	blt	r3,r2,24f0 <vid_paint_block+0x224>
  {
    memcpy( (void*)addr, line, bytes_per_line );
    addr += (display->width * bytes_per_pixel);
  }
  free (line);
    253c:	e13ff617 	ldw	r4,-40(fp)
    2540:	00085cc0 	call	85cc <free>
}
    2544:	e037883a 	mov	sp,fp
    2548:	dfc00117 	ldw	ra,4(sp)
    254c:	df000017 	ldw	fp,0(sp)
    2550:	dec00204 	addi	sp,sp,8
    2554:	f800283a 	ret

00002558 <vid_draw_horiz_line>:
*  Purpose: Draws a horizontal line on the screen quickly.
*           Good for filling stuff.
*
******************************************************************/
void vid_draw_horiz_line (short Hstart, short Hend, int V, int color, alt_video_display* display)
{
    2558:	defff504 	addi	sp,sp,-44
    255c:	dfc00a15 	stw	ra,40(sp)
    2560:	df000915 	stw	fp,36(sp)
    2564:	df000904 	addi	fp,sp,36
    2568:	e1bffe15 	stw	r6,-8(fp)
    256c:	e1ffff15 	stw	r7,-4(fp)
    2570:	e13ffc0d 	sth	r4,-16(fp)
    2574:	e17ffd0d 	sth	r5,-12(fp)

  int i;
  int addr;
  int bytes_per_line;

  char *fast_buffer = malloc(1024 * 3);
    2578:	01030004 	movi	r4,3072
    257c:	00085e00 	call	85e0 <malloc>
    2580:	e0bff815 	stw	r2,-32(fp)

  if( Hstart > Hend )
    2584:	e0fffc0f 	ldh	r3,-16(fp)
    2588:	e0bffd0f 	ldh	r2,-12(fp)
    258c:	10c0060e 	bge	r2,r3,25a8 <vid_draw_horiz_line+0x50>
  {
    short temp = Hstart;
    2590:	e0bffc0b 	ldhu	r2,-16(fp)
    2594:	e0bff70d 	sth	r2,-36(fp)
    Hstart = Hend;
    2598:	e0bffd0b 	ldhu	r2,-12(fp)
    259c:	e0bffc0d 	sth	r2,-16(fp)
    Hend = temp;
    25a0:	e0bff70b 	ldhu	r2,-36(fp)
    25a4:	e0bffd0d 	sth	r2,-12(fp)
  }
  
  if(display->color_depth == 32)
    25a8:	e0800217 	ldw	r2,8(fp)
    25ac:	10800717 	ldw	r2,28(r2)
    25b0:	10800818 	cmpnei	r2,r2,32
    25b4:	10002f1e 	bne	r2,zero,2674 <vid_draw_horiz_line+0x11c>
  { 
    addr = (int)(display->buffer_ptrs[display->buffer_being_written]->buffer) + ((V * (display->width * 4)) + (Hstart * 4));
    25b8:	e0800217 	ldw	r2,8(fp)
    25bc:	10800417 	ldw	r2,16(r2)
    25c0:	e0c00217 	ldw	r3,8(fp)
    25c4:	1085883a 	add	r2,r2,r2
    25c8:	1085883a 	add	r2,r2,r2
    25cc:	10c5883a 	add	r2,r2,r3
    25d0:	10800104 	addi	r2,r2,4
    25d4:	10800017 	ldw	r2,0(r2)
    25d8:	10800117 	ldw	r2,4(r2)
    25dc:	1009883a 	mov	r4,r2
    25e0:	e0800217 	ldw	r2,8(fp)
    25e4:	10c00517 	ldw	r3,20(r2)
    25e8:	e0bffe17 	ldw	r2,-8(fp)
    25ec:	1887383a 	mul	r3,r3,r2
    25f0:	e0bffc0f 	ldh	r2,-16(fp)
    25f4:	1885883a 	add	r2,r3,r2
    25f8:	1085883a 	add	r2,r2,r2
    25fc:	1085883a 	add	r2,r2,r2
    2600:	2085883a 	add	r2,r4,r2
    2604:	e0bffa15 	stw	r2,-24(fp)
    bytes_per_line = ((Hend - Hstart) * 4);
    2608:	e0fffd0f 	ldh	r3,-12(fp)
    260c:	e0bffc0f 	ldh	r2,-16(fp)
    2610:	1885c83a 	sub	r2,r3,r2
    2614:	1085883a 	add	r2,r2,r2
    2618:	1085883a 	add	r2,r2,r2
    261c:	e0bff915 	stw	r2,-28(fp)
    for (i = 0; i < bytes_per_line; i+=4) 
    2620:	e03ffb15 	stw	zero,-20(fp)
    2624:	00000a06 	br	2650 <vid_draw_horiz_line+0xf8>
    {
      // Does the right hand side of this assignment determine the size?
      *(int*)(fast_buffer + i) = (unsigned int)color;
    2628:	e0bffb17 	ldw	r2,-20(fp)
    262c:	1007883a 	mov	r3,r2
    2630:	e0bff817 	ldw	r2,-32(fp)
    2634:	1885883a 	add	r2,r3,r2
    2638:	1007883a 	mov	r3,r2
    263c:	e0bfff17 	ldw	r2,-4(fp)
    2640:	18800015 	stw	r2,0(r3)
  
  if(display->color_depth == 32)
  { 
    addr = (int)(display->buffer_ptrs[display->buffer_being_written]->buffer) + ((V * (display->width * 4)) + (Hstart * 4));
    bytes_per_line = ((Hend - Hstart) * 4);
    for (i = 0; i < bytes_per_line; i+=4) 
    2644:	e0bffb17 	ldw	r2,-20(fp)
    2648:	10800104 	addi	r2,r2,4
    264c:	e0bffb15 	stw	r2,-20(fp)
    2650:	e0fffb17 	ldw	r3,-20(fp)
    2654:	e0bff917 	ldw	r2,-28(fp)
    2658:	18bff316 	blt	r3,r2,2628 <vid_draw_horiz_line+0xd0>
    {
      // Does the right hand side of this assignment determine the size?
      *(int*)(fast_buffer + i) = (unsigned int)color;
    }
    memcpy( (void*)addr, fast_buffer, bytes_per_line );
    265c:	e0fffa17 	ldw	r3,-24(fp)
    2660:	e1bff917 	ldw	r6,-28(fp)
    2664:	e0bff817 	ldw	r2,-32(fp)
    2668:	1809883a 	mov	r4,r3
    266c:	100b883a 	mov	r5,r2
    2670:	0008d340 	call	8d34 <memcpy>
  }
  if(display->color_depth == 24)
    2674:	e0800217 	ldw	r2,8(fp)
    2678:	10800717 	ldw	r2,28(r2)
    267c:	10800618 	cmpnei	r2,r2,24
    2680:	1000411e 	bne	r2,zero,2788 <vid_draw_horiz_line+0x230>
  { 
    addr = (int)(display->buffer_ptrs[display->buffer_being_written]->buffer) + ((V * (display->width * 3)) + (Hstart * 3));
    2684:	e0800217 	ldw	r2,8(fp)
    2688:	10800417 	ldw	r2,16(r2)
    268c:	e0c00217 	ldw	r3,8(fp)
    2690:	1085883a 	add	r2,r2,r2
    2694:	1085883a 	add	r2,r2,r2
    2698:	10c5883a 	add	r2,r2,r3
    269c:	10800104 	addi	r2,r2,4
    26a0:	10800017 	ldw	r2,0(r2)
    26a4:	10800117 	ldw	r2,4(r2)
    26a8:	1009883a 	mov	r4,r2
    26ac:	e0800217 	ldw	r2,8(fp)
    26b0:	10c00517 	ldw	r3,20(r2)
    26b4:	e0bffe17 	ldw	r2,-8(fp)
    26b8:	1887383a 	mul	r3,r3,r2
    26bc:	e0bffc0f 	ldh	r2,-16(fp)
    26c0:	1887883a 	add	r3,r3,r2
    26c4:	1805883a 	mov	r2,r3
    26c8:	1085883a 	add	r2,r2,r2
    26cc:	10c5883a 	add	r2,r2,r3
    26d0:	2085883a 	add	r2,r4,r2
    26d4:	e0bffa15 	stw	r2,-24(fp)
    bytes_per_line = ((Hend - Hstart) * 3);
    26d8:	e0fffd0f 	ldh	r3,-12(fp)
    26dc:	e0bffc0f 	ldh	r2,-16(fp)
    26e0:	1887c83a 	sub	r3,r3,r2
    26e4:	1805883a 	mov	r2,r3
    26e8:	1085883a 	add	r2,r2,r2
    26ec:	10c5883a 	add	r2,r2,r3
    26f0:	e0bff915 	stw	r2,-28(fp)
    for (i = 0; i < bytes_per_line; i+=3) 
    26f4:	e03ffb15 	stw	zero,-20(fp)
    26f8:	00001906 	br	2760 <vid_draw_horiz_line+0x208>
    {
      *(fast_buffer + i) = (unsigned char)color;
    26fc:	e0bffb17 	ldw	r2,-20(fp)
    2700:	1007883a 	mov	r3,r2
    2704:	e0bff817 	ldw	r2,-32(fp)
    2708:	1887883a 	add	r3,r3,r2
    270c:	e0bfff17 	ldw	r2,-4(fp)
    2710:	18800005 	stb	r2,0(r3)
      *(fast_buffer + i + 1) = (unsigned char)(color >> 8);
    2714:	e0bffb17 	ldw	r2,-20(fp)
    2718:	1007883a 	mov	r3,r2
    271c:	e0bff817 	ldw	r2,-32(fp)
    2720:	1885883a 	add	r2,r3,r2
    2724:	10c00044 	addi	r3,r2,1
    2728:	e0bfff17 	ldw	r2,-4(fp)
    272c:	1005d23a 	srai	r2,r2,8
    2730:	18800005 	stb	r2,0(r3)
      *(fast_buffer + i + 2) = (unsigned char)(color >> 16);
    2734:	e0bffb17 	ldw	r2,-20(fp)
    2738:	1007883a 	mov	r3,r2
    273c:	e0bff817 	ldw	r2,-32(fp)
    2740:	1885883a 	add	r2,r3,r2
    2744:	10c00084 	addi	r3,r2,2
    2748:	e0bfff17 	ldw	r2,-4(fp)
    274c:	1005d43a 	srai	r2,r2,16
    2750:	18800005 	stb	r2,0(r3)
  }
  if(display->color_depth == 24)
  { 
    addr = (int)(display->buffer_ptrs[display->buffer_being_written]->buffer) + ((V * (display->width * 3)) + (Hstart * 3));
    bytes_per_line = ((Hend - Hstart) * 3);
    for (i = 0; i < bytes_per_line; i+=3) 
    2754:	e0bffb17 	ldw	r2,-20(fp)
    2758:	108000c4 	addi	r2,r2,3
    275c:	e0bffb15 	stw	r2,-20(fp)
    2760:	e0fffb17 	ldw	r3,-20(fp)
    2764:	e0bff917 	ldw	r2,-28(fp)
    2768:	18bfe416 	blt	r3,r2,26fc <vid_draw_horiz_line+0x1a4>
    {
      *(fast_buffer + i) = (unsigned char)color;
      *(fast_buffer + i + 1) = (unsigned char)(color >> 8);
      *(fast_buffer + i + 2) = (unsigned char)(color >> 16);
    }
    memcpy( (void*)addr, fast_buffer, bytes_per_line );
    276c:	e0fffa17 	ldw	r3,-24(fp)
    2770:	e1bff917 	ldw	r6,-28(fp)
    2774:	e0bff817 	ldw	r2,-32(fp)
    2778:	1809883a 	mov	r4,r3
    277c:	100b883a 	mov	r5,r2
    2780:	0008d340 	call	8d34 <memcpy>
    2784:	00003806 	br	2868 <vid_draw_horiz_line+0x310>
  }
  else if(display->color_depth == 16)
    2788:	e0800217 	ldw	r2,8(fp)
    278c:	10800717 	ldw	r2,28(r2)
    2790:	10800418 	cmpnei	r2,r2,16
    2794:	1000341e 	bne	r2,zero,2868 <vid_draw_horiz_line+0x310>
  {
    addr = (int)(display->buffer_ptrs[display->buffer_being_written]->buffer) + ((V * (display->width * 2)) + (Hstart * 2));
    2798:	e0800217 	ldw	r2,8(fp)
    279c:	10800417 	ldw	r2,16(r2)
    27a0:	e0c00217 	ldw	r3,8(fp)
    27a4:	1085883a 	add	r2,r2,r2
    27a8:	1085883a 	add	r2,r2,r2
    27ac:	10c5883a 	add	r2,r2,r3
    27b0:	10800104 	addi	r2,r2,4
    27b4:	10800017 	ldw	r2,0(r2)
    27b8:	10800117 	ldw	r2,4(r2)
    27bc:	1009883a 	mov	r4,r2
    27c0:	e0800217 	ldw	r2,8(fp)
    27c4:	10c00517 	ldw	r3,20(r2)
    27c8:	e0bffe17 	ldw	r2,-8(fp)
    27cc:	1887383a 	mul	r3,r3,r2
    27d0:	e0bffc0f 	ldh	r2,-16(fp)
    27d4:	1885883a 	add	r2,r3,r2
    27d8:	1085883a 	add	r2,r2,r2
    27dc:	2085883a 	add	r2,r4,r2
    27e0:	e0bffa15 	stw	r2,-24(fp)
    bytes_per_line = ((Hend - Hstart) * 2);
    27e4:	e0fffd0f 	ldh	r3,-12(fp)
    27e8:	e0bffc0f 	ldh	r2,-16(fp)
    27ec:	1885c83a 	sub	r2,r3,r2
    27f0:	1085883a 	add	r2,r2,r2
    27f4:	e0bff915 	stw	r2,-28(fp)
    for (i = 0; i < bytes_per_line; i+=2) 
    27f8:	e03ffb15 	stw	zero,-20(fp)
    27fc:	00001106 	br	2844 <vid_draw_horiz_line+0x2ec>
    {
      *(fast_buffer + i) = (unsigned char)color;
    2800:	e0bffb17 	ldw	r2,-20(fp)
    2804:	1007883a 	mov	r3,r2
    2808:	e0bff817 	ldw	r2,-32(fp)
    280c:	1887883a 	add	r3,r3,r2
    2810:	e0bfff17 	ldw	r2,-4(fp)
    2814:	18800005 	stb	r2,0(r3)
      *(fast_buffer + i + 1) = (unsigned char)(color >> 8);
    2818:	e0bffb17 	ldw	r2,-20(fp)
    281c:	1007883a 	mov	r3,r2
    2820:	e0bff817 	ldw	r2,-32(fp)
    2824:	1885883a 	add	r2,r3,r2
    2828:	10c00044 	addi	r3,r2,1
    282c:	e0bfff17 	ldw	r2,-4(fp)
    2830:	1005d23a 	srai	r2,r2,8
    2834:	18800005 	stb	r2,0(r3)
  }
  else if(display->color_depth == 16)
  {
    addr = (int)(display->buffer_ptrs[display->buffer_being_written]->buffer) + ((V * (display->width * 2)) + (Hstart * 2));
    bytes_per_line = ((Hend - Hstart) * 2);
    for (i = 0; i < bytes_per_line; i+=2) 
    2838:	e0bffb17 	ldw	r2,-20(fp)
    283c:	10800084 	addi	r2,r2,2
    2840:	e0bffb15 	stw	r2,-20(fp)
    2844:	e0fffb17 	ldw	r3,-20(fp)
    2848:	e0bff917 	ldw	r2,-28(fp)
    284c:	18bfec16 	blt	r3,r2,2800 <vid_draw_horiz_line+0x2a8>
    {
      *(fast_buffer + i) = (unsigned char)color;
      *(fast_buffer + i + 1) = (unsigned char)(color >> 8);
    }
    memcpy( (void*)addr, fast_buffer, bytes_per_line );
    2850:	e0fffa17 	ldw	r3,-24(fp)
    2854:	e1bff917 	ldw	r6,-28(fp)
    2858:	e0bff817 	ldw	r2,-32(fp)
    285c:	1809883a 	mov	r4,r3
    2860:	100b883a 	mov	r5,r2
    2864:	0008d340 	call	8d34 <memcpy>
  }
  free(fast_buffer);
    2868:	e13ff817 	ldw	r4,-32(fp)
    286c:	00085cc0 	call	85cc <free>
}
    2870:	e037883a 	mov	sp,fp
    2874:	dfc00117 	ldw	ra,4(sp)
    2878:	df000017 	ldw	fp,0(sp)
    287c:	dec00204 	addi	sp,sp,8
    2880:	f800283a 	ret

00002884 <vid_merge_colors>:
*  Purpose: Takes 5-bit color values for each red, green, and blue
*           and merges them into one 16-bit color value.
*
******************************************************************/
int vid_merge_colors(int red, int green, int blue)
{
    2884:	defffc04 	addi	sp,sp,-16
    2888:	df000315 	stw	fp,12(sp)
    288c:	df000304 	addi	fp,sp,12
    2890:	e13ffd15 	stw	r4,-12(fp)
    2894:	e17ffe15 	stw	r5,-8(fp)
    2898:	e1bfff15 	stw	r6,-4(fp)
  // Green actually has 6-bits, but we'll make it's LSB 1 to be consistent.
  return ((blue) | (((green << 1) | 0x1) << 5) | (red << 11));
    289c:	e0bffe17 	ldw	r2,-8(fp)
    28a0:	1085883a 	add	r2,r2,r2
    28a4:	10800054 	ori	r2,r2,1
    28a8:	1006917a 	slli	r3,r2,5
    28ac:	e0bfff17 	ldw	r2,-4(fp)
    28b0:	1886b03a 	or	r3,r3,r2
    28b4:	e0bffd17 	ldw	r2,-12(fp)
    28b8:	100492fa 	slli	r2,r2,11
    28bc:	1884b03a 	or	r2,r3,r2
}
    28c0:	e037883a 	mov	sp,fp
    28c4:	df000017 	ldw	fp,0(sp)
    28c8:	dec00104 	addi	sp,sp,4
    28cc:	f800283a 	ret

000028d0 <vid_color_convert24_16>:
*           sample and converts it to 16-bits, displayable by the 
*           VGA controller in 16-bit mode
*
******************************************************************/
unsigned short vid_color_convert24_16(char* color24)
{
    28d0:	defffc04 	addi	sp,sp,-16
    28d4:	df000315 	stw	fp,12(sp)
    28d8:	df000304 	addi	fp,sp,12
    28dc:	e13fff15 	stw	r4,-4(fp)
	unsigned char red, green, blue;
	unsigned short output;
	
	red = *(color24 + 0) & 0xF8;
    28e0:	e0bfff17 	ldw	r2,-4(fp)
    28e4:	10800003 	ldbu	r2,0(r2)
    28e8:	1007883a 	mov	r3,r2
    28ec:	00bffe04 	movi	r2,-8
    28f0:	1884703a 	and	r2,r3,r2
    28f4:	e0bffe05 	stb	r2,-8(fp)
	green = *(color24 + 1) & 0xFC; // green is actualy 6 bits
    28f8:	e0bfff17 	ldw	r2,-4(fp)
    28fc:	10800044 	addi	r2,r2,1
    2900:	10800003 	ldbu	r2,0(r2)
    2904:	1007883a 	mov	r3,r2
    2908:	00bfff04 	movi	r2,-4
    290c:	1884703a 	and	r2,r3,r2
    2910:	e0bffdc5 	stb	r2,-9(fp)
	blue = *(color24 + 2) & 0xF8;
    2914:	e0bfff17 	ldw	r2,-4(fp)
    2918:	10800084 	addi	r2,r2,2
    291c:	10800003 	ldbu	r2,0(r2)
    2920:	1007883a 	mov	r3,r2
    2924:	00bffe04 	movi	r2,-8
    2928:	1884703a 	and	r2,r3,r2
    292c:	e0bffd85 	stb	r2,-10(fp)

	output = ((blue >> 3) | (green << 3) | (red << 8));  
    2930:	e0bffd83 	ldbu	r2,-10(fp)
    2934:	1004d0fa 	srli	r2,r2,3
    2938:	10c03fcc 	andi	r3,r2,255
    293c:	e0bffdc3 	ldbu	r2,-9(fp)
    2940:	100490fa 	slli	r2,r2,3
    2944:	1884b03a 	or	r2,r3,r2
    2948:	1007883a 	mov	r3,r2
    294c:	e0bffe03 	ldbu	r2,-8(fp)
    2950:	1004923a 	slli	r2,r2,8
    2954:	1884b03a 	or	r2,r3,r2
    2958:	e0bffd0d 	sth	r2,-12(fp)
	return output;
    295c:	e0bffd0b 	ldhu	r2,-12(fp)
}
    2960:	e037883a 	mov	sp,fp
    2964:	df000017 	ldw	fp,0(sp)
    2968:	dec00104 	addi	sp,sp,4
    296c:	f800283a 	ret

00002970 <vid_color_convert16_24>:
*           sample and converts it to 16-bits, displayable by the 
*           VGA controller in 16-bit mode
*
******************************************************************/
int vid_color_convert16_24(unsigned short color16, char* color24)
{
    2970:	defffd04 	addi	sp,sp,-12
    2974:	df000215 	stw	fp,8(sp)
    2978:	df000204 	addi	fp,sp,8
    297c:	e17fff15 	stw	r5,-4(fp)
    2980:	e13ffe0d 	sth	r4,-8(fp)
	*(color24 + 0) = color16 >> 11;
    2984:	e0bffe0b 	ldhu	r2,-8(fp)
    2988:	1004d2fa 	srli	r2,r2,11
    298c:	1007883a 	mov	r3,r2
    2990:	e0bfff17 	ldw	r2,-4(fp)
    2994:	10c00005 	stb	r3,0(r2)
	*(color24 + 1) = ((color16 & 0x3E) >> 5);
    2998:	e0bfff17 	ldw	r2,-4(fp)
    299c:	10c00044 	addi	r3,r2,1
    29a0:	e0bffe0b 	ldhu	r2,-8(fp)
    29a4:	10800f8c 	andi	r2,r2,62
    29a8:	1005d17a 	srai	r2,r2,5
    29ac:	18800005 	stb	r2,0(r3)
	*(color24 + 2) = (color16 & 0x1F);
    29b0:	e0bfff17 	ldw	r2,-4(fp)
    29b4:	10c00084 	addi	r3,r2,2
    29b8:	e0bffe0b 	ldhu	r2,-8(fp)
    29bc:	108007cc 	andi	r2,r2,31
    29c0:	18800005 	stb	r2,0(r3)
	
	return (0);
    29c4:	0005883a 	mov	r2,zero
}
    29c8:	e037883a 	mov	sp,fp
    29cc:	df000017 	ldw	fp,0(sp)
    29d0:	dec00104 	addi	sp,sp,4
    29d4:	f800283a 	ret

000029d8 <vid_copy_line_to_frame_buffer>:
*           the specified coordinates.  Converts color depth if
*           necessary.
*
******************************************************************/
int vid_copy_line_to_frame_buffer( int x, int y, char* buffer, int num_pixels, int source_color_depth, alt_video_display* display )
{
    29d8:	defff504 	addi	sp,sp,-44
    29dc:	dfc00a15 	stw	ra,40(sp)
    29e0:	df000915 	stw	fp,36(sp)
    29e4:	df000904 	addi	fp,sp,36
    29e8:	e13ffc15 	stw	r4,-16(fp)
    29ec:	e17ffd15 	stw	r5,-12(fp)
    29f0:	e1bffe15 	stw	r6,-8(fp)
    29f4:	e1ffff15 	stw	r7,-4(fp)
  unsigned short* temp_line;
  int index_24 = 0;
    29f8:	e03ffa15 	stw	zero,-24(fp)
  int index_16 = 0;
    29fc:	e03ff915 	stw	zero,-28(fp)
  unsigned int dest_addr;
  unsigned int bytes_in_line;
  
  dest_addr = (int)(display->buffer_ptrs[display->buffer_being_written]->buffer) + 
    2a00:	e0800317 	ldw	r2,12(fp)
    2a04:	10800417 	ldw	r2,16(r2)
    2a08:	e0c00317 	ldw	r3,12(fp)
    2a0c:	1085883a 	add	r2,r2,r2
    2a10:	1085883a 	add	r2,r2,r2
    2a14:	10c5883a 	add	r2,r2,r3
    2a18:	10800104 	addi	r2,r2,4
    2a1c:	10800017 	ldw	r2,0(r2)
    2a20:	10800117 	ldw	r2,4(r2)
    2a24:	100b883a 	mov	r5,r2
    2a28:	e0800317 	ldw	r2,12(fp)
    2a2c:	10c00517 	ldw	r3,20(r2)
    2a30:	e0800317 	ldw	r2,12(fp)
    2a34:	10800817 	ldw	r2,32(r2)
    2a38:	1887383a 	mul	r3,r3,r2
    2a3c:	e0bffd17 	ldw	r2,-12(fp)
    2a40:	1889383a 	mul	r4,r3,r2
    2a44:	e0800317 	ldw	r2,12(fp)
    2a48:	10c00817 	ldw	r3,32(r2)
    2a4c:	e0bffc17 	ldw	r2,-16(fp)
    2a50:	1885383a 	mul	r2,r3,r2
    2a54:	2085883a 	add	r2,r4,r2
    2a58:	2885883a 	add	r2,r5,r2
    2a5c:	e0bff815 	stw	r2,-32(fp)
    ((y * (display->width * (display->bytes_per_pixel))) + 
    (x * (display->bytes_per_pixel)));
  
  bytes_in_line = num_pixels * display->bytes_per_pixel;
    2a60:	e0800317 	ldw	r2,12(fp)
    2a64:	10c00817 	ldw	r3,32(r2)
    2a68:	e0bfff17 	ldw	r2,-4(fp)
    2a6c:	1885383a 	mul	r2,r3,r2
    2a70:	e0bff715 	stw	r2,-36(fp)
  
  if(source_color_depth == 24)
    2a74:	e0800217 	ldw	r2,8(fp)
    2a78:	10800618 	cmpnei	r2,r2,24
    2a7c:	10004f1e 	bne	r2,zero,2bbc <vid_copy_line_to_frame_buffer+0x1e4>
  {
    if(display->color_depth == 16)
    2a80:	e0800317 	ldw	r2,12(fp)
    2a84:	10800717 	ldw	r2,28(r2)
    2a88:	10800418 	cmpnei	r2,r2,16
    2a8c:	1000401e 	bne	r2,zero,2b90 <vid_copy_line_to_frame_buffer+0x1b8>
    {
      temp_line = malloc(bytes_in_line);
    2a90:	e13ff717 	ldw	r4,-36(fp)
    2a94:	00085e00 	call	85e0 <malloc>
    2a98:	e0bffb15 	stw	r2,-20(fp)
      while(index_24 < bytes_in_line)
    2a9c:	00003006 	br	2b60 <vid_copy_line_to_frame_buffer+0x188>
      {
        *(temp_line + index_16) = vid_color_convert24_16_m((char*)(buffer + index_24));
    2aa0:	e0bff917 	ldw	r2,-28(fp)
    2aa4:	1085883a 	add	r2,r2,r2
    2aa8:	1007883a 	mov	r3,r2
    2aac:	e0bffb17 	ldw	r2,-20(fp)
    2ab0:	188b883a 	add	r5,r3,r2
    2ab4:	e0bffa17 	ldw	r2,-24(fp)
    2ab8:	1007883a 	mov	r3,r2
    2abc:	e0bffe17 	ldw	r2,-8(fp)
    2ac0:	1885883a 	add	r2,r3,r2
    2ac4:	10800084 	addi	r2,r2,2
    2ac8:	10800003 	ldbu	r2,0(r2)
    2acc:	10803fcc 	andi	r2,r2,255
    2ad0:	1080201c 	xori	r2,r2,128
    2ad4:	10bfe004 	addi	r2,r2,-128
    2ad8:	10803e0c 	andi	r2,r2,248
    2adc:	1005d0fa 	srai	r2,r2,3
    2ae0:	1009883a 	mov	r4,r2
    2ae4:	e0bffa17 	ldw	r2,-24(fp)
    2ae8:	1007883a 	mov	r3,r2
    2aec:	e0bffe17 	ldw	r2,-8(fp)
    2af0:	1885883a 	add	r2,r3,r2
    2af4:	10800044 	addi	r2,r2,1
    2af8:	10800003 	ldbu	r2,0(r2)
    2afc:	10803fcc 	andi	r2,r2,255
    2b00:	1080201c 	xori	r2,r2,128
    2b04:	10bfe004 	addi	r2,r2,-128
    2b08:	10803f0c 	andi	r2,r2,252
    2b0c:	100490fa 	slli	r2,r2,3
    2b10:	2084b03a 	or	r2,r4,r2
    2b14:	1009883a 	mov	r4,r2
    2b18:	e0bffa17 	ldw	r2,-24(fp)
    2b1c:	1007883a 	mov	r3,r2
    2b20:	e0bffe17 	ldw	r2,-8(fp)
    2b24:	1885883a 	add	r2,r3,r2
    2b28:	10800003 	ldbu	r2,0(r2)
    2b2c:	10803fcc 	andi	r2,r2,255
    2b30:	1080201c 	xori	r2,r2,128
    2b34:	10bfe004 	addi	r2,r2,-128
    2b38:	10803e0c 	andi	r2,r2,248
    2b3c:	1004923a 	slli	r2,r2,8
    2b40:	2084b03a 	or	r2,r4,r2
    2b44:	2880000d 	sth	r2,0(r5)
        index_16++;
    2b48:	e0bff917 	ldw	r2,-28(fp)
    2b4c:	10800044 	addi	r2,r2,1
    2b50:	e0bff915 	stw	r2,-28(fp)
        index_24+=3;
    2b54:	e0bffa17 	ldw	r2,-24(fp)
    2b58:	108000c4 	addi	r2,r2,3
    2b5c:	e0bffa15 	stw	r2,-24(fp)
  if(source_color_depth == 24)
  {
    if(display->color_depth == 16)
    {
      temp_line = malloc(bytes_in_line);
      while(index_24 < bytes_in_line)
    2b60:	e0fffa17 	ldw	r3,-24(fp)
    2b64:	e0bff717 	ldw	r2,-36(fp)
    2b68:	18bfcd36 	bltu	r3,r2,2aa0 <vid_copy_line_to_frame_buffer+0xc8>
      {
        *(temp_line + index_16) = vid_color_convert24_16_m((char*)(buffer + index_24));
        index_16++;
        index_24+=3;
      }
      memcpy( (void*)dest_addr, (void*)temp_line, bytes_in_line );
    2b6c:	e0bff817 	ldw	r2,-32(fp)
    2b70:	e0fffb17 	ldw	r3,-20(fp)
    2b74:	1009883a 	mov	r4,r2
    2b78:	180b883a 	mov	r5,r3
    2b7c:	e1bff717 	ldw	r6,-36(fp)
    2b80:	0008d340 	call	8d34 <memcpy>
      free(temp_line);
    2b84:	e13ffb17 	ldw	r4,-20(fp)
    2b88:	00085cc0 	call	85cc <free>
    2b8c:	00004206 	br	2c98 <vid_copy_line_to_frame_buffer+0x2c0>
    }
    else if(display->color_depth == 24)
    2b90:	e0800317 	ldw	r2,12(fp)
    2b94:	10800717 	ldw	r2,28(r2)
    2b98:	10800618 	cmpnei	r2,r2,24
    2b9c:	10003e1e 	bne	r2,zero,2c98 <vid_copy_line_to_frame_buffer+0x2c0>
    {
      memcpy( (void*)dest_addr, (void*)buffer, bytes_in_line );
    2ba0:	e0bff817 	ldw	r2,-32(fp)
    2ba4:	e0fffe17 	ldw	r3,-8(fp)
    2ba8:	1009883a 	mov	r4,r2
    2bac:	180b883a 	mov	r5,r3
    2bb0:	e1bff717 	ldw	r6,-36(fp)
    2bb4:	0008d340 	call	8d34 <memcpy>
    2bb8:	00003706 	br	2c98 <vid_copy_line_to_frame_buffer+0x2c0>
    }
  }
  else if(source_color_depth == 16)
    2bbc:	e0800217 	ldw	r2,8(fp)
    2bc0:	10800418 	cmpnei	r2,r2,16
    2bc4:	1000341e 	bne	r2,zero,2c98 <vid_copy_line_to_frame_buffer+0x2c0>
  {
    if(display->color_depth == 24)
    2bc8:	e0800317 	ldw	r2,12(fp)
    2bcc:	10800717 	ldw	r2,28(r2)
    2bd0:	10800618 	cmpnei	r2,r2,24
    2bd4:	1000261e 	bne	r2,zero,2c70 <vid_copy_line_to_frame_buffer+0x298>
    {
      temp_line = malloc(bytes_in_line);
    2bd8:	e13ff717 	ldw	r4,-36(fp)
    2bdc:	00085e00 	call	85e0 <malloc>
    2be0:	e0bffb15 	stw	r2,-20(fp)
      while(index_16 < num_pixels )
    2be4:	00001606 	br	2c40 <vid_copy_line_to_frame_buffer+0x268>
      {
        vid_color_convert16_24((short)*(buffer + index_16), (char*)(temp_line + index_24));
    2be8:	e0bff917 	ldw	r2,-28(fp)
    2bec:	1007883a 	mov	r3,r2
    2bf0:	e0bffe17 	ldw	r2,-8(fp)
    2bf4:	1885883a 	add	r2,r3,r2
    2bf8:	10800003 	ldbu	r2,0(r2)
    2bfc:	10803fcc 	andi	r2,r2,255
    2c00:	1080201c 	xori	r2,r2,128
    2c04:	10bfe004 	addi	r2,r2,-128
    2c08:	113fffcc 	andi	r4,r2,65535
    2c0c:	e0bffa17 	ldw	r2,-24(fp)
    2c10:	1085883a 	add	r2,r2,r2
    2c14:	1007883a 	mov	r3,r2
    2c18:	e0bffb17 	ldw	r2,-20(fp)
    2c1c:	1885883a 	add	r2,r3,r2
    2c20:	100b883a 	mov	r5,r2
    2c24:	00029700 	call	2970 <vid_color_convert16_24>
        index_16++;
    2c28:	e0bff917 	ldw	r2,-28(fp)
    2c2c:	10800044 	addi	r2,r2,1
    2c30:	e0bff915 	stw	r2,-28(fp)
        index_24+=3;
    2c34:	e0bffa17 	ldw	r2,-24(fp)
    2c38:	108000c4 	addi	r2,r2,3
    2c3c:	e0bffa15 	stw	r2,-24(fp)
  else if(source_color_depth == 16)
  {
    if(display->color_depth == 24)
    {
      temp_line = malloc(bytes_in_line);
      while(index_16 < num_pixels )
    2c40:	e0fff917 	ldw	r3,-28(fp)
    2c44:	e0bfff17 	ldw	r2,-4(fp)
    2c48:	18bfe716 	blt	r3,r2,2be8 <vid_copy_line_to_frame_buffer+0x210>
      {
        vid_color_convert16_24((short)*(buffer + index_16), (char*)(temp_line + index_24));
        index_16++;
        index_24+=3;
      }
      memcpy( (void*)dest_addr, (void*)temp_line, bytes_in_line );
    2c4c:	e0bff817 	ldw	r2,-32(fp)
    2c50:	e0fffb17 	ldw	r3,-20(fp)
    2c54:	1009883a 	mov	r4,r2
    2c58:	180b883a 	mov	r5,r3
    2c5c:	e1bff717 	ldw	r6,-36(fp)
    2c60:	0008d340 	call	8d34 <memcpy>
      free(temp_line);
    2c64:	e13ffb17 	ldw	r4,-20(fp)
    2c68:	00085cc0 	call	85cc <free>
    2c6c:	00000a06 	br	2c98 <vid_copy_line_to_frame_buffer+0x2c0>
      
    }
    else if(display->color_depth == 16)
    2c70:	e0800317 	ldw	r2,12(fp)
    2c74:	10800717 	ldw	r2,28(r2)
    2c78:	10800418 	cmpnei	r2,r2,16
    2c7c:	1000061e 	bne	r2,zero,2c98 <vid_copy_line_to_frame_buffer+0x2c0>
    {
      memcpy( (void*)dest_addr, (void*)buffer, bytes_in_line );
    2c80:	e0bff817 	ldw	r2,-32(fp)
    2c84:	e0fffe17 	ldw	r3,-8(fp)
    2c88:	1009883a 	mov	r4,r2
    2c8c:	180b883a 	mov	r5,r3
    2c90:	e1bff717 	ldw	r6,-36(fp)
    2c94:	0008d340 	call	8d34 <memcpy>
    }
  }
  return(0);
    2c98:	0005883a 	mov	r2,zero
}
    2c9c:	e037883a 	mov	sp,fp
    2ca0:	dfc00117 	ldw	ra,4(sp)
    2ca4:	df000017 	ldw	fp,0(sp)
    2ca8:	dec00204 	addi	sp,sp,8
    2cac:	f800283a 	ret

00002cb0 <vid_draw_sloped_line>:
                           unsigned short horiz_end, 
                           unsigned short vert_end, 
                           unsigned short width, 
                           int color, 
                           alt_video_display* display)
{
    2cb0:	deffef04 	addi	sp,sp,-68
    2cb4:	dfc01015 	stw	ra,64(sp)
    2cb8:	df000f15 	stw	fp,60(sp)
    2cbc:	df000f04 	addi	fp,sp,60
    2cc0:	e0800217 	ldw	r2,8(fp)
    2cc4:	e13ffb0d 	sth	r4,-20(fp)
    2cc8:	e17ffc0d 	sth	r5,-16(fp)
    2ccc:	e1bffd0d 	sth	r6,-12(fp)
    2cd0:	e1fffe0d 	sth	r7,-8(fp)
    2cd4:	e0bfff0d 	sth	r2,-4(fp)
  // Find the vertical and horizontal distance between the two points
  int horiz_delta = abs(horiz_end-horiz_start);
    2cd8:	e0fffd0b 	ldhu	r3,-12(fp)
    2cdc:	e0bffb0b 	ldhu	r2,-20(fp)
    2ce0:	1885c83a 	sub	r2,r3,r2
    2ce4:	e0bffa15 	stw	r2,-24(fp)
    2ce8:	e0bffa17 	ldw	r2,-24(fp)
    2cec:	1004403a 	cmpge	r2,r2,zero
    2cf0:	1000031e 	bne	r2,zero,2d00 <vid_draw_sloped_line+0x50>
    2cf4:	e0bffa17 	ldw	r2,-24(fp)
    2cf8:	0085c83a 	sub	r2,zero,r2
    2cfc:	e0bffa15 	stw	r2,-24(fp)
  int vert_delta = abs(vert_end-vert_start);
    2d00:	e0fffe0b 	ldhu	r3,-8(fp)
    2d04:	e0bffc0b 	ldhu	r2,-16(fp)
    2d08:	1885c83a 	sub	r2,r3,r2
    2d0c:	e0bff915 	stw	r2,-28(fp)
    2d10:	e0bff917 	ldw	r2,-28(fp)
    2d14:	1004403a 	cmpge	r2,r2,zero
    2d18:	1000031e 	bne	r2,zero,2d28 <vid_draw_sloped_line+0x78>
    2d1c:	e0bff917 	ldw	r2,-28(fp)
    2d20:	0085c83a 	sub	r2,zero,r2
    2d24:	e0bff915 	stw	r2,-28(fp)

  // Find out what direction we are going
  int horiz_incr, vert_incr;
  if (horiz_start > horiz_end) { horiz_incr=-1; } else { horiz_incr=1; }
    2d28:	e0fffb0b 	ldhu	r3,-20(fp)
    2d2c:	e0bffd0b 	ldhu	r2,-12(fp)
    2d30:	10c0032e 	bgeu	r2,r3,2d40 <vid_draw_sloped_line+0x90>
    2d34:	00bfffc4 	movi	r2,-1
    2d38:	e0bff815 	stw	r2,-32(fp)
    2d3c:	00000206 	br	2d48 <vid_draw_sloped_line+0x98>
    2d40:	00800044 	movi	r2,1
    2d44:	e0bff815 	stw	r2,-32(fp)
  if (vert_start > vert_end) { vert_incr=-1; } else { vert_incr=1; }
    2d48:	e0fffc0b 	ldhu	r3,-16(fp)
    2d4c:	e0bffe0b 	ldhu	r2,-8(fp)
    2d50:	10c0032e 	bgeu	r2,r3,2d60 <vid_draw_sloped_line+0xb0>
    2d54:	00bfffc4 	movi	r2,-1
    2d58:	e0bff715 	stw	r2,-36(fp)
    2d5c:	00000206 	br	2d68 <vid_draw_sloped_line+0xb8>
    2d60:	00800044 	movi	r2,1
    2d64:	e0bff715 	stw	r2,-36(fp)

  // Find out which axis is always incremented when drawing the line
  // If it's the horizontal axis
  if (horiz_delta >= vert_delta) {
    2d68:	e0fffa17 	ldw	r3,-24(fp)
    2d6c:	e0bff917 	ldw	r2,-28(fp)
    2d70:	18803516 	blt	r3,r2,2e48 <vid_draw_sloped_line+0x198>
    int dPr   = vert_delta<<1;
    2d74:	e0bff917 	ldw	r2,-28(fp)
    2d78:	1085883a 	add	r2,r2,r2
    2d7c:	e0bff615 	stw	r2,-40(fp)
    int dPru  = dPr - (horiz_delta<<1);
    2d80:	e0bffa17 	ldw	r2,-24(fp)
    2d84:	1085883a 	add	r2,r2,r2
    2d88:	1007883a 	mov	r3,r2
    2d8c:	e0bff617 	ldw	r2,-40(fp)
    2d90:	10c5c83a 	sub	r2,r2,r3
    2d94:	e0bff515 	stw	r2,-44(fp)
    int P     = dPr - horiz_delta;
    2d98:	e0fff617 	ldw	r3,-40(fp)
    2d9c:	e0bffa17 	ldw	r2,-24(fp)
    2da0:	1885c83a 	sub	r2,r3,r2
    2da4:	e0bff415 	stw	r2,-48(fp)

    // Process the line, one horizontal point at at time
    for (; horiz_delta >= 0; horiz_delta--) {
    2da8:	00002306 	br	2e38 <vid_draw_sloped_line+0x188>
      // plot the pixel
      vid_set_pixel(horiz_start, vert_start, color, display);
    2dac:	e13ffb0b 	ldhu	r4,-20(fp)
    2db0:	e17ffc0b 	ldhu	r5,-16(fp)
    2db4:	e1800317 	ldw	r6,12(fp)
    2db8:	e1c00417 	ldw	r7,16(fp)
    2dbc:	000201c0 	call	201c <vid_set_pixel>
      // If we're moving both up and right
      if (P > 0) {
    2dc0:	e0bff417 	ldw	r2,-48(fp)
    2dc4:	10800050 	cmplti	r2,r2,1
    2dc8:	10000f1e 	bne	r2,zero,2e08 <vid_draw_sloped_line+0x158>
        horiz_start+=horiz_incr;
    2dcc:	e0bff817 	ldw	r2,-32(fp)
    2dd0:	1007883a 	mov	r3,r2
    2dd4:	e0bffb0b 	ldhu	r2,-20(fp)
    2dd8:	10c5883a 	add	r2,r2,r3
    2ddc:	e0bffb0d 	sth	r2,-20(fp)
        vert_start+=vert_incr;
    2de0:	e0bff717 	ldw	r2,-36(fp)
    2de4:	1007883a 	mov	r3,r2
    2de8:	e0bffc0b 	ldhu	r2,-16(fp)
    2dec:	10c5883a 	add	r2,r2,r3
    2df0:	e0bffc0d 	sth	r2,-16(fp)
        P+=dPru;
    2df4:	e0fff417 	ldw	r3,-48(fp)
    2df8:	e0bff517 	ldw	r2,-44(fp)
    2dfc:	1885883a 	add	r2,r3,r2
    2e00:	e0bff415 	stw	r2,-48(fp)
    2e04:	00000906 	br	2e2c <vid_draw_sloped_line+0x17c>
      } else {
        horiz_start+=horiz_incr;
    2e08:	e0bff817 	ldw	r2,-32(fp)
    2e0c:	1007883a 	mov	r3,r2
    2e10:	e0bffb0b 	ldhu	r2,-20(fp)
    2e14:	10c5883a 	add	r2,r2,r3
    2e18:	e0bffb0d 	sth	r2,-20(fp)
        P+=dPr;
    2e1c:	e0fff417 	ldw	r3,-48(fp)
    2e20:	e0bff617 	ldw	r2,-40(fp)
    2e24:	1885883a 	add	r2,r3,r2
    2e28:	e0bff415 	stw	r2,-48(fp)
    int dPr   = vert_delta<<1;
    int dPru  = dPr - (horiz_delta<<1);
    int P     = dPr - horiz_delta;

    // Process the line, one horizontal point at at time
    for (; horiz_delta >= 0; horiz_delta--) {
    2e2c:	e0bffa17 	ldw	r2,-24(fp)
    2e30:	10bfffc4 	addi	r2,r2,-1
    2e34:	e0bffa15 	stw	r2,-24(fp)
    2e38:	e0bffa17 	ldw	r2,-24(fp)
    2e3c:	1004403a 	cmpge	r2,r2,zero
    2e40:	103fda1e 	bne	r2,zero,2dac <vid_draw_sloped_line+0xfc>
    2e44:	00003406 	br	2f18 <vid_draw_sloped_line+0x268>
        P+=dPr;
      }
    }
  // If it's the vertical axis
  } else {
    int dPr   = horiz_delta<<1;
    2e48:	e0bffa17 	ldw	r2,-24(fp)
    2e4c:	1085883a 	add	r2,r2,r2
    2e50:	e0bff315 	stw	r2,-52(fp)
    int dPru  = dPr - (vert_delta<<1);
    2e54:	e0bff917 	ldw	r2,-28(fp)
    2e58:	1085883a 	add	r2,r2,r2
    2e5c:	1007883a 	mov	r3,r2
    2e60:	e0bff317 	ldw	r2,-52(fp)
    2e64:	10c5c83a 	sub	r2,r2,r3
    2e68:	e0bff215 	stw	r2,-56(fp)
    int P     = dPr - vert_delta;
    2e6c:	e0fff317 	ldw	r3,-52(fp)
    2e70:	e0bff917 	ldw	r2,-28(fp)
    2e74:	1885c83a 	sub	r2,r3,r2
    2e78:	e0bff115 	stw	r2,-60(fp)

    // Process the line, one vertical point at at time
    for (; vert_delta>=0; vert_delta--) {
    2e7c:	00002306 	br	2f0c <vid_draw_sloped_line+0x25c>
      // plot the pixel
      vid_set_pixel(horiz_start, vert_start, color, display);
    2e80:	e13ffb0b 	ldhu	r4,-20(fp)
    2e84:	e17ffc0b 	ldhu	r5,-16(fp)
    2e88:	e1800317 	ldw	r6,12(fp)
    2e8c:	e1c00417 	ldw	r7,16(fp)
    2e90:	000201c0 	call	201c <vid_set_pixel>
      // If we're moving both up and right
      if (P > 0) {
    2e94:	e0bff117 	ldw	r2,-60(fp)
    2e98:	10800050 	cmplti	r2,r2,1
    2e9c:	10000f1e 	bne	r2,zero,2edc <vid_draw_sloped_line+0x22c>
        horiz_start+=horiz_incr;
    2ea0:	e0bff817 	ldw	r2,-32(fp)
    2ea4:	1007883a 	mov	r3,r2
    2ea8:	e0bffb0b 	ldhu	r2,-20(fp)
    2eac:	10c5883a 	add	r2,r2,r3
    2eb0:	e0bffb0d 	sth	r2,-20(fp)
        vert_start+=vert_incr;
    2eb4:	e0bff717 	ldw	r2,-36(fp)
    2eb8:	1007883a 	mov	r3,r2
    2ebc:	e0bffc0b 	ldhu	r2,-16(fp)
    2ec0:	10c5883a 	add	r2,r2,r3
    2ec4:	e0bffc0d 	sth	r2,-16(fp)
        P+=dPru;
    2ec8:	e0fff117 	ldw	r3,-60(fp)
    2ecc:	e0bff217 	ldw	r2,-56(fp)
    2ed0:	1885883a 	add	r2,r3,r2
    2ed4:	e0bff115 	stw	r2,-60(fp)
    2ed8:	00000906 	br	2f00 <vid_draw_sloped_line+0x250>
      } else {
        vert_start+=vert_incr;
    2edc:	e0bff717 	ldw	r2,-36(fp)
    2ee0:	1007883a 	mov	r3,r2
    2ee4:	e0bffc0b 	ldhu	r2,-16(fp)
    2ee8:	10c5883a 	add	r2,r2,r3
    2eec:	e0bffc0d 	sth	r2,-16(fp)
        P+=dPr;
    2ef0:	e0fff117 	ldw	r3,-60(fp)
    2ef4:	e0bff317 	ldw	r2,-52(fp)
    2ef8:	1885883a 	add	r2,r3,r2
    2efc:	e0bff115 	stw	r2,-60(fp)
    int dPr   = horiz_delta<<1;
    int dPru  = dPr - (vert_delta<<1);
    int P     = dPr - vert_delta;

    // Process the line, one vertical point at at time
    for (; vert_delta>=0; vert_delta--) {
    2f00:	e0bff917 	ldw	r2,-28(fp)
    2f04:	10bfffc4 	addi	r2,r2,-1
    2f08:	e0bff915 	stw	r2,-28(fp)
    2f0c:	e0bff917 	ldw	r2,-28(fp)
    2f10:	1004403a 	cmpge	r2,r2,zero
    2f14:	103fda1e 	bne	r2,zero,2e80 <vid_draw_sloped_line+0x1d0>
        vert_start+=vert_incr;
        P+=dPr;
      }
    }
  }
}
    2f18:	e037883a 	mov	sp,fp
    2f1c:	dfc00117 	ldw	ra,4(sp)
    2f20:	df000017 	ldw	fp,0(sp)
    2f24:	dec00204 	addi	sp,sp,8
    2f28:	f800283a 	ret

00002f2c <vid_draw_circle>:
*  tells the function whether or not to fill in the box.  1 = fill,
*  0 = do not fill.
*
******************************************************************/
int vid_draw_circle(int Hcenter, int Vcenter, int radius, int color, char fill, alt_video_display* display)
{
    2f2c:	defff004 	addi	sp,sp,-64
    2f30:	dfc00f15 	stw	ra,60(sp)
    2f34:	df000e15 	stw	fp,56(sp)
    2f38:	df000e04 	addi	fp,sp,56
    2f3c:	e13ffa15 	stw	r4,-24(fp)
    2f40:	e17ffb15 	stw	r5,-20(fp)
    2f44:	e1bffc15 	stw	r6,-16(fp)
    2f48:	e1fffd15 	stw	r7,-12(fp)
    2f4c:	e0800217 	ldw	r2,8(fp)
    2f50:	e0bffe05 	stb	r2,-8(fp)
  int x = 0;
    2f54:	e03ff915 	stw	zero,-28(fp)
  int y = radius;
    2f58:	e0bffc17 	ldw	r2,-16(fp)
    2f5c:	e0bff815 	stw	r2,-32(fp)
  int p = (5 - radius*4)/4;
    2f60:	e0bffc17 	ldw	r2,-16(fp)
    2f64:	1085883a 	add	r2,r2,r2
    2f68:	1085883a 	add	r2,r2,r2
    2f6c:	1007883a 	mov	r3,r2
    2f70:	00800144 	movi	r2,5
    2f74:	10c5c83a 	sub	r2,r2,r3
    2f78:	e0bfff15 	stw	r2,-4(fp)
    2f7c:	e0ffff17 	ldw	r3,-4(fp)
    2f80:	1804403a 	cmpge	r2,r3,zero
    2f84:	1000031e 	bne	r2,zero,2f94 <vid_draw_circle+0x68>
    2f88:	e0bfff17 	ldw	r2,-4(fp)
    2f8c:	108000c4 	addi	r2,r2,3
    2f90:	e0bfff15 	stw	r2,-4(fp)
    2f94:	e0ffff17 	ldw	r3,-4(fp)
    2f98:	1805d0ba 	srai	r2,r3,2
    2f9c:	e0bff715 	stw	r2,-36(fp)

  // Start the circle with the top, bottom, left, and right pixels.
  vid_round_corner_points(Hcenter, Vcenter, x, y, 0, 0, color, fill, display);
    2fa0:	e0fffe07 	ldb	r3,-8(fp)
    2fa4:	d8000015 	stw	zero,0(sp)
    2fa8:	d8000115 	stw	zero,4(sp)
    2fac:	e0bffd17 	ldw	r2,-12(fp)
    2fb0:	d8800215 	stw	r2,8(sp)
    2fb4:	d8c00315 	stw	r3,12(sp)
    2fb8:	e0800317 	ldw	r2,12(fp)
    2fbc:	d8800415 	stw	r2,16(sp)
    2fc0:	e13ffa17 	ldw	r4,-24(fp)
    2fc4:	e17ffb17 	ldw	r5,-20(fp)
    2fc8:	e1bff917 	ldw	r6,-28(fp)
    2fcc:	e1fff817 	ldw	r7,-32(fp)
    2fd0:	00034640 	call	3464 <vid_round_corner_points>

  // Now start moving out from those points until the lines meet
  while (x < y) {
    2fd4:	00002706 	br	3074 <vid_draw_circle+0x148>
    x++;
    2fd8:	e0bff917 	ldw	r2,-28(fp)
    2fdc:	10800044 	addi	r2,r2,1
    2fe0:	e0bff915 	stw	r2,-28(fp)
    if (p < 0) {
    2fe4:	e0bff717 	ldw	r2,-36(fp)
    2fe8:	1004403a 	cmpge	r2,r2,zero
    2fec:	1000081e 	bne	r2,zero,3010 <vid_draw_circle+0xe4>
      p += 2*x+1;
    2ff0:	e0bff917 	ldw	r2,-28(fp)
    2ff4:	1085883a 	add	r2,r2,r2
    2ff8:	1007883a 	mov	r3,r2
    2ffc:	e0bff717 	ldw	r2,-36(fp)
    3000:	1885883a 	add	r2,r3,r2
    3004:	10800044 	addi	r2,r2,1
    3008:	e0bff715 	stw	r2,-36(fp)
    300c:	00000c06 	br	3040 <vid_draw_circle+0x114>
    } else {
      y--;
    3010:	e0bff817 	ldw	r2,-32(fp)
    3014:	10bfffc4 	addi	r2,r2,-1
    3018:	e0bff815 	stw	r2,-32(fp)
      p += 2*(x-y)+1;
    301c:	e0fff917 	ldw	r3,-28(fp)
    3020:	e0bff817 	ldw	r2,-32(fp)
    3024:	1885c83a 	sub	r2,r3,r2
    3028:	1085883a 	add	r2,r2,r2
    302c:	1007883a 	mov	r3,r2
    3030:	e0bff717 	ldw	r2,-36(fp)
    3034:	1885883a 	add	r2,r3,r2
    3038:	10800044 	addi	r2,r2,1
    303c:	e0bff715 	stw	r2,-36(fp)
    }
    vid_round_corner_points(Hcenter, Vcenter, x, y, 0, 0, color, fill, display);
    3040:	e0bffe07 	ldb	r2,-8(fp)
    3044:	d8000015 	stw	zero,0(sp)
    3048:	d8000115 	stw	zero,4(sp)
    304c:	e0fffd17 	ldw	r3,-12(fp)
    3050:	d8c00215 	stw	r3,8(sp)
    3054:	d8800315 	stw	r2,12(sp)
    3058:	e0800317 	ldw	r2,12(fp)
    305c:	d8800415 	stw	r2,16(sp)
    3060:	e13ffa17 	ldw	r4,-24(fp)
    3064:	e17ffb17 	ldw	r5,-20(fp)
    3068:	e1bff917 	ldw	r6,-28(fp)
    306c:	e1fff817 	ldw	r7,-32(fp)
    3070:	00034640 	call	3464 <vid_round_corner_points>

  // Start the circle with the top, bottom, left, and right pixels.
  vid_round_corner_points(Hcenter, Vcenter, x, y, 0, 0, color, fill, display);

  // Now start moving out from those points until the lines meet
  while (x < y) {
    3074:	e0fff917 	ldw	r3,-28(fp)
    3078:	e0bff817 	ldw	r2,-32(fp)
    307c:	18bfd616 	blt	r3,r2,2fd8 <vid_draw_circle+0xac>
      y--;
      p += 2*(x-y)+1;
    }
    vid_round_corner_points(Hcenter, Vcenter, x, y, 0, 0, color, fill, display);
  }
  return (0);
    3080:	0005883a 	mov	r2,zero
}
    3084:	e037883a 	mov	sp,fp
    3088:	dfc00117 	ldw	ra,4(sp)
    308c:	df000017 	ldw	fp,0(sp)
    3090:	dec00204 	addi	sp,sp,8
    3094:	f800283a 	ret

00003098 <vid_draw_round_corner_box>:
*  to fill in the box.  1 = fill, 0 = do not fill.
*
******************************************************************/
int vid_draw_round_corner_box ( int horiz_start, int vert_start, int horiz_end, int vert_end, 
                                int radius, int color, int fill, alt_video_display* display)
{
    3098:	deffeb04 	addi	sp,sp,-84
    309c:	dfc01415 	stw	ra,80(sp)
    30a0:	df001315 	stw	fp,76(sp)
    30a4:	df001304 	addi	fp,sp,76
    30a8:	e13ffb15 	stw	r4,-20(fp)
    30ac:	e17ffc15 	stw	r5,-16(fp)
    30b0:	e1bffd15 	stw	r6,-12(fp)
    30b4:	e1fffe15 	stw	r7,-8(fp)
  int diameter;
  int temp;
  unsigned int width, height, straight_width, straight_height;

  // Make sure the start point us up and left of the end point
  if( horiz_start > horiz_end )
    30b8:	e0fffb17 	ldw	r3,-20(fp)
    30bc:	e0bffd17 	ldw	r2,-12(fp)
    30c0:	10c0060e 	bge	r2,r3,30dc <vid_draw_round_corner_box+0x44>
  {
    temp = horiz_end;
    30c4:	e0bffd17 	ldw	r2,-12(fp)
    30c8:	e0bff615 	stw	r2,-40(fp)
    horiz_end = horiz_start;
    30cc:	e0bffb17 	ldw	r2,-20(fp)
    30d0:	e0bffd15 	stw	r2,-12(fp)
    horiz_start = temp;
    30d4:	e0bff617 	ldw	r2,-40(fp)
    30d8:	e0bffb15 	stw	r2,-20(fp)
  }
  
  if( vert_start > vert_end )
    30dc:	e0fffc17 	ldw	r3,-16(fp)
    30e0:	e0bffe17 	ldw	r2,-8(fp)
    30e4:	10c0060e 	bge	r2,r3,3100 <vid_draw_round_corner_box+0x68>
  {
    temp = vert_end;
    30e8:	e0bffe17 	ldw	r2,-8(fp)
    30ec:	e0bff615 	stw	r2,-40(fp)
    vert_end = vert_start;
    30f0:	e0bffc17 	ldw	r2,-16(fp)
    30f4:	e0bffe15 	stw	r2,-8(fp)
    vert_start = temp;
    30f8:	e0bff617 	ldw	r2,-40(fp)
    30fc:	e0bffc15 	stw	r2,-16(fp)
  }
  
  // These are the overall dimensions of the box
  width = horiz_end - horiz_start;
    3100:	e0fffd17 	ldw	r3,-12(fp)
    3104:	e0bffb17 	ldw	r2,-20(fp)
    3108:	1885c83a 	sub	r2,r3,r2
    310c:	e0bff515 	stw	r2,-44(fp)
  height = vert_end - vert_start;
    3110:	e0fffe17 	ldw	r3,-8(fp)
    3114:	e0bffc17 	ldw	r2,-16(fp)
    3118:	1885c83a 	sub	r2,r3,r2
    311c:	e0bff415 	stw	r2,-48(fp)

  // Make sure our radius isnt more than the shortest dimension 
  // of the box, or it'll screw us all up
  if( radius > ( width / 2 ))
    3120:	e0c00217 	ldw	r3,8(fp)
    3124:	e0bff517 	ldw	r2,-44(fp)
    3128:	1004d07a 	srli	r2,r2,1
    312c:	10c0032e 	bgeu	r2,r3,313c <vid_draw_round_corner_box+0xa4>
    radius = width / 2;
    3130:	e0bff517 	ldw	r2,-44(fp)
    3134:	1004d07a 	srli	r2,r2,1
    3138:	e0800215 	stw	r2,8(fp)

  if( radius > ( height / 2 ))
    313c:	e0800217 	ldw	r2,8(fp)
    3140:	e0fff417 	ldw	r3,-48(fp)
    3144:	1806d07a 	srli	r3,r3,1
    3148:	1880032e 	bgeu	r3,r2,3158 <vid_draw_round_corner_box+0xc0>
    radius = height / 2;
    314c:	e0bff417 	ldw	r2,-48(fp)
    3150:	1004d07a 	srli	r2,r2,1
    3154:	e0800215 	stw	r2,8(fp)
  
  // We use the diameter for some calculations, so we'll pre calculate it here.
  diameter = ( radius * 2 );
    3158:	e0800217 	ldw	r2,8(fp)
    315c:	1085883a 	add	r2,r2,r2
    3160:	e0bff715 	stw	r2,-36(fp)

  // These are the lengths of the straight portions of the box edges.
  straight_width = width - diameter;
    3164:	e0fff717 	ldw	r3,-36(fp)
    3168:	e0bff517 	ldw	r2,-44(fp)
    316c:	10c5c83a 	sub	r2,r2,r3
    3170:	e0bff315 	stw	r2,-52(fp)
  straight_height = height - diameter;
    3174:	e0fff717 	ldw	r3,-36(fp)
    3178:	e0bff417 	ldw	r2,-48(fp)
    317c:	10c5c83a 	sub	r2,r2,r3
    3180:	e0bff215 	stw	r2,-56(fp)

  x = 0;
    3184:	e03ffa15 	stw	zero,-24(fp)
  y = radius;
    3188:	e0800217 	ldw	r2,8(fp)
    318c:	e0bff915 	stw	r2,-28(fp)
  p = (5 - radius*4)/4;
    3190:	e0800217 	ldw	r2,8(fp)
    3194:	1085883a 	add	r2,r2,r2
    3198:	1085883a 	add	r2,r2,r2
    319c:	1007883a 	mov	r3,r2
    31a0:	00800144 	movi	r2,5
    31a4:	10c5c83a 	sub	r2,r2,r3
    31a8:	e0bfff15 	stw	r2,-4(fp)
    31ac:	e0ffff17 	ldw	r3,-4(fp)
    31b0:	1804403a 	cmpge	r2,r3,zero
    31b4:	1000031e 	bne	r2,zero,31c4 <vid_draw_round_corner_box+0x12c>
    31b8:	e0bfff17 	ldw	r2,-4(fp)
    31bc:	108000c4 	addi	r2,r2,3
    31c0:	e0bfff15 	stw	r2,-4(fp)
    31c4:	e0ffff17 	ldw	r3,-4(fp)
    31c8:	1805d0ba 	srai	r2,r3,2
    31cc:	e0bff815 	stw	r2,-32(fp)
   
  // Start the corners with the top, bottom, left, and right pixels.
  vid_round_corner_points( horiz_start + radius, vert_start + radius, x, y, 
    31d0:	e0fffb17 	ldw	r3,-20(fp)
    31d4:	e0800217 	ldw	r2,8(fp)
    31d8:	188d883a 	add	r6,r3,r2
    31dc:	e0fffc17 	ldw	r3,-16(fp)
    31e0:	e0800217 	ldw	r2,8(fp)
    31e4:	188f883a 	add	r7,r3,r2
    31e8:	e23ffa17 	ldw	r8,-24(fp)
    31ec:	e27ff917 	ldw	r9,-28(fp)
    31f0:	e0fff317 	ldw	r3,-52(fp)
    31f4:	e13ff217 	ldw	r4,-56(fp)
    31f8:	e0800417 	ldw	r2,16(fp)
    31fc:	11403fcc 	andi	r5,r2,255
    3200:	2940201c 	xori	r5,r5,128
    3204:	297fe004 	addi	r5,r5,-128
    3208:	d8c00015 	stw	r3,0(sp)
    320c:	d9000115 	stw	r4,4(sp)
    3210:	e0800317 	ldw	r2,12(fp)
    3214:	d8800215 	stw	r2,8(sp)
    3218:	d9400315 	stw	r5,12(sp)
    321c:	e0800517 	ldw	r2,20(fp)
    3220:	d8800415 	stw	r2,16(sp)
    3224:	3009883a 	mov	r4,r6
    3228:	380b883a 	mov	r5,r7
    322c:	400d883a 	mov	r6,r8
    3230:	480f883a 	mov	r7,r9
    3234:	00034640 	call	3464 <vid_round_corner_points>
                           straight_width, straight_height, color, fill, display );
  
  // Now start moving out from those points until the lines meet
  while (x < y) {
    3238:	00003406 	br	330c <vid_draw_round_corner_box+0x274>
    x++;
    323c:	e0bffa17 	ldw	r2,-24(fp)
    3240:	10800044 	addi	r2,r2,1
    3244:	e0bffa15 	stw	r2,-24(fp)
    if (p < 0) {
    3248:	e0bff817 	ldw	r2,-32(fp)
    324c:	1004403a 	cmpge	r2,r2,zero
    3250:	1000081e 	bne	r2,zero,3274 <vid_draw_round_corner_box+0x1dc>
      p += 2*x+1;
    3254:	e0bffa17 	ldw	r2,-24(fp)
    3258:	1085883a 	add	r2,r2,r2
    325c:	1007883a 	mov	r3,r2
    3260:	e0bff817 	ldw	r2,-32(fp)
    3264:	1885883a 	add	r2,r3,r2
    3268:	10800044 	addi	r2,r2,1
    326c:	e0bff815 	stw	r2,-32(fp)
    3270:	00000c06 	br	32a4 <vid_draw_round_corner_box+0x20c>
    } else {
      y--;
    3274:	e0bff917 	ldw	r2,-28(fp)
    3278:	10bfffc4 	addi	r2,r2,-1
    327c:	e0bff915 	stw	r2,-28(fp)
      p += 2*(x-y)+1;
    3280:	e0fffa17 	ldw	r3,-24(fp)
    3284:	e0bff917 	ldw	r2,-28(fp)
    3288:	1885c83a 	sub	r2,r3,r2
    328c:	1085883a 	add	r2,r2,r2
    3290:	1007883a 	mov	r3,r2
    3294:	e0bff817 	ldw	r2,-32(fp)
    3298:	1885883a 	add	r2,r3,r2
    329c:	10800044 	addi	r2,r2,1
    32a0:	e0bff815 	stw	r2,-32(fp)
    }
    vid_round_corner_points( horiz_start + radius, vert_start + radius, x, y, 
    32a4:	e0fffb17 	ldw	r3,-20(fp)
    32a8:	e0800217 	ldw	r2,8(fp)
    32ac:	188d883a 	add	r6,r3,r2
    32b0:	e0fffc17 	ldw	r3,-16(fp)
    32b4:	e0800217 	ldw	r2,8(fp)
    32b8:	188f883a 	add	r7,r3,r2
    32bc:	e23ffa17 	ldw	r8,-24(fp)
    32c0:	e27ff917 	ldw	r9,-28(fp)
    32c4:	e0fff317 	ldw	r3,-52(fp)
    32c8:	e13ff217 	ldw	r4,-56(fp)
    32cc:	e0800417 	ldw	r2,16(fp)
    32d0:	11403fcc 	andi	r5,r2,255
    32d4:	2940201c 	xori	r5,r5,128
    32d8:	297fe004 	addi	r5,r5,-128
    32dc:	d8c00015 	stw	r3,0(sp)
    32e0:	d9000115 	stw	r4,4(sp)
    32e4:	e0800317 	ldw	r2,12(fp)
    32e8:	d8800215 	stw	r2,8(sp)
    32ec:	d9400315 	stw	r5,12(sp)
    32f0:	e0800517 	ldw	r2,20(fp)
    32f4:	d8800415 	stw	r2,16(sp)
    32f8:	3009883a 	mov	r4,r6
    32fc:	380b883a 	mov	r5,r7
    3300:	400d883a 	mov	r6,r8
    3304:	480f883a 	mov	r7,r9
    3308:	00034640 	call	3464 <vid_round_corner_points>
  // Start the corners with the top, bottom, left, and right pixels.
  vid_round_corner_points( horiz_start + radius, vert_start + radius, x, y, 
                           straight_width, straight_height, color, fill, display );
  
  // Now start moving out from those points until the lines meet
  while (x < y) {
    330c:	e0fffa17 	ldw	r3,-24(fp)
    3310:	e0bff917 	ldw	r2,-28(fp)
    3314:	18bfc936 	bltu	r3,r2,323c <vid_draw_round_corner_box+0x1a4>
    vid_round_corner_points( horiz_start + radius, vert_start + radius, x, y, 
                             straight_width, straight_height, color, fill, display);
  }

  // If we want to fill in our box
  if (fill) {
    3318:	e0800417 	ldw	r2,16(fp)
    331c:	1005003a 	cmpeq	r2,r2,zero
    3320:	10000e1e 	bne	r2,zero,335c <vid_draw_round_corner_box+0x2c4>
     vid_paint_block (horiz_start, vert_start + radius, horiz_end, vert_end - radius, color, display);
    3324:	e0fffc17 	ldw	r3,-16(fp)
    3328:	e0800217 	ldw	r2,8(fp)
    332c:	188b883a 	add	r5,r3,r2
    3330:	e0fffe17 	ldw	r3,-8(fp)
    3334:	e0800217 	ldw	r2,8(fp)
    3338:	188fc83a 	sub	r7,r3,r2
    333c:	e0800317 	ldw	r2,12(fp)
    3340:	d8800015 	stw	r2,0(sp)
    3344:	e0800517 	ldw	r2,20(fp)
    3348:	d8800115 	stw	r2,4(sp)
    334c:	e13ffb17 	ldw	r4,-20(fp)
    3350:	e1bffd17 	ldw	r6,-12(fp)
    3354:	00022cc0 	call	22cc <vid_paint_block>
    3358:	00003c06 	br	344c <vid_draw_round_corner_box+0x3b4>
  // If we're not filling in the box, just draw four lines.
  } else {
    vid_draw_line(horiz_start, vert_start + radius, horiz_start, vert_end - radius , 1, color, display); //left
    335c:	e0fffc17 	ldw	r3,-16(fp)
    3360:	e0800217 	ldw	r2,8(fp)
    3364:	188b883a 	add	r5,r3,r2
    3368:	e0fffe17 	ldw	r3,-8(fp)
    336c:	e0800217 	ldw	r2,8(fp)
    3370:	188fc83a 	sub	r7,r3,r2
    3374:	00800044 	movi	r2,1
    3378:	d8800015 	stw	r2,0(sp)
    337c:	e0800317 	ldw	r2,12(fp)
    3380:	d8800115 	stw	r2,4(sp)
    3384:	e0800517 	ldw	r2,20(fp)
    3388:	d8800215 	stw	r2,8(sp)
    338c:	e13ffb17 	ldw	r4,-20(fp)
    3390:	e1bffb17 	ldw	r6,-20(fp)
    3394:	00015cc0 	call	15cc <vid_draw_line>
    vid_draw_line(horiz_end, vert_start + radius, horiz_end, vert_end - radius , 1, color, display); //right
    3398:	e0fffc17 	ldw	r3,-16(fp)
    339c:	e0800217 	ldw	r2,8(fp)
    33a0:	188b883a 	add	r5,r3,r2
    33a4:	e0fffe17 	ldw	r3,-8(fp)
    33a8:	e0800217 	ldw	r2,8(fp)
    33ac:	188fc83a 	sub	r7,r3,r2
    33b0:	00800044 	movi	r2,1
    33b4:	d8800015 	stw	r2,0(sp)
    33b8:	e0800317 	ldw	r2,12(fp)
    33bc:	d8800115 	stw	r2,4(sp)
    33c0:	e0800517 	ldw	r2,20(fp)
    33c4:	d8800215 	stw	r2,8(sp)
    33c8:	e13ffd17 	ldw	r4,-12(fp)
    33cc:	e1bffd17 	ldw	r6,-12(fp)
    33d0:	00015cc0 	call	15cc <vid_draw_line>
    vid_draw_line(horiz_start + radius, vert_start, horiz_end - radius , vert_start, 1, color, display); //top
    33d4:	e0fffb17 	ldw	r3,-20(fp)
    33d8:	e0800217 	ldw	r2,8(fp)
    33dc:	1889883a 	add	r4,r3,r2
    33e0:	e0fffd17 	ldw	r3,-12(fp)
    33e4:	e0800217 	ldw	r2,8(fp)
    33e8:	188dc83a 	sub	r6,r3,r2
    33ec:	00800044 	movi	r2,1
    33f0:	d8800015 	stw	r2,0(sp)
    33f4:	e0800317 	ldw	r2,12(fp)
    33f8:	d8800115 	stw	r2,4(sp)
    33fc:	e0800517 	ldw	r2,20(fp)
    3400:	d8800215 	stw	r2,8(sp)
    3404:	e17ffc17 	ldw	r5,-16(fp)
    3408:	e1fffc17 	ldw	r7,-16(fp)
    340c:	00015cc0 	call	15cc <vid_draw_line>
    vid_draw_line(horiz_start + radius, vert_end, horiz_end - radius , vert_end, 1, color, display); //bottom
    3410:	e0fffb17 	ldw	r3,-20(fp)
    3414:	e0800217 	ldw	r2,8(fp)
    3418:	1889883a 	add	r4,r3,r2
    341c:	e0fffd17 	ldw	r3,-12(fp)
    3420:	e0800217 	ldw	r2,8(fp)
    3424:	188dc83a 	sub	r6,r3,r2
    3428:	00800044 	movi	r2,1
    342c:	d8800015 	stw	r2,0(sp)
    3430:	e0800317 	ldw	r2,12(fp)
    3434:	d8800115 	stw	r2,4(sp)
    3438:	e0800517 	ldw	r2,20(fp)
    343c:	d8800215 	stw	r2,8(sp)
    3440:	e17ffe17 	ldw	r5,-8(fp)
    3444:	e1fffe17 	ldw	r7,-8(fp)
    3448:	00015cc0 	call	15cc <vid_draw_line>
  }

  return (0);
    344c:	0005883a 	mov	r2,zero
}
    3450:	e037883a 	mov	sp,fp
    3454:	dfc00117 	ldw	ra,4(sp)
    3458:	df000017 	ldw	fp,0(sp)
    345c:	dec00204 	addi	sp,sp,8
    3460:	f800283a 	ret

00003464 <vid_round_corner_points>:
******************************************************************/

void vid_round_corner_points( int cx, int cy, int x, int y, 
                              int straight_width, int straight_height, int color, 
                              char fill, alt_video_display* display)
{
    3464:	defff604 	addi	sp,sp,-40
    3468:	dfc00915 	stw	ra,36(sp)
    346c:	df000815 	stw	fp,32(sp)
    3470:	df000804 	addi	fp,sp,32
    3474:	e13ffb15 	stw	r4,-20(fp)
    3478:	e17ffc15 	stw	r5,-16(fp)
    347c:	e1bffd15 	stw	r6,-12(fp)
    3480:	e1fffe15 	stw	r7,-8(fp)
    3484:	e0800517 	ldw	r2,20(fp)
    3488:	e0bfff05 	stb	r2,-4(fp)

    // If we're directly above, below, left and right of center (0 degrees), plot those 4 pixels
    if (x == 0) {
    348c:	e0bffd17 	ldw	r2,-12(fp)
    3490:	1004c03a 	cmpne	r2,r2,zero
    3494:	1000731e 	bne	r2,zero,3664 <vid_round_corner_points+0x200>
        // bottom
        vid_set_pixel(cx, cy + y + straight_height, color, display);
    3498:	e0fffc17 	ldw	r3,-16(fp)
    349c:	e0bffe17 	ldw	r2,-8(fp)
    34a0:	1887883a 	add	r3,r3,r2
    34a4:	e0800317 	ldw	r2,12(fp)
    34a8:	188b883a 	add	r5,r3,r2
    34ac:	e1800417 	ldw	r6,16(fp)
    34b0:	e13ffb17 	ldw	r4,-20(fp)
    34b4:	e1c00617 	ldw	r7,24(fp)
    34b8:	000201c0 	call	201c <vid_set_pixel>
        vid_set_pixel(cx + straight_width, cy + y + straight_height, color, display);
    34bc:	e0fffb17 	ldw	r3,-20(fp)
    34c0:	e0800217 	ldw	r2,8(fp)
    34c4:	1889883a 	add	r4,r3,r2
    34c8:	e0fffc17 	ldw	r3,-16(fp)
    34cc:	e0bffe17 	ldw	r2,-8(fp)
    34d0:	1887883a 	add	r3,r3,r2
    34d4:	e0800317 	ldw	r2,12(fp)
    34d8:	188b883a 	add	r5,r3,r2
    34dc:	e1800417 	ldw	r6,16(fp)
    34e0:	e1c00617 	ldw	r7,24(fp)
    34e4:	000201c0 	call	201c <vid_set_pixel>
        // top
        vid_set_pixel(cx, cy - y, color, display);
    34e8:	e0fffc17 	ldw	r3,-16(fp)
    34ec:	e0bffe17 	ldw	r2,-8(fp)
    34f0:	188bc83a 	sub	r5,r3,r2
    34f4:	e1800417 	ldw	r6,16(fp)
    34f8:	e13ffb17 	ldw	r4,-20(fp)
    34fc:	e1c00617 	ldw	r7,24(fp)
    3500:	000201c0 	call	201c <vid_set_pixel>
        vid_set_pixel(cx + straight_width, cy - y, color, display);
    3504:	e0fffb17 	ldw	r3,-20(fp)
    3508:	e0800217 	ldw	r2,8(fp)
    350c:	1889883a 	add	r4,r3,r2
    3510:	e0fffc17 	ldw	r3,-16(fp)
    3514:	e0bffe17 	ldw	r2,-8(fp)
    3518:	188bc83a 	sub	r5,r3,r2
    351c:	e1800417 	ldw	r6,16(fp)
    3520:	e1c00617 	ldw	r7,24(fp)
    3524:	000201c0 	call	201c <vid_set_pixel>

        if(fill) {
    3528:	e0bfff07 	ldb	r2,-4(fp)
    352c:	1005003a 	cmpeq	r2,r2,zero
    3530:	1000271e 	bne	r2,zero,35d0 <vid_round_corner_points+0x16c>
          vid_draw_line(cx - y, cy, cx + y + straight_width, cy, 1, color, display);
    3534:	e0fffb17 	ldw	r3,-20(fp)
    3538:	e0bffe17 	ldw	r2,-8(fp)
    353c:	1889c83a 	sub	r4,r3,r2
    3540:	e0fffb17 	ldw	r3,-20(fp)
    3544:	e0bffe17 	ldw	r2,-8(fp)
    3548:	1887883a 	add	r3,r3,r2
    354c:	e0800217 	ldw	r2,8(fp)
    3550:	188d883a 	add	r6,r3,r2
    3554:	00800044 	movi	r2,1
    3558:	d8800015 	stw	r2,0(sp)
    355c:	e0800417 	ldw	r2,16(fp)
    3560:	d8800115 	stw	r2,4(sp)
    3564:	e0800617 	ldw	r2,24(fp)
    3568:	d8800215 	stw	r2,8(sp)
    356c:	e17ffc17 	ldw	r5,-16(fp)
    3570:	e1fffc17 	ldw	r7,-16(fp)
    3574:	00015cc0 	call	15cc <vid_draw_line>
          vid_draw_line(cx - y, cy + straight_height, cx + y + straight_width, cy + straight_height, 1, color, display);
    3578:	e0fffb17 	ldw	r3,-20(fp)
    357c:	e0bffe17 	ldw	r2,-8(fp)
    3580:	1889c83a 	sub	r4,r3,r2
    3584:	e0fffc17 	ldw	r3,-16(fp)
    3588:	e0800317 	ldw	r2,12(fp)
    358c:	188b883a 	add	r5,r3,r2
    3590:	e0fffb17 	ldw	r3,-20(fp)
    3594:	e0bffe17 	ldw	r2,-8(fp)
    3598:	1887883a 	add	r3,r3,r2
    359c:	e0800217 	ldw	r2,8(fp)
    35a0:	188d883a 	add	r6,r3,r2
    35a4:	e0fffc17 	ldw	r3,-16(fp)
    35a8:	e0800317 	ldw	r2,12(fp)
    35ac:	188f883a 	add	r7,r3,r2
    35b0:	00800044 	movi	r2,1
    35b4:	d8800015 	stw	r2,0(sp)
    35b8:	e0800417 	ldw	r2,16(fp)
    35bc:	d8800115 	stw	r2,4(sp)
    35c0:	e0800617 	ldw	r2,24(fp)
    35c4:	d8800215 	stw	r2,8(sp)
    35c8:	00015cc0 	call	15cc <vid_draw_line>
    35cc:	00014206 	br	3ad8 <vid_round_corner_points+0x674>
        } else {
          //right
          vid_set_pixel(cx + y + straight_width, cy, color, display);
    35d0:	e0fffb17 	ldw	r3,-20(fp)
    35d4:	e0bffe17 	ldw	r2,-8(fp)
    35d8:	1887883a 	add	r3,r3,r2
    35dc:	e0800217 	ldw	r2,8(fp)
    35e0:	1889883a 	add	r4,r3,r2
    35e4:	e1800417 	ldw	r6,16(fp)
    35e8:	e17ffc17 	ldw	r5,-16(fp)
    35ec:	e1c00617 	ldw	r7,24(fp)
    35f0:	000201c0 	call	201c <vid_set_pixel>
          vid_set_pixel(cx + y + straight_width, cy + straight_height, color, display);
    35f4:	e0fffb17 	ldw	r3,-20(fp)
    35f8:	e0bffe17 	ldw	r2,-8(fp)
    35fc:	1887883a 	add	r3,r3,r2
    3600:	e0800217 	ldw	r2,8(fp)
    3604:	1889883a 	add	r4,r3,r2
    3608:	e0fffc17 	ldw	r3,-16(fp)
    360c:	e0800317 	ldw	r2,12(fp)
    3610:	188b883a 	add	r5,r3,r2
    3614:	e1800417 	ldw	r6,16(fp)
    3618:	e1c00617 	ldw	r7,24(fp)
    361c:	000201c0 	call	201c <vid_set_pixel>
          //left
          vid_set_pixel(cx - y, cy, color, display);
    3620:	e0fffb17 	ldw	r3,-20(fp)
    3624:	e0bffe17 	ldw	r2,-8(fp)
    3628:	1889c83a 	sub	r4,r3,r2
    362c:	e1800417 	ldw	r6,16(fp)
    3630:	e17ffc17 	ldw	r5,-16(fp)
    3634:	e1c00617 	ldw	r7,24(fp)
    3638:	000201c0 	call	201c <vid_set_pixel>
          vid_set_pixel(cx - y, cy + straight_height, color, display);
    363c:	e0fffb17 	ldw	r3,-20(fp)
    3640:	e0bffe17 	ldw	r2,-8(fp)
    3644:	1889c83a 	sub	r4,r3,r2
    3648:	e0fffc17 	ldw	r3,-16(fp)
    364c:	e0800317 	ldw	r2,12(fp)
    3650:	188b883a 	add	r5,r3,r2
    3654:	e1800417 	ldw	r6,16(fp)
    3658:	e1c00617 	ldw	r7,24(fp)
    365c:	000201c0 	call	201c <vid_set_pixel>
    3660:	00011d06 	br	3ad8 <vid_round_corner_points+0x674>
        }

    } else
    // If we've reached the 45 degree points (x=y), plot those 4 pixels
    if (x == y) {
    3664:	e0fffd17 	ldw	r3,-12(fp)
    3668:	e0bffe17 	ldw	r2,-8(fp)
    366c:	18805f1e 	bne	r3,r2,37ec <vid_round_corner_points+0x388>
      if(fill) {
    3670:	e0bfff07 	ldb	r2,-4(fp)
    3674:	1005003a 	cmpeq	r2,r2,zero
    3678:	10002f1e 	bne	r2,zero,3738 <vid_round_corner_points+0x2d4>
        vid_draw_line(cx - x, cy + y + straight_height, cx + x + straight_width, cy + y + straight_height, 1, color, display); // lower
    367c:	e0fffb17 	ldw	r3,-20(fp)
    3680:	e0bffd17 	ldw	r2,-12(fp)
    3684:	1889c83a 	sub	r4,r3,r2
    3688:	e0fffc17 	ldw	r3,-16(fp)
    368c:	e0bffe17 	ldw	r2,-8(fp)
    3690:	1887883a 	add	r3,r3,r2
    3694:	e0800317 	ldw	r2,12(fp)
    3698:	188b883a 	add	r5,r3,r2
    369c:	e0fffb17 	ldw	r3,-20(fp)
    36a0:	e0bffd17 	ldw	r2,-12(fp)
    36a4:	1887883a 	add	r3,r3,r2
    36a8:	e0800217 	ldw	r2,8(fp)
    36ac:	188d883a 	add	r6,r3,r2
    36b0:	e0fffc17 	ldw	r3,-16(fp)
    36b4:	e0bffe17 	ldw	r2,-8(fp)
    36b8:	1887883a 	add	r3,r3,r2
    36bc:	e0800317 	ldw	r2,12(fp)
    36c0:	188f883a 	add	r7,r3,r2
    36c4:	00800044 	movi	r2,1
    36c8:	d8800015 	stw	r2,0(sp)
    36cc:	e0800417 	ldw	r2,16(fp)
    36d0:	d8800115 	stw	r2,4(sp)
    36d4:	e0800617 	ldw	r2,24(fp)
    36d8:	d8800215 	stw	r2,8(sp)
    36dc:	00015cc0 	call	15cc <vid_draw_line>
        vid_draw_line(cx - x, cy - y, cx + x + straight_width, cy - y, 1, color, display); // upper
    36e0:	e0fffb17 	ldw	r3,-20(fp)
    36e4:	e0bffd17 	ldw	r2,-12(fp)
    36e8:	1889c83a 	sub	r4,r3,r2
    36ec:	e0fffc17 	ldw	r3,-16(fp)
    36f0:	e0bffe17 	ldw	r2,-8(fp)
    36f4:	188bc83a 	sub	r5,r3,r2
    36f8:	e0fffb17 	ldw	r3,-20(fp)
    36fc:	e0bffd17 	ldw	r2,-12(fp)
    3700:	1887883a 	add	r3,r3,r2
    3704:	e0800217 	ldw	r2,8(fp)
    3708:	188d883a 	add	r6,r3,r2
    370c:	e0fffc17 	ldw	r3,-16(fp)
    3710:	e0bffe17 	ldw	r2,-8(fp)
    3714:	188fc83a 	sub	r7,r3,r2
    3718:	00800044 	movi	r2,1
    371c:	d8800015 	stw	r2,0(sp)
    3720:	e0800417 	ldw	r2,16(fp)
    3724:	d8800115 	stw	r2,4(sp)
    3728:	e0800617 	ldw	r2,24(fp)
    372c:	d8800215 	stw	r2,8(sp)
    3730:	00015cc0 	call	15cc <vid_draw_line>
    3734:	0000e806 	br	3ad8 <vid_round_corner_points+0x674>
        
      } else {
        vid_set_pixel(cx + x + straight_width, cy + y + straight_height, color, display); // bottom right
    3738:	e0fffb17 	ldw	r3,-20(fp)
    373c:	e0bffd17 	ldw	r2,-12(fp)
    3740:	1887883a 	add	r3,r3,r2
    3744:	e0800217 	ldw	r2,8(fp)
    3748:	1889883a 	add	r4,r3,r2
    374c:	e0fffc17 	ldw	r3,-16(fp)
    3750:	e0bffe17 	ldw	r2,-8(fp)
    3754:	1887883a 	add	r3,r3,r2
    3758:	e0800317 	ldw	r2,12(fp)
    375c:	188b883a 	add	r5,r3,r2
    3760:	e1800417 	ldw	r6,16(fp)
    3764:	e1c00617 	ldw	r7,24(fp)
    3768:	000201c0 	call	201c <vid_set_pixel>
        vid_set_pixel(cx - x, cy + y + straight_height, color, display); // bottom left
    376c:	e0fffb17 	ldw	r3,-20(fp)
    3770:	e0bffd17 	ldw	r2,-12(fp)
    3774:	1889c83a 	sub	r4,r3,r2
    3778:	e0fffc17 	ldw	r3,-16(fp)
    377c:	e0bffe17 	ldw	r2,-8(fp)
    3780:	1887883a 	add	r3,r3,r2
    3784:	e0800317 	ldw	r2,12(fp)
    3788:	188b883a 	add	r5,r3,r2
    378c:	e1800417 	ldw	r6,16(fp)
    3790:	e1c00617 	ldw	r7,24(fp)
    3794:	000201c0 	call	201c <vid_set_pixel>
        vid_set_pixel(cx + x + straight_width, cy - y, color, display); // top right
    3798:	e0fffb17 	ldw	r3,-20(fp)
    379c:	e0bffd17 	ldw	r2,-12(fp)
    37a0:	1887883a 	add	r3,r3,r2
    37a4:	e0800217 	ldw	r2,8(fp)
    37a8:	1889883a 	add	r4,r3,r2
    37ac:	e0fffc17 	ldw	r3,-16(fp)
    37b0:	e0bffe17 	ldw	r2,-8(fp)
    37b4:	188bc83a 	sub	r5,r3,r2
    37b8:	e1800417 	ldw	r6,16(fp)
    37bc:	e1c00617 	ldw	r7,24(fp)
    37c0:	000201c0 	call	201c <vid_set_pixel>
        vid_set_pixel(cx - x, cy - y, color, display); // top left
    37c4:	e0fffb17 	ldw	r3,-20(fp)
    37c8:	e0bffd17 	ldw	r2,-12(fp)
    37cc:	1889c83a 	sub	r4,r3,r2
    37d0:	e0fffc17 	ldw	r3,-16(fp)
    37d4:	e0bffe17 	ldw	r2,-8(fp)
    37d8:	188bc83a 	sub	r5,r3,r2
    37dc:	e1800417 	ldw	r6,16(fp)
    37e0:	e1c00617 	ldw	r7,24(fp)
    37e4:	000201c0 	call	201c <vid_set_pixel>
    37e8:	0000bb06 	br	3ad8 <vid_round_corner_points+0x674>
      }
    } else
    // If we're between 0 and 45 degrees plot 8 pixels.
    if (x < y) {
    37ec:	e0fffd17 	ldw	r3,-12(fp)
    37f0:	e0bffe17 	ldw	r2,-8(fp)
    37f4:	1880b80e 	bge	r3,r2,3ad8 <vid_round_corner_points+0x674>
        if(fill) {
    37f8:	e0bfff07 	ldb	r2,-4(fp)
    37fc:	1005003a 	cmpeq	r2,r2,zero
    3800:	10005d1e 	bne	r2,zero,3978 <vid_round_corner_points+0x514>
          vid_draw_line(cx - x, cy + y + straight_height, cx + x + straight_width, cy + y + straight_height, 1, color, display);
    3804:	e0fffb17 	ldw	r3,-20(fp)
    3808:	e0bffd17 	ldw	r2,-12(fp)
    380c:	1889c83a 	sub	r4,r3,r2
    3810:	e0fffc17 	ldw	r3,-16(fp)
    3814:	e0bffe17 	ldw	r2,-8(fp)
    3818:	1887883a 	add	r3,r3,r2
    381c:	e0800317 	ldw	r2,12(fp)
    3820:	188b883a 	add	r5,r3,r2
    3824:	e0fffb17 	ldw	r3,-20(fp)
    3828:	e0bffd17 	ldw	r2,-12(fp)
    382c:	1887883a 	add	r3,r3,r2
    3830:	e0800217 	ldw	r2,8(fp)
    3834:	188d883a 	add	r6,r3,r2
    3838:	e0fffc17 	ldw	r3,-16(fp)
    383c:	e0bffe17 	ldw	r2,-8(fp)
    3840:	1887883a 	add	r3,r3,r2
    3844:	e0800317 	ldw	r2,12(fp)
    3848:	188f883a 	add	r7,r3,r2
    384c:	00800044 	movi	r2,1
    3850:	d8800015 	stw	r2,0(sp)
    3854:	e0800417 	ldw	r2,16(fp)
    3858:	d8800115 	stw	r2,4(sp)
    385c:	e0800617 	ldw	r2,24(fp)
    3860:	d8800215 	stw	r2,8(sp)
    3864:	00015cc0 	call	15cc <vid_draw_line>
          vid_draw_line(cx - y, cy + x + straight_height, cx + y + straight_width, cy + x + straight_height, 1, color, display);
    3868:	e0fffb17 	ldw	r3,-20(fp)
    386c:	e0bffe17 	ldw	r2,-8(fp)
    3870:	1889c83a 	sub	r4,r3,r2
    3874:	e0fffc17 	ldw	r3,-16(fp)
    3878:	e0bffd17 	ldw	r2,-12(fp)
    387c:	1887883a 	add	r3,r3,r2
    3880:	e0800317 	ldw	r2,12(fp)
    3884:	188b883a 	add	r5,r3,r2
    3888:	e0fffb17 	ldw	r3,-20(fp)
    388c:	e0bffe17 	ldw	r2,-8(fp)
    3890:	1887883a 	add	r3,r3,r2
    3894:	e0800217 	ldw	r2,8(fp)
    3898:	188d883a 	add	r6,r3,r2
    389c:	e0fffc17 	ldw	r3,-16(fp)
    38a0:	e0bffd17 	ldw	r2,-12(fp)
    38a4:	1887883a 	add	r3,r3,r2
    38a8:	e0800317 	ldw	r2,12(fp)
    38ac:	188f883a 	add	r7,r3,r2
    38b0:	00800044 	movi	r2,1
    38b4:	d8800015 	stw	r2,0(sp)
    38b8:	e0800417 	ldw	r2,16(fp)
    38bc:	d8800115 	stw	r2,4(sp)
    38c0:	e0800617 	ldw	r2,24(fp)
    38c4:	d8800215 	stw	r2,8(sp)
    38c8:	00015cc0 	call	15cc <vid_draw_line>
          vid_draw_line(cx - y, cy - x, cx + y + straight_width, cy - x, 1, color, display);
    38cc:	e0fffb17 	ldw	r3,-20(fp)
    38d0:	e0bffe17 	ldw	r2,-8(fp)
    38d4:	1889c83a 	sub	r4,r3,r2
    38d8:	e0fffc17 	ldw	r3,-16(fp)
    38dc:	e0bffd17 	ldw	r2,-12(fp)
    38e0:	188bc83a 	sub	r5,r3,r2
    38e4:	e0fffb17 	ldw	r3,-20(fp)
    38e8:	e0bffe17 	ldw	r2,-8(fp)
    38ec:	1887883a 	add	r3,r3,r2
    38f0:	e0800217 	ldw	r2,8(fp)
    38f4:	188d883a 	add	r6,r3,r2
    38f8:	e0fffc17 	ldw	r3,-16(fp)
    38fc:	e0bffd17 	ldw	r2,-12(fp)
    3900:	188fc83a 	sub	r7,r3,r2
    3904:	00800044 	movi	r2,1
    3908:	d8800015 	stw	r2,0(sp)
    390c:	e0800417 	ldw	r2,16(fp)
    3910:	d8800115 	stw	r2,4(sp)
    3914:	e0800617 	ldw	r2,24(fp)
    3918:	d8800215 	stw	r2,8(sp)
    391c:	00015cc0 	call	15cc <vid_draw_line>
          vid_draw_line(cx - x, cy - y, cx + x + straight_width, cy - y, 1, color, display);
    3920:	e0fffb17 	ldw	r3,-20(fp)
    3924:	e0bffd17 	ldw	r2,-12(fp)
    3928:	1889c83a 	sub	r4,r3,r2
    392c:	e0fffc17 	ldw	r3,-16(fp)
    3930:	e0bffe17 	ldw	r2,-8(fp)
    3934:	188bc83a 	sub	r5,r3,r2
    3938:	e0fffb17 	ldw	r3,-20(fp)
    393c:	e0bffd17 	ldw	r2,-12(fp)
    3940:	1887883a 	add	r3,r3,r2
    3944:	e0800217 	ldw	r2,8(fp)
    3948:	188d883a 	add	r6,r3,r2
    394c:	e0fffc17 	ldw	r3,-16(fp)
    3950:	e0bffe17 	ldw	r2,-8(fp)
    3954:	188fc83a 	sub	r7,r3,r2
    3958:	00800044 	movi	r2,1
    395c:	d8800015 	stw	r2,0(sp)
    3960:	e0800417 	ldw	r2,16(fp)
    3964:	d8800115 	stw	r2,4(sp)
    3968:	e0800617 	ldw	r2,24(fp)
    396c:	d8800215 	stw	r2,8(sp)
    3970:	00015cc0 	call	15cc <vid_draw_line>
    3974:	00005806 	br	3ad8 <vid_round_corner_points+0x674>
        } else {
          vid_set_pixel(cx + x + straight_width, cy + y + straight_height, color, display);
    3978:	e0fffb17 	ldw	r3,-20(fp)
    397c:	e0bffd17 	ldw	r2,-12(fp)
    3980:	1887883a 	add	r3,r3,r2
    3984:	e0800217 	ldw	r2,8(fp)
    3988:	1889883a 	add	r4,r3,r2
    398c:	e0fffc17 	ldw	r3,-16(fp)
    3990:	e0bffe17 	ldw	r2,-8(fp)
    3994:	1887883a 	add	r3,r3,r2
    3998:	e0800317 	ldw	r2,12(fp)
    399c:	188b883a 	add	r5,r3,r2
    39a0:	e1800417 	ldw	r6,16(fp)
    39a4:	e1c00617 	ldw	r7,24(fp)
    39a8:	000201c0 	call	201c <vid_set_pixel>
          vid_set_pixel(cx - x, cy + y + straight_height, color, display);
    39ac:	e0fffb17 	ldw	r3,-20(fp)
    39b0:	e0bffd17 	ldw	r2,-12(fp)
    39b4:	1889c83a 	sub	r4,r3,r2
    39b8:	e0fffc17 	ldw	r3,-16(fp)
    39bc:	e0bffe17 	ldw	r2,-8(fp)
    39c0:	1887883a 	add	r3,r3,r2
    39c4:	e0800317 	ldw	r2,12(fp)
    39c8:	188b883a 	add	r5,r3,r2
    39cc:	e1800417 	ldw	r6,16(fp)
    39d0:	e1c00617 	ldw	r7,24(fp)
    39d4:	000201c0 	call	201c <vid_set_pixel>
          vid_set_pixel(cx + x + straight_width, cy - y, color, display);
    39d8:	e0fffb17 	ldw	r3,-20(fp)
    39dc:	e0bffd17 	ldw	r2,-12(fp)
    39e0:	1887883a 	add	r3,r3,r2
    39e4:	e0800217 	ldw	r2,8(fp)
    39e8:	1889883a 	add	r4,r3,r2
    39ec:	e0fffc17 	ldw	r3,-16(fp)
    39f0:	e0bffe17 	ldw	r2,-8(fp)
    39f4:	188bc83a 	sub	r5,r3,r2
    39f8:	e1800417 	ldw	r6,16(fp)
    39fc:	e1c00617 	ldw	r7,24(fp)
    3a00:	000201c0 	call	201c <vid_set_pixel>
          vid_set_pixel(cx - x, cy - y, color, display);
    3a04:	e0fffb17 	ldw	r3,-20(fp)
    3a08:	e0bffd17 	ldw	r2,-12(fp)
    3a0c:	1889c83a 	sub	r4,r3,r2
    3a10:	e0fffc17 	ldw	r3,-16(fp)
    3a14:	e0bffe17 	ldw	r2,-8(fp)
    3a18:	188bc83a 	sub	r5,r3,r2
    3a1c:	e1800417 	ldw	r6,16(fp)
    3a20:	e1c00617 	ldw	r7,24(fp)
    3a24:	000201c0 	call	201c <vid_set_pixel>
          vid_set_pixel(cx + y + straight_width, cy + x + straight_height, color, display);
    3a28:	e0fffb17 	ldw	r3,-20(fp)
    3a2c:	e0bffe17 	ldw	r2,-8(fp)
    3a30:	1887883a 	add	r3,r3,r2
    3a34:	e0800217 	ldw	r2,8(fp)
    3a38:	1889883a 	add	r4,r3,r2
    3a3c:	e0fffc17 	ldw	r3,-16(fp)
    3a40:	e0bffd17 	ldw	r2,-12(fp)
    3a44:	1887883a 	add	r3,r3,r2
    3a48:	e0800317 	ldw	r2,12(fp)
    3a4c:	188b883a 	add	r5,r3,r2
    3a50:	e1800417 	ldw	r6,16(fp)
    3a54:	e1c00617 	ldw	r7,24(fp)
    3a58:	000201c0 	call	201c <vid_set_pixel>
          vid_set_pixel(cx - y, cy + x + straight_height, color, display);
    3a5c:	e0fffb17 	ldw	r3,-20(fp)
    3a60:	e0bffe17 	ldw	r2,-8(fp)
    3a64:	1889c83a 	sub	r4,r3,r2
    3a68:	e0fffc17 	ldw	r3,-16(fp)
    3a6c:	e0bffd17 	ldw	r2,-12(fp)
    3a70:	1887883a 	add	r3,r3,r2
    3a74:	e0800317 	ldw	r2,12(fp)
    3a78:	188b883a 	add	r5,r3,r2
    3a7c:	e1800417 	ldw	r6,16(fp)
    3a80:	e1c00617 	ldw	r7,24(fp)
    3a84:	000201c0 	call	201c <vid_set_pixel>
          vid_set_pixel(cx + y + straight_width, cy - x, color, display);
    3a88:	e0fffb17 	ldw	r3,-20(fp)
    3a8c:	e0bffe17 	ldw	r2,-8(fp)
    3a90:	1887883a 	add	r3,r3,r2
    3a94:	e0800217 	ldw	r2,8(fp)
    3a98:	1889883a 	add	r4,r3,r2
    3a9c:	e0fffc17 	ldw	r3,-16(fp)
    3aa0:	e0bffd17 	ldw	r2,-12(fp)
    3aa4:	188bc83a 	sub	r5,r3,r2
    3aa8:	e1800417 	ldw	r6,16(fp)
    3aac:	e1c00617 	ldw	r7,24(fp)
    3ab0:	000201c0 	call	201c <vid_set_pixel>
          vid_set_pixel(cx - y, cy - x, color, display);
    3ab4:	e0fffb17 	ldw	r3,-20(fp)
    3ab8:	e0bffe17 	ldw	r2,-8(fp)
    3abc:	1889c83a 	sub	r4,r3,r2
    3ac0:	e0fffc17 	ldw	r3,-16(fp)
    3ac4:	e0bffd17 	ldw	r2,-12(fp)
    3ac8:	188bc83a 	sub	r5,r3,r2
    3acc:	e1800417 	ldw	r6,16(fp)
    3ad0:	e1c00617 	ldw	r7,24(fp)
    3ad4:	000201c0 	call	201c <vid_set_pixel>
        }
    }
}
    3ad8:	e037883a 	mov	sp,fp
    3adc:	dfc00117 	ldw	ra,4(sp)
    3ae0:	df000017 	ldw	fp,0(sp)
    3ae4:	dec00204 	addi	sp,sp,8
    3ae8:	f800283a 	ret

00003aec <max3>:
*  Purpose:  Returns the minimum value of 3 parameters
*            Used for drawing filled shapes
*
******************************************************************/
__inline__ int max3( int a, int b, int c )
{
    3aec:	defffc04 	addi	sp,sp,-16
    3af0:	df000315 	stw	fp,12(sp)
    3af4:	df000304 	addi	fp,sp,12
    3af8:	e13ffd15 	stw	r4,-12(fp)
    3afc:	e17ffe15 	stw	r5,-8(fp)
    3b00:	e1bfff15 	stw	r6,-4(fp)
  if( a < b )
    3b04:	e0fffd17 	ldw	r3,-12(fp)
    3b08:	e0bffe17 	ldw	r2,-8(fp)
    3b0c:	1880020e 	bge	r3,r2,3b18 <max3+0x2c>
    a = b;
    3b10:	e0bffe17 	ldw	r2,-8(fp)
    3b14:	e0bffd15 	stw	r2,-12(fp)
  if( a < c )
    3b18:	e0fffd17 	ldw	r3,-12(fp)
    3b1c:	e0bfff17 	ldw	r2,-4(fp)
    3b20:	1880020e 	bge	r3,r2,3b2c <max3+0x40>
    a = c;
    3b24:	e0bfff17 	ldw	r2,-4(fp)
    3b28:	e0bffd15 	stw	r2,-12(fp)
  
  return a;
    3b2c:	e0bffd17 	ldw	r2,-12(fp)
}
    3b30:	e037883a 	mov	sp,fp
    3b34:	df000017 	ldw	fp,0(sp)
    3b38:	dec00104 	addi	sp,sp,4
    3b3c:	f800283a 	ret

00003b40 <min3>:
*  Purpose:  Returns the minimum value of 3 parameters
*            Used for drawing filled shapes.
*
******************************************************************/
__inline__ int min3( int a, int b, int c )
{
    3b40:	defffc04 	addi	sp,sp,-16
    3b44:	df000315 	stw	fp,12(sp)
    3b48:	df000304 	addi	fp,sp,12
    3b4c:	e13ffd15 	stw	r4,-12(fp)
    3b50:	e17ffe15 	stw	r5,-8(fp)
    3b54:	e1bfff15 	stw	r6,-4(fp)
  if( a > b )
    3b58:	e0fffd17 	ldw	r3,-12(fp)
    3b5c:	e0bffe17 	ldw	r2,-8(fp)
    3b60:	10c0020e 	bge	r2,r3,3b6c <min3+0x2c>
    a = b;
    3b64:	e0bffe17 	ldw	r2,-8(fp)
    3b68:	e0bffd15 	stw	r2,-12(fp)
  if( a > c )
    3b6c:	e0fffd17 	ldw	r3,-12(fp)
    3b70:	e0bfff17 	ldw	r2,-4(fp)
    3b74:	10c0020e 	bge	r2,r3,3b80 <min3+0x40>
    a = c;
    3b78:	e0bfff17 	ldw	r2,-4(fp)
    3b7c:	e0bffd15 	stw	r2,-12(fp)
  
  return a;
    3b80:	e0bffd17 	ldw	r2,-12(fp)
}
    3b84:	e037883a 	mov	sp,fp
    3b88:	df000017 	ldw	fp,0(sp)
    3b8c:	dec00104 	addi	sp,sp,4
    3b90:	f800283a 	ret

00003b94 <max_diff3>:
*  Purpose:  Returns the positive max difference between 3 
*            parameters.  Used for drawing filled shapes
*
******************************************************************/
__inline__ int max_diff3(int a, int b, int c)
{
    3b94:	defff904 	addi	sp,sp,-28
    3b98:	dfc00615 	stw	ra,24(sp)
    3b9c:	df000515 	stw	fp,20(sp)
    3ba0:	df000504 	addi	fp,sp,20
    3ba4:	e13ffd15 	stw	r4,-12(fp)
    3ba8:	e17ffe15 	stw	r5,-8(fp)
    3bac:	e1bfff15 	stw	r6,-4(fp)
  int max, min;
    
  max = max3( a, b, c );
    3bb0:	e13ffd17 	ldw	r4,-12(fp)
    3bb4:	e17ffe17 	ldw	r5,-8(fp)
    3bb8:	e1bfff17 	ldw	r6,-4(fp)
    3bbc:	0003aec0 	call	3aec <max3>
    3bc0:	e0bffc15 	stw	r2,-16(fp)
  min = min3( a, b, c );
    3bc4:	e13ffd17 	ldw	r4,-12(fp)
    3bc8:	e17ffe17 	ldw	r5,-8(fp)
    3bcc:	e1bfff17 	ldw	r6,-4(fp)
    3bd0:	0003b400 	call	3b40 <min3>
    3bd4:	e0bffb15 	stw	r2,-20(fp)
  return (max - min);
    3bd8:	e0fffc17 	ldw	r3,-16(fp)
    3bdc:	e0bffb17 	ldw	r2,-20(fp)
    3be0:	1885c83a 	sub	r2,r3,r2
}
    3be4:	e037883a 	mov	sp,fp
    3be8:	dfc00117 	ldw	ra,4(sp)
    3bec:	df000017 	ldw	fp,0(sp)
    3bf0:	dec00204 	addi	sp,sp,8
    3bf4:	f800283a 	ret

00003bf8 <vid_put_pixel_in_span_map>:
*            min value of an element that represents a span, 
*            essentially just a horizontal line used to fill shapes.
*
******************************************************************/
